
.\output\kernel.elf:     file format elf32-littlearm


Disassembly of section .text:

00008000 <__start>:
    8000:	ee101fb0 	mrc	15, 0, r1, cr0, cr0, {5}
    8004:	e2011003 	and	r1, r1, #3
    8008:	e3510000 	cmp	r1, #0
    800c:	1a000018 	bne	8074 <halt>
    8010:	e59f00c8 	ldr	r0, [pc, #200]	; 80e0 <fiq_handler+0x4>
    8014:	ee0c0f10 	mcr	15, 0, r0, cr12, cr0, {0}
    8018:	e10f0000 	mrs	r0, CPSR
    801c:	e3c0101f 	bic	r1, r0, #31
    8020:	e3811012 	orr	r1, r1, #18
    8024:	e121f001 	msr	CPSR_c, r1
    8028:	e3a0d901 	mov	sp, #16384	; 0x4000
    802c:	e121f000 	msr	CPSR_c, r0
    8030:	e59f40ac 	ldr	r4, [pc, #172]	; 80e4 <fiq_handler+0x8>
    8034:	e1a0d004 	mov	sp, r4
    8038:	e59f40a8 	ldr	r4, [pc, #168]	; 80e8 <fiq_handler+0xc>
    803c:	e59f90a8 	ldr	r9, [pc, #168]	; 80ec <fiq_handler+0x10>
    8040:	e3a05000 	mov	r5, #0

00008044 <next_word>:
    8044:	e1540009 	cmp	r4, r9
    8048:	aa000001 	bge	8054 <end_bss_init>
    804c:	e8a40020 	stmia	r4!, {r5}
    8050:	eafffffb 	b	8044 <next_word>

00008054 <end_bss_init>:
    8054:	e59f0084 	ldr	r0, [pc, #132]	; 80e0 <fiq_handler+0x4>
    8058:	e3a01000 	mov	r1, #0
    805c:	e8b003fc 	ldm	r0!, {r2, r3, r4, r5, r6, r7, r8, r9}
    8060:	e8a103fc 	stmia	r1!, {r2, r3, r4, r5, r6, r7, r8, r9}
    8064:	e8b003fc 	ldm	r0!, {r2, r3, r4, r5, r6, r7, r8, r9}
    8068:	e8a103fc 	stmia	r1!, {r2, r3, r4, r5, r6, r7, r8, r9}
    806c:	e59f307c 	ldr	r3, [pc, #124]	; 80f0 <fiq_handler+0x14>
    8070:	e12fff33 	blx	r3

00008074 <halt>:
    8074:	e320f002 	wfe
    8078:	eafffffd 	b	8074 <halt>

0000807c <hang>:
    807c:	eafffffe 	b	807c <hang>

00008080 <irq>:
    8080:	e92d5fff 	push	{r0, r1, r2, r3, r4, r5, r6, r7, r8, r9, sl, fp, ip, lr}
    8084:	eb0034e2 	bl	15414 <IRQ_Handler>
    8088:	e8bd5fff 	pop	{r0, r1, r2, r3, r4, r5, r6, r7, r8, r9, sl, fp, ip, lr}
    808c:	e25ef004 	subs	pc, lr, #4
	...

000080a0 <vector>:
    80a0:	e59ff018 	ldr	pc, [pc, #24]	; 80c0 <reset_handler>
    80a4:	e59ff018 	ldr	pc, [pc, #24]	; 80c4 <undefined_handler>
    80a8:	e59ff018 	ldr	pc, [pc, #24]	; 80c8 <swi_handler>
    80ac:	e59ff018 	ldr	pc, [pc, #24]	; 80cc <prefetch_handler>
    80b0:	e59ff018 	ldr	pc, [pc, #24]	; 80d0 <data_handler>
    80b4:	e59ff018 	ldr	pc, [pc, #24]	; 80d4 <unused_handler>
    80b8:	e59ff018 	ldr	pc, [pc, #24]	; 80d8 <irq_handler>
    80bc:	e59ff018 	ldr	pc, [pc, #24]	; 80dc <fiq_handler>

000080c0 <reset_handler>:
    80c0:	00008000 	andeq	r8, r0, r0

000080c4 <undefined_handler>:
    80c4:	0000807c 	andeq	r8, r0, ip, ror r0

000080c8 <swi_handler>:
    80c8:	00015408 	andeq	r5, r1, r8, lsl #8

000080cc <prefetch_handler>:
    80cc:	0000807c 	andeq	r8, r0, ip, ror r0

000080d0 <data_handler>:
    80d0:	0000807c 	andeq	r8, r0, ip, ror r0

000080d4 <unused_handler>:
    80d4:	0000807c 	andeq	r8, r0, ip, ror r0

000080d8 <irq_handler>:
    80d8:	00008080 	andeq	r8, r0, r0, lsl #1

000080dc <fiq_handler>:
    80dc:	0000807c 	andeq	r8, r0, ip, ror r0
    80e0:	000080a0 	andeq	r8, r0, r0, lsr #1
    80e4:	020ca9a8 	andeq	sl, ip, #168, 18	; 0x2a0000
    80e8:	00016a08 	andeq	r6, r1, r8, lsl #20
    80ec:	0201c1e0 	andeq	ip, r1, #224, 2	; 0x38
    80f0:	00010758 	andeq	r0, r1, r8, asr r7

000080f4 <__do_global_dtors_aux>:
    80f4:	b510      	push	{r4, lr}
    80f6:	f646 2408 	movw	r4, #27144	; 0x6a08
    80fa:	f2c0 0401 	movt	r4, #1
    80fe:	7823      	ldrb	r3, [r4, #0]
    8100:	b963      	cbnz	r3, 811c <__do_global_dtors_aux+0x28>
    8102:	f240 0300 	movw	r3, #0
    8106:	f2c0 0300 	movt	r3, #0
    810a:	b12b      	cbz	r3, 8118 <__do_global_dtors_aux+0x24>
    810c:	f647 007c 	movw	r0, #30844	; 0x787c
    8110:	f2c0 200c 	movt	r0, #524	; 0x20c
    8114:	f3af 8000 	nop.w
    8118:	2301      	movs	r3, #1
    811a:	7023      	strb	r3, [r4, #0]
    811c:	bd10      	pop	{r4, pc}
    811e:	bf00      	nop

00008120 <frame_dummy>:
    8120:	b508      	push	{r3, lr}
    8122:	f240 0300 	movw	r3, #0
    8126:	f2c0 0300 	movt	r3, #0
    812a:	b14b      	cbz	r3, 8140 <frame_dummy+0x20>
    812c:	f646 210c 	movw	r1, #27148	; 0x6a0c
    8130:	f647 007c 	movw	r0, #30844	; 0x787c
    8134:	f2c0 0101 	movt	r1, #1
    8138:	f2c0 200c 	movt	r0, #524	; 0x20c
    813c:	f3af 8000 	nop.w
    8140:	bd08      	pop	{r3, pc}
    8142:	bf00      	nop

00008144 <_mainCRTStartup>:
    8144:	4b15      	ldr	r3, [pc, #84]	; (819c <_mainCRTStartup+0x58>)
    8146:	2b00      	cmp	r3, #0
    8148:	bf08      	it	eq
    814a:	4b13      	ldreq	r3, [pc, #76]	; (8198 <_mainCRTStartup+0x54>)
    814c:	469d      	mov	sp, r3
    814e:	f5a3 3a80 	sub.w	sl, r3, #65536	; 0x10000
    8152:	2100      	movs	r1, #0
    8154:	468b      	mov	fp, r1
    8156:	460f      	mov	r7, r1
    8158:	4813      	ldr	r0, [pc, #76]	; (81a8 <_mainCRTStartup+0x64>)
    815a:	4a14      	ldr	r2, [pc, #80]	; (81ac <_mainCRTStartup+0x68>)
    815c:	1a12      	subs	r2, r2, r0
    815e:	f00d fc97 	bl	15a90 <memset>
    8162:	4b0f      	ldr	r3, [pc, #60]	; (81a0 <_mainCRTStartup+0x5c>)
    8164:	2b00      	cmp	r3, #0
    8166:	d000      	beq.n	816a <_mainCRTStartup+0x26>
    8168:	4798      	blx	r3
    816a:	4b0e      	ldr	r3, [pc, #56]	; (81a4 <_mainCRTStartup+0x60>)
    816c:	2b00      	cmp	r3, #0
    816e:	d000      	beq.n	8172 <_mainCRTStartup+0x2e>
    8170:	4798      	blx	r3
    8172:	2000      	movs	r0, #0
    8174:	2100      	movs	r1, #0
    8176:	0004      	movs	r4, r0
    8178:	000d      	movs	r5, r1
    817a:	480d      	ldr	r0, [pc, #52]	; (81b0 <_mainCRTStartup+0x6c>)
    817c:	2800      	cmp	r0, #0
    817e:	d002      	beq.n	8186 <_mainCRTStartup+0x42>
    8180:	480c      	ldr	r0, [pc, #48]	; (81b4 <_mainCRTStartup+0x70>)
    8182:	f00d fe23 	bl	15dcc <atexit>
    8186:	f00d fc5b 	bl	15a40 <__libc_init_array>
    818a:	0020      	movs	r0, r4
    818c:	0029      	movs	r1, r5
    818e:	f008 eae4 	blx	10758 <main>
    8192:	f00d fc45 	bl	15a20 <exit>
    8196:	bf00      	nop
    8198:	00080000 	andeq	r0, r8, r0
	...
    81a8:	00016a08 	andeq	r6, r1, r8, lsl #20
    81ac:	0201c1e0 	andeq	ip, r1, #224, 2	; 0x38
    81b0:	00015dcd 	andeq	r5, r1, sp, asr #27
    81b4:	00015dd9 	ldrdeq	r5, [r1], -r9
	...

000081c0 <_hal_io_video_init>:
    81c0:	e92d43f0 	push	{r4, r5, r6, r7, r8, r9, lr}
    81c4:	e3a04007 	mov	r4, #7
    81c8:	e59f1134 	ldr	r1, [pc, #308]	; 8304 <frame_buffer_ptr+0x4>
    81cc:	eb00001a 	bl	823c <mb0_c8_write>
    81d0:	eb000021 	bl	825c <mb0_c8_read>
    81d4:	e3100102 	tst	r0, #-2147483648	; 0x80000000
    81d8:	0a00000b 	beq	820c <_video_init_failed>
    81dc:	e59f1124 	ldr	r1, [pc, #292]	; 8308 <frame_buffer_ptr+0x8>
    81e0:	eb000015 	bl	823c <mb0_c8_write>
    81e4:	eb00001c 	bl	825c <mb0_c8_read>
    81e8:	e3100122 	tst	r0, #-2147483640	; 0x80000008
    81ec:	0a000006 	beq	820c <_video_init_failed>
    81f0:	e5910014 	ldr	r0, [r1, #20]
    81f4:	e3500000 	cmp	r0, #0
    81f8:	0a000003 	beq	820c <_video_init_failed>
    81fc:	e59f4108 	ldr	r4, [pc, #264]	; 830c <frame_buffer_ptr+0xc>
    8200:	e5840000 	str	r0, [r4]
    8204:	e3a00000 	mov	r0, #0
    8208:	ea000000 	b	8210 <_video_init_success>

0000820c <_video_init_failed>:
    820c:	e3a00001 	mov	r0, #1

00008210 <_video_init_success>:
    8210:	e8bd83f0 	pop	{r4, r5, r6, r7, r8, r9, pc}

00008214 <_hal_io_video_put_pixel_raw>:
    8214:	e92d4070 	push	{r4, r5, r6, lr}
    8218:	e59f50ec 	ldr	r5, [pc, #236]	; 830c <frame_buffer_ptr+0xc>
    821c:	e5954000 	ldr	r4, [r5]
    8220:	e7841000 	str	r1, [r4, r0]
    8224:	e8bd8070 	pop	{r4, r5, r6, pc}

00008228 <_hal_io_video_put_byte_raw>:
    8228:	e92d4070 	push	{r4, r5, r6, lr}
    822c:	e59f50d8 	ldr	r5, [pc, #216]	; 830c <frame_buffer_ptr+0xc>
    8230:	e5954000 	ldr	r4, [r5]
    8234:	e7c41000 	strb	r1, [r4, r0]
    8238:	e8bd8070 	pop	{r4, r5, r6, pc}

0000823c <mb0_c8_write>:
    823c:	e59f30cc 	ldr	r3, [pc, #204]	; 8310 <frame_buffer_ptr+0x10>

00008240 <.mb0_full>:
    8240:	e5936018 	ldr	r6, [r3, #24]
    8244:	e3160102 	tst	r6, #-2147483648	; 0x80000000
    8248:	1afffffc 	bne	8240 <.mb0_full>
    824c:	e2811008 	add	r1, r1, #8
    8250:	e5831020 	str	r1, [r3, #32]
    8254:	e2411008 	sub	r1, r1, #8
    8258:	e1a0f00e 	mov	pc, lr

0000825c <mb0_c8_read>:
    825c:	e59f60ac 	ldr	r6, [pc, #172]	; 8310 <frame_buffer_ptr+0x10>

00008260 <.mb0_empty>:
    8260:	e5963018 	ldr	r3, [r6, #24]
    8264:	e3130101 	tst	r3, #1073741824	; 0x40000000
    8268:	1afffffc 	bne	8260 <.mb0_empty>
    826c:	e5964000 	ldr	r4, [r6]
    8270:	e204000f 	and	r0, r4, #15
    8274:	e3300008 	teq	r0, #8
    8278:	1afffff8 	bne	8260 <.mb0_empty>
    827c:	e5910004 	ldr	r0, [r1, #4]
    8280:	e1a0f00e 	mov	pc, lr
    8284:	e320f000 	nop	{0}
    8288:	e320f000 	nop	{0}
    828c:	e320f000 	nop	{0}

00008290 <vc_set_res>:
    8290:	00000050 	andeq	r0, r0, r0, asr r0
    8294:	00000000 	andeq	r0, r0, r0
    8298:	00048003 	andeq	r8, r4, r3
    829c:	00000008 	andeq	r0, r0, r8
    82a0:	00000008 	andeq	r0, r0, r8
    82a4:	00000280 	andeq	r0, r0, r0, lsl #5
    82a8:	000001e0 	andeq	r0, r0, r0, ror #3
    82ac:	00048004 	andeq	r8, r4, r4
    82b0:	00000008 	andeq	r0, r0, r8
    82b4:	00000008 	andeq	r0, r0, r8
    82b8:	00000280 	andeq	r0, r0, r0, lsl #5
    82bc:	000001e0 	andeq	r0, r0, r0, ror #3
    82c0:	00048005 	andeq	r8, r4, r5
    82c4:	00000004 	andeq	r0, r0, r4
    82c8:	00000004 	andeq	r0, r0, r4
    82cc:	00000018 	andeq	r0, r0, r8, lsl r0
	...

000082e0 <vc_alloc_fb>:
    82e0:	00000020 	andeq	r0, r0, r0, lsr #32
    82e4:	00000000 	andeq	r0, r0, r0
    82e8:	00040001 	andeq	r0, r4, r1
    82ec:	00000008 	andeq	r0, r0, r8
    82f0:	00000004 	andeq	r0, r0, r4
    82f4:	00000010 	andeq	r0, r0, r0, lsl r0
	...

00008300 <frame_buffer_ptr>:
    8300:	00000000 	andeq	r0, r0, r0
    8304:	00008290 	muleq	r0, r0, r2
    8308:	000082e0 	andeq	r8, r0, r0, ror #5
    830c:	00008300 	andeq	r8, r0, r0, lsl #6
    8310:	3f00b880 	svccc	0x0000b880

00008314 <ARMaddrToGPUaddr>:
    8314:	e59f1008 	ldr	r1, [pc, #8]	; 8324 <ARMaddrToGPUaddr+0x10>
    8318:	e5911000 	ldr	r1, [r1]
    831c:	e1800001 	orr	r0, r0, r1
    8320:	e12fff1e 	bx	lr
    8324:	00015fa0 	andeq	r5, r1, r0, lsr #31

00008328 <GPUaddrToARMaddr>:
    8328:	e59f1008 	ldr	r1, [pc, #8]	; 8338 <GPUaddrToARMaddr+0x10>
    832c:	e5911000 	ldr	r1, [r1]
    8330:	e1c00001 	bic	r0, r0, r1
    8334:	e12fff1e 	bx	lr
    8338:	00015fa0 	andeq	r5, r1, r0, lsr #31

0000833c <skip_atoi>:
    833c:	e52db004 	push	{fp}		; (str fp, [sp, #-4]!)
    8340:	e28db000 	add	fp, sp, #0
    8344:	e24dd014 	sub	sp, sp, #20
    8348:	e50b0010 	str	r0, [fp, #-16]
    834c:	e59f107c 	ldr	r1, [pc, #124]	; 83d0 <skip_atoi+0x94>
    8350:	e08f1001 	add	r1, pc, r1
    8354:	e3a03000 	mov	r3, #0
    8358:	e50b3008 	str	r3, [fp, #-8]
    835c:	ea00000b 	b	8390 <skip_atoi+0x54>
    8360:	e51b3008 	ldr	r3, [fp, #-8]
    8364:	e3a0200a 	mov	r2, #10
    8368:	e0020392 	mul	r2, r2, r3
    836c:	e51b3010 	ldr	r3, [fp, #-16]
    8370:	e5933000 	ldr	r3, [r3]
    8374:	e283c001 	add	ip, r3, #1
    8378:	e51b0010 	ldr	r0, [fp, #-16]
    837c:	e580c000 	str	ip, [r0]
    8380:	e5d33000 	ldrb	r3, [r3]
    8384:	e0823003 	add	r3, r2, r3
    8388:	e2433030 	sub	r3, r3, #48	; 0x30
    838c:	e50b3008 	str	r3, [fp, #-8]
    8390:	e51b3010 	ldr	r3, [fp, #-16]
    8394:	e5933000 	ldr	r3, [r3]
    8398:	e5d33000 	ldrb	r3, [r3]
    839c:	e2833001 	add	r3, r3, #1
    83a0:	e59f202c 	ldr	r2, [pc, #44]	; 83d4 <skip_atoi+0x98>
    83a4:	e7912002 	ldr	r2, [r1, r2]
    83a8:	e0833002 	add	r3, r3, r2
    83ac:	e5d33000 	ldrb	r3, [r3]
    83b0:	e2033004 	and	r3, r3, #4
    83b4:	e3530000 	cmp	r3, #0
    83b8:	1affffe8 	bne	8360 <skip_atoi+0x24>
    83bc:	e51b3008 	ldr	r3, [fp, #-8]
    83c0:	e1a00003 	mov	r0, r3
    83c4:	e28bd000 	add	sp, fp, #0
    83c8:	e49db004 	pop	{fp}		; (ldr fp, [sp], #4)
    83cc:	e12fff1e 	bx	lr
    83d0:	0000e03c 	andeq	lr, r0, ip, lsr r0
    83d4:	00000040 	andeq	r0, r0, r0, asr #32

000083d8 <number>:
    83d8:	e52db004 	push	{fp}		; (str fp, [sp, #-4]!)
    83dc:	e28db000 	add	fp, sp, #0
    83e0:	e24dd06c 	sub	sp, sp, #108	; 0x6c
    83e4:	e50b0060 	str	r0, [fp, #-96]	; 0xffffffa0
    83e8:	e50b1064 	str	r1, [fp, #-100]	; 0xffffff9c
    83ec:	e50b2068 	str	r2, [fp, #-104]	; 0xffffff98
    83f0:	e50b306c 	str	r3, [fp, #-108]	; 0xffffff94
    83f4:	e59b3008 	ldr	r3, [fp, #8]
    83f8:	e6ef3073 	uxtb	r3, r3
    83fc:	e2033020 	and	r3, r3, #32
    8400:	e54b300d 	strb	r3, [fp, #-13]
    8404:	e59b3008 	ldr	r3, [fp, #8]
    8408:	e2033010 	and	r3, r3, #16
    840c:	e3530000 	cmp	r3, #0
    8410:	0a000002 	beq	8420 <number+0x48>
    8414:	e59b3008 	ldr	r3, [fp, #8]
    8418:	e3c33001 	bic	r3, r3, #1
    841c:	e58b3008 	str	r3, [fp, #8]
    8420:	e51b3068 	ldr	r3, [fp, #-104]	; 0xffffff98
    8424:	e3530001 	cmp	r3, #1
    8428:	da000002 	ble	8438 <number+0x60>
    842c:	e51b3068 	ldr	r3, [fp, #-104]	; 0xffffff98
    8430:	e3530010 	cmp	r3, #16
    8434:	da000001 	ble	8440 <number+0x68>
    8438:	e3a03000 	mov	r3, #0
    843c:	ea0000d6 	b	879c <number+0x3c4>
    8440:	e59b3008 	ldr	r3, [fp, #8]
    8444:	e2033001 	and	r3, r3, #1
    8448:	e3530000 	cmp	r3, #0
    844c:	0a000001 	beq	8458 <number+0x80>
    8450:	e3a03030 	mov	r3, #48	; 0x30
    8454:	ea000000 	b	845c <number+0x84>
    8458:	e3a03020 	mov	r3, #32
    845c:	e54b300e 	strb	r3, [fp, #-14]
    8460:	e3a03000 	mov	r3, #0
    8464:	e54b3005 	strb	r3, [fp, #-5]
    8468:	e59b3008 	ldr	r3, [fp, #8]
    846c:	e2033002 	and	r3, r3, #2
    8470:	e3530000 	cmp	r3, #0
    8474:	0a00001e 	beq	84f4 <number+0x11c>
    8478:	e51b3064 	ldr	r3, [fp, #-100]	; 0xffffff9c
    847c:	e3530000 	cmp	r3, #0
    8480:	aa000008 	bge	84a8 <number+0xd0>
    8484:	e3a0302d 	mov	r3, #45	; 0x2d
    8488:	e54b3005 	strb	r3, [fp, #-5]
    848c:	e51b3064 	ldr	r3, [fp, #-100]	; 0xffffff9c
    8490:	e2633000 	rsb	r3, r3, #0
    8494:	e50b3064 	str	r3, [fp, #-100]	; 0xffffff9c
    8498:	e51b306c 	ldr	r3, [fp, #-108]	; 0xffffff94
    849c:	e2433001 	sub	r3, r3, #1
    84a0:	e50b306c 	str	r3, [fp, #-108]	; 0xffffff94
    84a4:	ea000012 	b	84f4 <number+0x11c>
    84a8:	e59b3008 	ldr	r3, [fp, #8]
    84ac:	e2033004 	and	r3, r3, #4
    84b0:	e3530000 	cmp	r3, #0
    84b4:	0a000005 	beq	84d0 <number+0xf8>
    84b8:	e3a0302b 	mov	r3, #43	; 0x2b
    84bc:	e54b3005 	strb	r3, [fp, #-5]
    84c0:	e51b306c 	ldr	r3, [fp, #-108]	; 0xffffff94
    84c4:	e2433001 	sub	r3, r3, #1
    84c8:	e50b306c 	str	r3, [fp, #-108]	; 0xffffff94
    84cc:	ea000008 	b	84f4 <number+0x11c>
    84d0:	e59b3008 	ldr	r3, [fp, #8]
    84d4:	e2033008 	and	r3, r3, #8
    84d8:	e3530000 	cmp	r3, #0
    84dc:	0a000004 	beq	84f4 <number+0x11c>
    84e0:	e3a03020 	mov	r3, #32
    84e4:	e54b3005 	strb	r3, [fp, #-5]
    84e8:	e51b306c 	ldr	r3, [fp, #-108]	; 0xffffff94
    84ec:	e2433001 	sub	r3, r3, #1
    84f0:	e50b306c 	str	r3, [fp, #-108]	; 0xffffff94
    84f4:	e59b3008 	ldr	r3, [fp, #8]
    84f8:	e2033040 	and	r3, r3, #64	; 0x40
    84fc:	e3530000 	cmp	r3, #0
    8500:	0a00000c 	beq	8538 <number+0x160>
    8504:	e51b3068 	ldr	r3, [fp, #-104]	; 0xffffff98
    8508:	e3530010 	cmp	r3, #16
    850c:	1a000003 	bne	8520 <number+0x148>
    8510:	e51b306c 	ldr	r3, [fp, #-108]	; 0xffffff94
    8514:	e2433002 	sub	r3, r3, #2
    8518:	e50b306c 	str	r3, [fp, #-108]	; 0xffffff94
    851c:	ea000005 	b	8538 <number+0x160>
    8520:	e51b3068 	ldr	r3, [fp, #-104]	; 0xffffff98
    8524:	e3530008 	cmp	r3, #8
    8528:	1a000002 	bne	8538 <number+0x160>
    852c:	e51b306c 	ldr	r3, [fp, #-108]	; 0xffffff94
    8530:	e2433001 	sub	r3, r3, #1
    8534:	e50b306c 	str	r3, [fp, #-108]	; 0xffffff94
    8538:	e3a03000 	mov	r3, #0
    853c:	e50b300c 	str	r3, [fp, #-12]
    8540:	e51b3064 	ldr	r3, [fp, #-100]	; 0xffffff9c
    8544:	e3530000 	cmp	r3, #0
    8548:	1a00001e 	bne	85c8 <number+0x1f0>
    854c:	e51b300c 	ldr	r3, [fp, #-12]
    8550:	e2832001 	add	r2, r3, #1
    8554:	e50b200c 	str	r2, [fp, #-12]
    8558:	e24b2004 	sub	r2, fp, #4
    855c:	e0823003 	add	r3, r2, r3
    8560:	e3a02030 	mov	r2, #48	; 0x30
    8564:	e5432054 	strb	r2, [r3, #-84]	; 0xffffffac
    8568:	ea000019 	b	85d4 <number+0x1fc>
    856c:	e51b3064 	ldr	r3, [fp, #-100]	; 0xffffff9c
    8570:	e51b2068 	ldr	r2, [fp, #-104]	; 0xffffff98
    8574:	e731f213 	udiv	r1, r3, r2
    8578:	e0020192 	mul	r2, r2, r1
    857c:	e0433002 	sub	r3, r3, r2
    8580:	e50b3014 	str	r3, [fp, #-20]	; 0xffffffec
    8584:	e51b2064 	ldr	r2, [fp, #-100]	; 0xffffff9c
    8588:	e51b3068 	ldr	r3, [fp, #-104]	; 0xffffff98
    858c:	e733f312 	udiv	r3, r2, r3
    8590:	e50b3064 	str	r3, [fp, #-100]	; 0xffffff9c
    8594:	e51b3014 	ldr	r3, [fp, #-20]	; 0xffffffec
    8598:	e59f220c 	ldr	r2, [pc, #524]	; 87ac <number+0x3d4>
    859c:	e08f2002 	add	r2, pc, r2
    85a0:	e7d21003 	ldrb	r1, [r2, r3]
    85a4:	e51b300c 	ldr	r3, [fp, #-12]
    85a8:	e2832001 	add	r2, r3, #1
    85ac:	e50b200c 	str	r2, [fp, #-12]
    85b0:	e55b200d 	ldrb	r2, [fp, #-13]
    85b4:	e1812002 	orr	r2, r1, r2
    85b8:	e6ef2072 	uxtb	r2, r2
    85bc:	e24b1004 	sub	r1, fp, #4
    85c0:	e0813003 	add	r3, r1, r3
    85c4:	e5432054 	strb	r2, [r3, #-84]	; 0xffffffac
    85c8:	e51b3064 	ldr	r3, [fp, #-100]	; 0xffffff9c
    85cc:	e3530000 	cmp	r3, #0
    85d0:	1affffe5 	bne	856c <number+0x194>
    85d4:	e51b200c 	ldr	r2, [fp, #-12]
    85d8:	e59b3004 	ldr	r3, [fp, #4]
    85dc:	e1520003 	cmp	r2, r3
    85e0:	da000001 	ble	85ec <number+0x214>
    85e4:	e51b300c 	ldr	r3, [fp, #-12]
    85e8:	e58b3004 	str	r3, [fp, #4]
    85ec:	e51b206c 	ldr	r2, [fp, #-108]	; 0xffffff94
    85f0:	e59b3004 	ldr	r3, [fp, #4]
    85f4:	e0423003 	sub	r3, r2, r3
    85f8:	e50b306c 	str	r3, [fp, #-108]	; 0xffffff94
    85fc:	e59b3008 	ldr	r3, [fp, #8]
    8600:	e2033011 	and	r3, r3, #17
    8604:	e3530000 	cmp	r3, #0
    8608:	1a00000a 	bne	8638 <number+0x260>
    860c:	ea000004 	b	8624 <number+0x24c>
    8610:	e51b3060 	ldr	r3, [fp, #-96]	; 0xffffffa0
    8614:	e2832001 	add	r2, r3, #1
    8618:	e50b2060 	str	r2, [fp, #-96]	; 0xffffffa0
    861c:	e3a02020 	mov	r2, #32
    8620:	e5c32000 	strb	r2, [r3]
    8624:	e51b306c 	ldr	r3, [fp, #-108]	; 0xffffff94
    8628:	e2432001 	sub	r2, r3, #1
    862c:	e50b206c 	str	r2, [fp, #-108]	; 0xffffff94
    8630:	e3530000 	cmp	r3, #0
    8634:	cafffff5 	bgt	8610 <number+0x238>
    8638:	e55b3005 	ldrb	r3, [fp, #-5]
    863c:	e3530000 	cmp	r3, #0
    8640:	0a000004 	beq	8658 <number+0x280>
    8644:	e51b3060 	ldr	r3, [fp, #-96]	; 0xffffffa0
    8648:	e2832001 	add	r2, r3, #1
    864c:	e50b2060 	str	r2, [fp, #-96]	; 0xffffffa0
    8650:	e55b2005 	ldrb	r2, [fp, #-5]
    8654:	e5c32000 	strb	r2, [r3]
    8658:	e59b3008 	ldr	r3, [fp, #8]
    865c:	e2033040 	and	r3, r3, #64	; 0x40
    8660:	e3530000 	cmp	r3, #0
    8664:	0a000017 	beq	86c8 <number+0x2f0>
    8668:	e51b3068 	ldr	r3, [fp, #-104]	; 0xffffff98
    866c:	e3530008 	cmp	r3, #8
    8670:	1a000005 	bne	868c <number+0x2b4>
    8674:	e51b3060 	ldr	r3, [fp, #-96]	; 0xffffffa0
    8678:	e2832001 	add	r2, r3, #1
    867c:	e50b2060 	str	r2, [fp, #-96]	; 0xffffffa0
    8680:	e3a02030 	mov	r2, #48	; 0x30
    8684:	e5c32000 	strb	r2, [r3]
    8688:	ea00000e 	b	86c8 <number+0x2f0>
    868c:	e51b3068 	ldr	r3, [fp, #-104]	; 0xffffff98
    8690:	e3530010 	cmp	r3, #16
    8694:	1a00000b 	bne	86c8 <number+0x2f0>
    8698:	e51b3060 	ldr	r3, [fp, #-96]	; 0xffffffa0
    869c:	e2832001 	add	r2, r3, #1
    86a0:	e50b2060 	str	r2, [fp, #-96]	; 0xffffffa0
    86a4:	e3a02030 	mov	r2, #48	; 0x30
    86a8:	e5c32000 	strb	r2, [r3]
    86ac:	e51b3060 	ldr	r3, [fp, #-96]	; 0xffffffa0
    86b0:	e2832001 	add	r2, r3, #1
    86b4:	e50b2060 	str	r2, [fp, #-96]	; 0xffffffa0
    86b8:	e55b200d 	ldrb	r2, [fp, #-13]
    86bc:	e3822058 	orr	r2, r2, #88	; 0x58
    86c0:	e6ef2072 	uxtb	r2, r2
    86c4:	e5c32000 	strb	r2, [r3]
    86c8:	e59b3008 	ldr	r3, [fp, #8]
    86cc:	e2033010 	and	r3, r3, #16
    86d0:	e3530000 	cmp	r3, #0
    86d4:	1a000010 	bne	871c <number+0x344>
    86d8:	ea000004 	b	86f0 <number+0x318>
    86dc:	e51b3060 	ldr	r3, [fp, #-96]	; 0xffffffa0
    86e0:	e2832001 	add	r2, r3, #1
    86e4:	e50b2060 	str	r2, [fp, #-96]	; 0xffffffa0
    86e8:	e55b200e 	ldrb	r2, [fp, #-14]
    86ec:	e5c32000 	strb	r2, [r3]
    86f0:	e51b306c 	ldr	r3, [fp, #-108]	; 0xffffff94
    86f4:	e2432001 	sub	r2, r3, #1
    86f8:	e50b206c 	str	r2, [fp, #-108]	; 0xffffff94
    86fc:	e3530000 	cmp	r3, #0
    8700:	cafffff5 	bgt	86dc <number+0x304>
    8704:	ea000004 	b	871c <number+0x344>
    8708:	e51b3060 	ldr	r3, [fp, #-96]	; 0xffffffa0
    870c:	e2832001 	add	r2, r3, #1
    8710:	e50b2060 	str	r2, [fp, #-96]	; 0xffffffa0
    8714:	e3a02030 	mov	r2, #48	; 0x30
    8718:	e5c32000 	strb	r2, [r3]
    871c:	e59b3004 	ldr	r3, [fp, #4]
    8720:	e2432001 	sub	r2, r3, #1
    8724:	e58b2004 	str	r2, [fp, #4]
    8728:	e51b200c 	ldr	r2, [fp, #-12]
    872c:	e1520003 	cmp	r2, r3
    8730:	bafffff4 	blt	8708 <number+0x330>
    8734:	ea000007 	b	8758 <number+0x380>
    8738:	e51b3060 	ldr	r3, [fp, #-96]	; 0xffffffa0
    873c:	e2832001 	add	r2, r3, #1
    8740:	e50b2060 	str	r2, [fp, #-96]	; 0xffffffa0
    8744:	e24b1058 	sub	r1, fp, #88	; 0x58
    8748:	e51b200c 	ldr	r2, [fp, #-12]
    874c:	e0812002 	add	r2, r1, r2
    8750:	e5d22000 	ldrb	r2, [r2]
    8754:	e5c32000 	strb	r2, [r3]
    8758:	e51b300c 	ldr	r3, [fp, #-12]
    875c:	e2432001 	sub	r2, r3, #1
    8760:	e50b200c 	str	r2, [fp, #-12]
    8764:	e3530000 	cmp	r3, #0
    8768:	cafffff2 	bgt	8738 <number+0x360>
    876c:	ea000004 	b	8784 <number+0x3ac>
    8770:	e51b3060 	ldr	r3, [fp, #-96]	; 0xffffffa0
    8774:	e2832001 	add	r2, r3, #1
    8778:	e50b2060 	str	r2, [fp, #-96]	; 0xffffffa0
    877c:	e3a02020 	mov	r2, #32
    8780:	e5c32000 	strb	r2, [r3]
    8784:	e51b306c 	ldr	r3, [fp, #-108]	; 0xffffff94
    8788:	e2432001 	sub	r2, r3, #1
    878c:	e50b206c 	str	r2, [fp, #-108]	; 0xffffff94
    8790:	e3530000 	cmp	r3, #0
    8794:	cafffff5 	bgt	8770 <number+0x398>
    8798:	e51b3060 	ldr	r3, [fp, #-96]	; 0xffffffa0
    879c:	e1a00003 	mov	r0, r3
    87a0:	e28bd000 	add	sp, fp, #0
    87a4:	e49db004 	pop	{fp}		; (ldr fp, [sp], #4)
    87a8:	e12fff1e 	bx	lr
    87ac:	020bec0c 	andeq	lr, fp, #12, 24	; 0xc00

000087b0 <vsprintf>:
    87b0:	e92d4810 	push	{r4, fp, lr}
    87b4:	e28db008 	add	fp, sp, #8
    87b8:	e24dd04c 	sub	sp, sp, #76	; 0x4c
    87bc:	e50b0040 	str	r0, [fp, #-64]	; 0xffffffc0
    87c0:	e50b1044 	str	r1, [fp, #-68]	; 0xffffffbc
    87c4:	e50b2048 	str	r2, [fp, #-72]	; 0xffffffb8
    87c8:	e59f47e0 	ldr	r4, [pc, #2016]	; 8fb0 <vsprintf+0x800>
    87cc:	e08f4004 	add	r4, pc, r4
    87d0:	e51b3040 	ldr	r3, [fp, #-64]	; 0xffffffc0
    87d4:	e50b301c 	str	r3, [fp, #-28]	; 0xffffffe4
    87d8:	ea0001e7 	b	8f7c <vsprintf+0x7cc>
    87dc:	e51b3044 	ldr	r3, [fp, #-68]	; 0xffffffbc
    87e0:	e5d33000 	ldrb	r3, [r3]
    87e4:	e3530025 	cmp	r3, #37	; 0x25
    87e8:	0a000006 	beq	8808 <vsprintf+0x58>
    87ec:	e51b2044 	ldr	r2, [fp, #-68]	; 0xffffffbc
    87f0:	e51b301c 	ldr	r3, [fp, #-28]	; 0xffffffe4
    87f4:	e2831001 	add	r1, r3, #1
    87f8:	e50b101c 	str	r1, [fp, #-28]	; 0xffffffe4
    87fc:	e5d22000 	ldrb	r2, [r2]
    8800:	e5c32000 	strb	r2, [r3]
    8804:	ea0001d9 	b	8f70 <vsprintf+0x7c0>
    8808:	e3a03000 	mov	r3, #0
    880c:	e50b3024 	str	r3, [fp, #-36]	; 0xffffffdc
    8810:	e51b3044 	ldr	r3, [fp, #-68]	; 0xffffffbc
    8814:	e2833001 	add	r3, r3, #1
    8818:	e50b3044 	str	r3, [fp, #-68]	; 0xffffffbc
    881c:	e51b3044 	ldr	r3, [fp, #-68]	; 0xffffffbc
    8820:	e5d33000 	ldrb	r3, [r3]
    8824:	e2433020 	sub	r3, r3, #32
    8828:	e3530010 	cmp	r3, #16
    882c:	908ff103 	addls	pc, pc, r3, lsl #2
    8830:	ea000024 	b	88c8 <vsprintf+0x118>
    8834:	ea000017 	b	8898 <vsprintf+0xe8>
    8838:	ea000022 	b	88c8 <vsprintf+0x118>
    883c:	ea000021 	b	88c8 <vsprintf+0x118>
    8840:	ea000018 	b	88a8 <vsprintf+0xf8>
    8844:	ea00001f 	b	88c8 <vsprintf+0x118>
    8848:	ea00001e 	b	88c8 <vsprintf+0x118>
    884c:	ea00001d 	b	88c8 <vsprintf+0x118>
    8850:	ea00001c 	b	88c8 <vsprintf+0x118>
    8854:	ea00001b 	b	88c8 <vsprintf+0x118>
    8858:	ea00001a 	b	88c8 <vsprintf+0x118>
    885c:	ea000019 	b	88c8 <vsprintf+0x118>
    8860:	ea000008 	b	8888 <vsprintf+0xd8>
    8864:	ea000017 	b	88c8 <vsprintf+0x118>
    8868:	ea000002 	b	8878 <vsprintf+0xc8>
    886c:	ea000015 	b	88c8 <vsprintf+0x118>
    8870:	ea000014 	b	88c8 <vsprintf+0x118>
    8874:	ea00000f 	b	88b8 <vsprintf+0x108>
    8878:	e51b3024 	ldr	r3, [fp, #-36]	; 0xffffffdc
    887c:	e3833010 	orr	r3, r3, #16
    8880:	e50b3024 	str	r3, [fp, #-36]	; 0xffffffdc
    8884:	eaffffe1 	b	8810 <vsprintf+0x60>
    8888:	e51b3024 	ldr	r3, [fp, #-36]	; 0xffffffdc
    888c:	e3833004 	orr	r3, r3, #4
    8890:	e50b3024 	str	r3, [fp, #-36]	; 0xffffffdc
    8894:	eaffffdd 	b	8810 <vsprintf+0x60>
    8898:	e51b3024 	ldr	r3, [fp, #-36]	; 0xffffffdc
    889c:	e3833008 	orr	r3, r3, #8
    88a0:	e50b3024 	str	r3, [fp, #-36]	; 0xffffffdc
    88a4:	eaffffd9 	b	8810 <vsprintf+0x60>
    88a8:	e51b3024 	ldr	r3, [fp, #-36]	; 0xffffffdc
    88ac:	e3833040 	orr	r3, r3, #64	; 0x40
    88b0:	e50b3024 	str	r3, [fp, #-36]	; 0xffffffdc
    88b4:	eaffffd5 	b	8810 <vsprintf+0x60>
    88b8:	e51b3024 	ldr	r3, [fp, #-36]	; 0xffffffdc
    88bc:	e3833001 	orr	r3, r3, #1
    88c0:	e50b3024 	str	r3, [fp, #-36]	; 0xffffffdc
    88c4:	eaffffd1 	b	8810 <vsprintf+0x60>
    88c8:	e3e03000 	mvn	r3, #0
    88cc:	e50b3028 	str	r3, [fp, #-40]	; 0xffffffd8
    88d0:	e51b3044 	ldr	r3, [fp, #-68]	; 0xffffffbc
    88d4:	e5d33000 	ldrb	r3, [r3]
    88d8:	e2833001 	add	r3, r3, #1
    88dc:	e59f26d0 	ldr	r2, [pc, #1744]	; 8fb4 <vsprintf+0x804>
    88e0:	e7942002 	ldr	r2, [r4, r2]
    88e4:	e0833002 	add	r3, r3, r2
    88e8:	e5d33000 	ldrb	r3, [r3]
    88ec:	e2033004 	and	r3, r3, #4
    88f0:	e3530000 	cmp	r3, #0
    88f4:	0a000004 	beq	890c <vsprintf+0x15c>
    88f8:	e24b3044 	sub	r3, fp, #68	; 0x44
    88fc:	e1a00003 	mov	r0, r3
    8900:	ebfffe8d 	bl	833c <skip_atoi>
    8904:	e50b0028 	str	r0, [fp, #-40]	; 0xffffffd8
    8908:	ea000014 	b	8960 <vsprintf+0x1b0>
    890c:	e51b3044 	ldr	r3, [fp, #-68]	; 0xffffffbc
    8910:	e5d33000 	ldrb	r3, [r3]
    8914:	e353002a 	cmp	r3, #42	; 0x2a
    8918:	1a000010 	bne	8960 <vsprintf+0x1b0>
    891c:	e51b3044 	ldr	r3, [fp, #-68]	; 0xffffffbc
    8920:	e2833001 	add	r3, r3, #1
    8924:	e50b3044 	str	r3, [fp, #-68]	; 0xffffffbc
    8928:	e51b3048 	ldr	r3, [fp, #-72]	; 0xffffffb8
    892c:	e2832004 	add	r2, r3, #4
    8930:	e50b2048 	str	r2, [fp, #-72]	; 0xffffffb8
    8934:	e5933000 	ldr	r3, [r3]
    8938:	e50b3028 	str	r3, [fp, #-40]	; 0xffffffd8
    893c:	e51b3028 	ldr	r3, [fp, #-40]	; 0xffffffd8
    8940:	e3530000 	cmp	r3, #0
    8944:	aa000005 	bge	8960 <vsprintf+0x1b0>
    8948:	e51b3028 	ldr	r3, [fp, #-40]	; 0xffffffd8
    894c:	e2633000 	rsb	r3, r3, #0
    8950:	e50b3028 	str	r3, [fp, #-40]	; 0xffffffd8
    8954:	e51b3024 	ldr	r3, [fp, #-36]	; 0xffffffdc
    8958:	e3833010 	orr	r3, r3, #16
    895c:	e50b3024 	str	r3, [fp, #-36]	; 0xffffffdc
    8960:	e3e03000 	mvn	r3, #0
    8964:	e50b302c 	str	r3, [fp, #-44]	; 0xffffffd4
    8968:	e51b3044 	ldr	r3, [fp, #-68]	; 0xffffffbc
    896c:	e5d33000 	ldrb	r3, [r3]
    8970:	e353002e 	cmp	r3, #46	; 0x2e
    8974:	1a000022 	bne	8a04 <vsprintf+0x254>
    8978:	e51b3044 	ldr	r3, [fp, #-68]	; 0xffffffbc
    897c:	e2833001 	add	r3, r3, #1
    8980:	e50b3044 	str	r3, [fp, #-68]	; 0xffffffbc
    8984:	e51b3044 	ldr	r3, [fp, #-68]	; 0xffffffbc
    8988:	e5d33000 	ldrb	r3, [r3]
    898c:	e2833001 	add	r3, r3, #1
    8990:	e59f261c 	ldr	r2, [pc, #1564]	; 8fb4 <vsprintf+0x804>
    8994:	e7942002 	ldr	r2, [r4, r2]
    8998:	e0833002 	add	r3, r3, r2
    899c:	e5d33000 	ldrb	r3, [r3]
    89a0:	e2033004 	and	r3, r3, #4
    89a4:	e3530000 	cmp	r3, #0
    89a8:	0a000004 	beq	89c0 <vsprintf+0x210>
    89ac:	e24b3044 	sub	r3, fp, #68	; 0x44
    89b0:	e1a00003 	mov	r0, r3
    89b4:	ebfffe60 	bl	833c <skip_atoi>
    89b8:	e50b002c 	str	r0, [fp, #-44]	; 0xffffffd4
    89bc:	ea00000b 	b	89f0 <vsprintf+0x240>
    89c0:	e51b3044 	ldr	r3, [fp, #-68]	; 0xffffffbc
    89c4:	e5d33000 	ldrb	r3, [r3]
    89c8:	e353002a 	cmp	r3, #42	; 0x2a
    89cc:	1a000007 	bne	89f0 <vsprintf+0x240>
    89d0:	e51b3044 	ldr	r3, [fp, #-68]	; 0xffffffbc
    89d4:	e2833001 	add	r3, r3, #1
    89d8:	e50b3044 	str	r3, [fp, #-68]	; 0xffffffbc
    89dc:	e51b3048 	ldr	r3, [fp, #-72]	; 0xffffffb8
    89e0:	e2832004 	add	r2, r3, #4
    89e4:	e50b2048 	str	r2, [fp, #-72]	; 0xffffffb8
    89e8:	e5933000 	ldr	r3, [r3]
    89ec:	e50b302c 	str	r3, [fp, #-44]	; 0xffffffd4
    89f0:	e51b302c 	ldr	r3, [fp, #-44]	; 0xffffffd4
    89f4:	e3530000 	cmp	r3, #0
    89f8:	aa000001 	bge	8a04 <vsprintf+0x254>
    89fc:	e3a03000 	mov	r3, #0
    8a00:	e50b302c 	str	r3, [fp, #-44]	; 0xffffffd4
    8a04:	e3e03000 	mvn	r3, #0
    8a08:	e50b3030 	str	r3, [fp, #-48]	; 0xffffffd0
    8a0c:	e51b3044 	ldr	r3, [fp, #-68]	; 0xffffffbc
    8a10:	e5d33000 	ldrb	r3, [r3]
    8a14:	e3530068 	cmp	r3, #104	; 0x68
    8a18:	0a000007 	beq	8a3c <vsprintf+0x28c>
    8a1c:	e51b3044 	ldr	r3, [fp, #-68]	; 0xffffffbc
    8a20:	e5d33000 	ldrb	r3, [r3]
    8a24:	e353006c 	cmp	r3, #108	; 0x6c
    8a28:	0a000003 	beq	8a3c <vsprintf+0x28c>
    8a2c:	e51b3044 	ldr	r3, [fp, #-68]	; 0xffffffbc
    8a30:	e5d33000 	ldrb	r3, [r3]
    8a34:	e353004c 	cmp	r3, #76	; 0x4c
    8a38:	1a000005 	bne	8a54 <vsprintf+0x2a4>
    8a3c:	e51b3044 	ldr	r3, [fp, #-68]	; 0xffffffbc
    8a40:	e5d33000 	ldrb	r3, [r3]
    8a44:	e50b3030 	str	r3, [fp, #-48]	; 0xffffffd0
    8a48:	e51b3044 	ldr	r3, [fp, #-68]	; 0xffffffbc
    8a4c:	e2833001 	add	r3, r3, #1
    8a50:	e50b3044 	str	r3, [fp, #-68]	; 0xffffffbc
    8a54:	e3a0300a 	mov	r3, #10
    8a58:	e50b3018 	str	r3, [fp, #-24]	; 0xffffffe8
    8a5c:	e51b3044 	ldr	r3, [fp, #-68]	; 0xffffffbc
    8a60:	e5d33000 	ldrb	r3, [r3]
    8a64:	e2433025 	sub	r3, r3, #37	; 0x25
    8a68:	e3530053 	cmp	r3, #83	; 0x53
    8a6c:	908ff103 	addls	pc, pc, r3, lsl #2
    8a70:	ea0000f6 	b	8e50 <vsprintf+0x6a0>
    8a74:	ea0000e2 	b	8e04 <vsprintf+0x654>
    8a78:	ea0000f4 	b	8e50 <vsprintf+0x6a0>
    8a7c:	ea0000f3 	b	8e50 <vsprintf+0x6a0>
    8a80:	ea0000f2 	b	8e50 <vsprintf+0x6a0>
    8a84:	ea0000f1 	b	8e50 <vsprintf+0x6a0>
    8a88:	ea0000f0 	b	8e50 <vsprintf+0x6a0>
    8a8c:	ea0000ef 	b	8e50 <vsprintf+0x6a0>
    8a90:	ea0000ee 	b	8e50 <vsprintf+0x6a0>
    8a94:	ea0000ed 	b	8e50 <vsprintf+0x6a0>
    8a98:	ea0000ec 	b	8e50 <vsprintf+0x6a0>
    8a9c:	ea0000eb 	b	8e50 <vsprintf+0x6a0>
    8aa0:	ea0000ea 	b	8e50 <vsprintf+0x6a0>
    8aa4:	ea0000e9 	b	8e50 <vsprintf+0x6a0>
    8aa8:	ea0000e8 	b	8e50 <vsprintf+0x6a0>
    8aac:	ea0000e7 	b	8e50 <vsprintf+0x6a0>
    8ab0:	ea0000e6 	b	8e50 <vsprintf+0x6a0>
    8ab4:	ea0000e5 	b	8e50 <vsprintf+0x6a0>
    8ab8:	ea0000e4 	b	8e50 <vsprintf+0x6a0>
    8abc:	ea0000e3 	b	8e50 <vsprintf+0x6a0>
    8ac0:	ea0000e2 	b	8e50 <vsprintf+0x6a0>
    8ac4:	ea0000e1 	b	8e50 <vsprintf+0x6a0>
    8ac8:	ea0000e0 	b	8e50 <vsprintf+0x6a0>
    8acc:	ea0000df 	b	8e50 <vsprintf+0x6a0>
    8ad0:	ea0000de 	b	8e50 <vsprintf+0x6a0>
    8ad4:	ea0000dd 	b	8e50 <vsprintf+0x6a0>
    8ad8:	ea0000dc 	b	8e50 <vsprintf+0x6a0>
    8adc:	ea0000db 	b	8e50 <vsprintf+0x6a0>
    8ae0:	ea0000da 	b	8e50 <vsprintf+0x6a0>
    8ae4:	ea0000d9 	b	8e50 <vsprintf+0x6a0>
    8ae8:	ea0000d8 	b	8e50 <vsprintf+0x6a0>
    8aec:	ea0000d7 	b	8e50 <vsprintf+0x6a0>
    8af0:	ea0000d6 	b	8e50 <vsprintf+0x6a0>
    8af4:	ea0000d5 	b	8e50 <vsprintf+0x6a0>
    8af8:	ea0000d4 	b	8e50 <vsprintf+0x6a0>
    8afc:	ea0000d3 	b	8e50 <vsprintf+0x6a0>
    8b00:	ea0000d2 	b	8e50 <vsprintf+0x6a0>
    8b04:	ea0000d1 	b	8e50 <vsprintf+0x6a0>
    8b08:	ea0000d0 	b	8e50 <vsprintf+0x6a0>
    8b0c:	ea0000cf 	b	8e50 <vsprintf+0x6a0>
    8b10:	ea0000ce 	b	8e50 <vsprintf+0x6a0>
    8b14:	ea0000cd 	b	8e50 <vsprintf+0x6a0>
    8b18:	ea0000cc 	b	8e50 <vsprintf+0x6a0>
    8b1c:	ea0000cb 	b	8e50 <vsprintf+0x6a0>
    8b20:	ea0000ca 	b	8e50 <vsprintf+0x6a0>
    8b24:	ea0000c9 	b	8e50 <vsprintf+0x6a0>
    8b28:	ea0000c8 	b	8e50 <vsprintf+0x6a0>
    8b2c:	ea0000c7 	b	8e50 <vsprintf+0x6a0>
    8b30:	ea0000c6 	b	8e50 <vsprintf+0x6a0>
    8b34:	ea0000c5 	b	8e50 <vsprintf+0x6a0>
    8b38:	ea0000c4 	b	8e50 <vsprintf+0x6a0>
    8b3c:	ea0000c3 	b	8e50 <vsprintf+0x6a0>
    8b40:	ea0000bb 	b	8e34 <vsprintf+0x684>
    8b44:	ea0000c1 	b	8e50 <vsprintf+0x6a0>
    8b48:	ea0000c0 	b	8e50 <vsprintf+0x6a0>
    8b4c:	ea0000bf 	b	8e50 <vsprintf+0x6a0>
    8b50:	ea0000be 	b	8e50 <vsprintf+0x6a0>
    8b54:	ea0000bd 	b	8e50 <vsprintf+0x6a0>
    8b58:	ea0000bc 	b	8e50 <vsprintf+0x6a0>
    8b5c:	ea0000bb 	b	8e50 <vsprintf+0x6a0>
    8b60:	ea0000ba 	b	8e50 <vsprintf+0x6a0>
    8b64:	ea0000b9 	b	8e50 <vsprintf+0x6a0>
    8b68:	ea0000b8 	b	8e50 <vsprintf+0x6a0>
    8b6c:	ea000014 	b	8bc4 <vsprintf+0x414>
    8b70:	ea0000b2 	b	8e40 <vsprintf+0x690>
    8b74:	ea0000b5 	b	8e50 <vsprintf+0x6a0>
    8b78:	ea0000b4 	b	8e50 <vsprintf+0x6a0>
    8b7c:	ea0000b3 	b	8e50 <vsprintf+0x6a0>
    8b80:	ea0000b2 	b	8e50 <vsprintf+0x6a0>
    8b84:	ea0000ad 	b	8e40 <vsprintf+0x690>
    8b88:	ea0000b0 	b	8e50 <vsprintf+0x6a0>
    8b8c:	ea0000af 	b	8e50 <vsprintf+0x6a0>
    8b90:	ea0000ae 	b	8e50 <vsprintf+0x6a0>
    8b94:	ea0000ad 	b	8e50 <vsprintf+0x6a0>
    8b98:	ea000080 	b	8da0 <vsprintf+0x5f0>
    8b9c:	ea00009e 	b	8e1c <vsprintf+0x66c>
    8ba0:	ea000067 	b	8d44 <vsprintf+0x594>
    8ba4:	ea0000a9 	b	8e50 <vsprintf+0x6a0>
    8ba8:	ea0000a8 	b	8e50 <vsprintf+0x6a0>
    8bac:	ea00002a 	b	8c5c <vsprintf+0x4ac>
    8bb0:	ea0000a6 	b	8e50 <vsprintf+0x6a0>
    8bb4:	ea0000b9 	b	8ea0 <vsprintf+0x6f0>
    8bb8:	ea0000a4 	b	8e50 <vsprintf+0x6a0>
    8bbc:	ea0000a3 	b	8e50 <vsprintf+0x6a0>
    8bc0:	ea000098 	b	8e28 <vsprintf+0x678>
    8bc4:	e51b3024 	ldr	r3, [fp, #-36]	; 0xffffffdc
    8bc8:	e2033010 	and	r3, r3, #16
    8bcc:	e3530000 	cmp	r3, #0
    8bd0:	1a00000b 	bne	8c04 <vsprintf+0x454>
    8bd4:	ea000004 	b	8bec <vsprintf+0x43c>
    8bd8:	e51b301c 	ldr	r3, [fp, #-28]	; 0xffffffe4
    8bdc:	e2832001 	add	r2, r3, #1
    8be0:	e50b201c 	str	r2, [fp, #-28]	; 0xffffffe4
    8be4:	e3a02020 	mov	r2, #32
    8be8:	e5c32000 	strb	r2, [r3]
    8bec:	e51b3028 	ldr	r3, [fp, #-40]	; 0xffffffd8
    8bf0:	e2433001 	sub	r3, r3, #1
    8bf4:	e50b3028 	str	r3, [fp, #-40]	; 0xffffffd8
    8bf8:	e51b3028 	ldr	r3, [fp, #-40]	; 0xffffffd8
    8bfc:	e3530000 	cmp	r3, #0
    8c00:	cafffff4 	bgt	8bd8 <vsprintf+0x428>
    8c04:	e51b3048 	ldr	r3, [fp, #-72]	; 0xffffffb8
    8c08:	e2832004 	add	r2, r3, #4
    8c0c:	e50b2048 	str	r2, [fp, #-72]	; 0xffffffb8
    8c10:	e5931000 	ldr	r1, [r3]
    8c14:	e51b301c 	ldr	r3, [fp, #-28]	; 0xffffffe4
    8c18:	e2832001 	add	r2, r3, #1
    8c1c:	e50b201c 	str	r2, [fp, #-28]	; 0xffffffe4
    8c20:	e6ef2071 	uxtb	r2, r1
    8c24:	e5c32000 	strb	r2, [r3]
    8c28:	ea000004 	b	8c40 <vsprintf+0x490>
    8c2c:	e51b301c 	ldr	r3, [fp, #-28]	; 0xffffffe4
    8c30:	e2832001 	add	r2, r3, #1
    8c34:	e50b201c 	str	r2, [fp, #-28]	; 0xffffffe4
    8c38:	e3a02020 	mov	r2, #32
    8c3c:	e5c32000 	strb	r2, [r3]
    8c40:	e51b3028 	ldr	r3, [fp, #-40]	; 0xffffffd8
    8c44:	e2433001 	sub	r3, r3, #1
    8c48:	e50b3028 	str	r3, [fp, #-40]	; 0xffffffd8
    8c4c:	e51b3028 	ldr	r3, [fp, #-40]	; 0xffffffd8
    8c50:	e3530000 	cmp	r3, #0
    8c54:	cafffff4 	bgt	8c2c <vsprintf+0x47c>
    8c58:	ea0000c4 	b	8f70 <vsprintf+0x7c0>
    8c5c:	e51b3048 	ldr	r3, [fp, #-72]	; 0xffffffb8
    8c60:	e2832004 	add	r2, r3, #4
    8c64:	e50b2048 	str	r2, [fp, #-72]	; 0xffffffb8
    8c68:	e5933000 	ldr	r3, [r3]
    8c6c:	e50b3020 	str	r3, [fp, #-32]	; 0xffffffe0
    8c70:	e51b302c 	ldr	r3, [fp, #-44]	; 0xffffffd4
    8c74:	e1a01003 	mov	r1, r3
    8c78:	e51b0020 	ldr	r0, [fp, #-32]	; 0xffffffe0
    8c7c:	fa0033fb 	blx	15c70 <strnlen>
    8c80:	e1a03000 	mov	r3, r0
    8c84:	e50b3034 	str	r3, [fp, #-52]	; 0xffffffcc
    8c88:	e51b3024 	ldr	r3, [fp, #-36]	; 0xffffffdc
    8c8c:	e2033010 	and	r3, r3, #16
    8c90:	e3530000 	cmp	r3, #0
    8c94:	1a00000b 	bne	8cc8 <vsprintf+0x518>
    8c98:	ea000004 	b	8cb0 <vsprintf+0x500>
    8c9c:	e51b301c 	ldr	r3, [fp, #-28]	; 0xffffffe4
    8ca0:	e2832001 	add	r2, r3, #1
    8ca4:	e50b201c 	str	r2, [fp, #-28]	; 0xffffffe4
    8ca8:	e3a02020 	mov	r2, #32
    8cac:	e5c32000 	strb	r2, [r3]
    8cb0:	e51b3028 	ldr	r3, [fp, #-40]	; 0xffffffd8
    8cb4:	e2432001 	sub	r2, r3, #1
    8cb8:	e50b2028 	str	r2, [fp, #-40]	; 0xffffffd8
    8cbc:	e51b2034 	ldr	r2, [fp, #-52]	; 0xffffffcc
    8cc0:	e1520003 	cmp	r2, r3
    8cc4:	bafffff4 	blt	8c9c <vsprintf+0x4ec>
    8cc8:	e3a03000 	mov	r3, #0
    8ccc:	e50b3014 	str	r3, [fp, #-20]	; 0xffffffec
    8cd0:	ea00000a 	b	8d00 <vsprintf+0x550>
    8cd4:	e51b2020 	ldr	r2, [fp, #-32]	; 0xffffffe0
    8cd8:	e2823001 	add	r3, r2, #1
    8cdc:	e50b3020 	str	r3, [fp, #-32]	; 0xffffffe0
    8ce0:	e51b301c 	ldr	r3, [fp, #-28]	; 0xffffffe4
    8ce4:	e2831001 	add	r1, r3, #1
    8ce8:	e50b101c 	str	r1, [fp, #-28]	; 0xffffffe4
    8cec:	e5d22000 	ldrb	r2, [r2]
    8cf0:	e5c32000 	strb	r2, [r3]
    8cf4:	e51b3014 	ldr	r3, [fp, #-20]	; 0xffffffec
    8cf8:	e2833001 	add	r3, r3, #1
    8cfc:	e50b3014 	str	r3, [fp, #-20]	; 0xffffffec
    8d00:	e51b2014 	ldr	r2, [fp, #-20]	; 0xffffffec
    8d04:	e51b3034 	ldr	r3, [fp, #-52]	; 0xffffffcc
    8d08:	e1520003 	cmp	r2, r3
    8d0c:	bafffff0 	blt	8cd4 <vsprintf+0x524>
    8d10:	ea000004 	b	8d28 <vsprintf+0x578>
    8d14:	e51b301c 	ldr	r3, [fp, #-28]	; 0xffffffe4
    8d18:	e2832001 	add	r2, r3, #1
    8d1c:	e50b201c 	str	r2, [fp, #-28]	; 0xffffffe4
    8d20:	e3a02020 	mov	r2, #32
    8d24:	e5c32000 	strb	r2, [r3]
    8d28:	e51b3028 	ldr	r3, [fp, #-40]	; 0xffffffd8
    8d2c:	e2432001 	sub	r2, r3, #1
    8d30:	e50b2028 	str	r2, [fp, #-40]	; 0xffffffd8
    8d34:	e51b2034 	ldr	r2, [fp, #-52]	; 0xffffffcc
    8d38:	e1520003 	cmp	r2, r3
    8d3c:	bafffff4 	blt	8d14 <vsprintf+0x564>
    8d40:	ea00008a 	b	8f70 <vsprintf+0x7c0>
    8d44:	e51b3028 	ldr	r3, [fp, #-40]	; 0xffffffd8
    8d48:	e3730001 	cmn	r3, #1
    8d4c:	1a000004 	bne	8d64 <vsprintf+0x5b4>
    8d50:	e3a03008 	mov	r3, #8
    8d54:	e50b3028 	str	r3, [fp, #-40]	; 0xffffffd8
    8d58:	e51b3024 	ldr	r3, [fp, #-36]	; 0xffffffdc
    8d5c:	e3833001 	orr	r3, r3, #1
    8d60:	e50b3024 	str	r3, [fp, #-36]	; 0xffffffdc
    8d64:	e51b3048 	ldr	r3, [fp, #-72]	; 0xffffffb8
    8d68:	e2832004 	add	r2, r3, #4
    8d6c:	e50b2048 	str	r2, [fp, #-72]	; 0xffffffb8
    8d70:	e5933000 	ldr	r3, [r3]
    8d74:	e1a01003 	mov	r1, r3
    8d78:	e51b3024 	ldr	r3, [fp, #-36]	; 0xffffffdc
    8d7c:	e58d3004 	str	r3, [sp, #4]
    8d80:	e51b302c 	ldr	r3, [fp, #-44]	; 0xffffffd4
    8d84:	e58d3000 	str	r3, [sp]
    8d88:	e51b3028 	ldr	r3, [fp, #-40]	; 0xffffffd8
    8d8c:	e3a02010 	mov	r2, #16
    8d90:	e51b001c 	ldr	r0, [fp, #-28]	; 0xffffffe4
    8d94:	ebfffd8f 	bl	83d8 <number>
    8d98:	e50b001c 	str	r0, [fp, #-28]	; 0xffffffe4
    8d9c:	ea000073 	b	8f70 <vsprintf+0x7c0>
    8da0:	e51b3030 	ldr	r3, [fp, #-48]	; 0xffffffd0
    8da4:	e353006c 	cmp	r3, #108	; 0x6c
    8da8:	1a00000a 	bne	8dd8 <vsprintf+0x628>
    8dac:	e51b3048 	ldr	r3, [fp, #-72]	; 0xffffffb8
    8db0:	e2832004 	add	r2, r3, #4
    8db4:	e50b2048 	str	r2, [fp, #-72]	; 0xffffffb8
    8db8:	e5933000 	ldr	r3, [r3]
    8dbc:	e50b3038 	str	r3, [fp, #-56]	; 0xffffffc8
    8dc0:	e51b201c 	ldr	r2, [fp, #-28]	; 0xffffffe4
    8dc4:	e51b3040 	ldr	r3, [fp, #-64]	; 0xffffffc0
    8dc8:	e0422003 	sub	r2, r2, r3
    8dcc:	e51b3038 	ldr	r3, [fp, #-56]	; 0xffffffc8
    8dd0:	e5832000 	str	r2, [r3]
    8dd4:	ea000065 	b	8f70 <vsprintf+0x7c0>
    8dd8:	e51b3048 	ldr	r3, [fp, #-72]	; 0xffffffb8
    8ddc:	e2832004 	add	r2, r3, #4
    8de0:	e50b2048 	str	r2, [fp, #-72]	; 0xffffffb8
    8de4:	e5933000 	ldr	r3, [r3]
    8de8:	e50b303c 	str	r3, [fp, #-60]	; 0xffffffc4
    8dec:	e51b201c 	ldr	r2, [fp, #-28]	; 0xffffffe4
    8df0:	e51b3040 	ldr	r3, [fp, #-64]	; 0xffffffc0
    8df4:	e0422003 	sub	r2, r2, r3
    8df8:	e51b303c 	ldr	r3, [fp, #-60]	; 0xffffffc4
    8dfc:	e5832000 	str	r2, [r3]
    8e00:	ea00005a 	b	8f70 <vsprintf+0x7c0>
    8e04:	e51b301c 	ldr	r3, [fp, #-28]	; 0xffffffe4
    8e08:	e2832001 	add	r2, r3, #1
    8e0c:	e50b201c 	str	r2, [fp, #-28]	; 0xffffffe4
    8e10:	e3a02025 	mov	r2, #37	; 0x25
    8e14:	e5c32000 	strb	r2, [r3]
    8e18:	ea000054 	b	8f70 <vsprintf+0x7c0>
    8e1c:	e3a03008 	mov	r3, #8
    8e20:	e50b3018 	str	r3, [fp, #-24]	; 0xffffffe8
    8e24:	ea00001e 	b	8ea4 <vsprintf+0x6f4>
    8e28:	e51b3024 	ldr	r3, [fp, #-36]	; 0xffffffdc
    8e2c:	e3833020 	orr	r3, r3, #32
    8e30:	e50b3024 	str	r3, [fp, #-36]	; 0xffffffdc
    8e34:	e3a03010 	mov	r3, #16
    8e38:	e50b3018 	str	r3, [fp, #-24]	; 0xffffffe8
    8e3c:	ea000018 	b	8ea4 <vsprintf+0x6f4>
    8e40:	e51b3024 	ldr	r3, [fp, #-36]	; 0xffffffdc
    8e44:	e3833002 	orr	r3, r3, #2
    8e48:	e50b3024 	str	r3, [fp, #-36]	; 0xffffffdc
    8e4c:	ea000013 	b	8ea0 <vsprintf+0x6f0>
    8e50:	e51b301c 	ldr	r3, [fp, #-28]	; 0xffffffe4
    8e54:	e2832001 	add	r2, r3, #1
    8e58:	e50b201c 	str	r2, [fp, #-28]	; 0xffffffe4
    8e5c:	e3a02025 	mov	r2, #37	; 0x25
    8e60:	e5c32000 	strb	r2, [r3]
    8e64:	e51b3044 	ldr	r3, [fp, #-68]	; 0xffffffbc
    8e68:	e5d33000 	ldrb	r3, [r3]
    8e6c:	e3530000 	cmp	r3, #0
    8e70:	0a000006 	beq	8e90 <vsprintf+0x6e0>
    8e74:	e51b2044 	ldr	r2, [fp, #-68]	; 0xffffffbc
    8e78:	e51b301c 	ldr	r3, [fp, #-28]	; 0xffffffe4
    8e7c:	e2831001 	add	r1, r3, #1
    8e80:	e50b101c 	str	r1, [fp, #-28]	; 0xffffffe4
    8e84:	e5d22000 	ldrb	r2, [r2]
    8e88:	e5c32000 	strb	r2, [r3]
    8e8c:	ea000037 	b	8f70 <vsprintf+0x7c0>
    8e90:	e51b3044 	ldr	r3, [fp, #-68]	; 0xffffffbc
    8e94:	e2433001 	sub	r3, r3, #1
    8e98:	e50b3044 	str	r3, [fp, #-68]	; 0xffffffbc
    8e9c:	ea000033 	b	8f70 <vsprintf+0x7c0>
    8ea0:	e320f000 	nop	{0}
    8ea4:	e51b3030 	ldr	r3, [fp, #-48]	; 0xffffffd0
    8ea8:	e353006c 	cmp	r3, #108	; 0x6c
    8eac:	1a000005 	bne	8ec8 <vsprintf+0x718>
    8eb0:	e51b3048 	ldr	r3, [fp, #-72]	; 0xffffffb8
    8eb4:	e2832004 	add	r2, r3, #4
    8eb8:	e50b2048 	str	r2, [fp, #-72]	; 0xffffffb8
    8ebc:	e5933000 	ldr	r3, [r3]
    8ec0:	e50b3010 	str	r3, [fp, #-16]
    8ec4:	ea00001f 	b	8f48 <vsprintf+0x798>
    8ec8:	e51b3030 	ldr	r3, [fp, #-48]	; 0xffffffd0
    8ecc:	e3530068 	cmp	r3, #104	; 0x68
    8ed0:	1a00000d 	bne	8f0c <vsprintf+0x75c>
    8ed4:	e51b3048 	ldr	r3, [fp, #-72]	; 0xffffffb8
    8ed8:	e2832004 	add	r2, r3, #4
    8edc:	e50b2048 	str	r2, [fp, #-72]	; 0xffffffb8
    8ee0:	e5933000 	ldr	r3, [r3]
    8ee4:	e6ff3073 	uxth	r3, r3
    8ee8:	e50b3010 	str	r3, [fp, #-16]
    8eec:	e51b3024 	ldr	r3, [fp, #-36]	; 0xffffffdc
    8ef0:	e2033002 	and	r3, r3, #2
    8ef4:	e3530000 	cmp	r3, #0
    8ef8:	0a000012 	beq	8f48 <vsprintf+0x798>
    8efc:	e51b3010 	ldr	r3, [fp, #-16]
    8f00:	e6bf3073 	sxth	r3, r3
    8f04:	e50b3010 	str	r3, [fp, #-16]
    8f08:	ea00000e 	b	8f48 <vsprintf+0x798>
    8f0c:	e51b3024 	ldr	r3, [fp, #-36]	; 0xffffffdc
    8f10:	e2033002 	and	r3, r3, #2
    8f14:	e3530000 	cmp	r3, #0
    8f18:	0a000005 	beq	8f34 <vsprintf+0x784>
    8f1c:	e51b3048 	ldr	r3, [fp, #-72]	; 0xffffffb8
    8f20:	e2832004 	add	r2, r3, #4
    8f24:	e50b2048 	str	r2, [fp, #-72]	; 0xffffffb8
    8f28:	e5933000 	ldr	r3, [r3]
    8f2c:	e50b3010 	str	r3, [fp, #-16]
    8f30:	ea000004 	b	8f48 <vsprintf+0x798>
    8f34:	e51b3048 	ldr	r3, [fp, #-72]	; 0xffffffb8
    8f38:	e2832004 	add	r2, r3, #4
    8f3c:	e50b2048 	str	r2, [fp, #-72]	; 0xffffffb8
    8f40:	e5933000 	ldr	r3, [r3]
    8f44:	e50b3010 	str	r3, [fp, #-16]
    8f48:	e51b1010 	ldr	r1, [fp, #-16]
    8f4c:	e51b3024 	ldr	r3, [fp, #-36]	; 0xffffffdc
    8f50:	e58d3004 	str	r3, [sp, #4]
    8f54:	e51b302c 	ldr	r3, [fp, #-44]	; 0xffffffd4
    8f58:	e58d3000 	str	r3, [sp]
    8f5c:	e51b3028 	ldr	r3, [fp, #-40]	; 0xffffffd8
    8f60:	e51b2018 	ldr	r2, [fp, #-24]	; 0xffffffe8
    8f64:	e51b001c 	ldr	r0, [fp, #-28]	; 0xffffffe4
    8f68:	ebfffd1a 	bl	83d8 <number>
    8f6c:	e50b001c 	str	r0, [fp, #-28]	; 0xffffffe4
    8f70:	e51b3044 	ldr	r3, [fp, #-68]	; 0xffffffbc
    8f74:	e2833001 	add	r3, r3, #1
    8f78:	e50b3044 	str	r3, [fp, #-68]	; 0xffffffbc
    8f7c:	e51b3044 	ldr	r3, [fp, #-68]	; 0xffffffbc
    8f80:	e5d33000 	ldrb	r3, [r3]
    8f84:	e3530000 	cmp	r3, #0
    8f88:	1afffe13 	bne	87dc <vsprintf+0x2c>
    8f8c:	e51b301c 	ldr	r3, [fp, #-28]	; 0xffffffe4
    8f90:	e3a02000 	mov	r2, #0
    8f94:	e5c32000 	strb	r2, [r3]
    8f98:	e51b201c 	ldr	r2, [fp, #-28]	; 0xffffffe4
    8f9c:	e51b3040 	ldr	r3, [fp, #-64]	; 0xffffffc0
    8fa0:	e0423003 	sub	r3, r2, r3
    8fa4:	e1a00003 	mov	r0, r3
    8fa8:	e24bd008 	sub	sp, fp, #8
    8fac:	e8bd8810 	pop	{r4, fp, pc}
    8fb0:	0000dbc0 	andeq	sp, r0, r0, asr #23
    8fb4:	00000040 	andeq	r0, r0, r0, asr #32

00008fb8 <sprintf>:
    8fb8:	e92d000e 	push	{r1, r2, r3}
    8fbc:	e92d4800 	push	{fp, lr}
    8fc0:	e28db004 	add	fp, sp, #4
    8fc4:	e24dd014 	sub	sp, sp, #20
    8fc8:	e50b0014 	str	r0, [fp, #-20]	; 0xffffffec
    8fcc:	e28b3008 	add	r3, fp, #8
    8fd0:	e50b3010 	str	r3, [fp, #-16]
    8fd4:	e51b2010 	ldr	r2, [fp, #-16]
    8fd8:	e59b1004 	ldr	r1, [fp, #4]
    8fdc:	e51b0014 	ldr	r0, [fp, #-20]	; 0xffffffec
    8fe0:	ebfffdf2 	bl	87b0 <vsprintf>
    8fe4:	e50b000c 	str	r0, [fp, #-12]
    8fe8:	e51b300c 	ldr	r3, [fp, #-12]
    8fec:	e1a00003 	mov	r0, r3
    8ff0:	e24bd004 	sub	sp, fp, #4
    8ff4:	e8bd4800 	pop	{fp, lr}
    8ff8:	e28dd00c 	add	sp, sp, #12
    8ffc:	e12fff1e 	bx	lr

00009000 <printf_video>:
    9000:	e92d000f 	push	{r0, r1, r2, r3}
    9004:	e92d4800 	push	{fp, lr}
    9008:	e28db004 	add	fp, sp, #4
    900c:	e24dde21 	sub	sp, sp, #528	; 0x210
    9010:	e3a03000 	mov	r3, #0
    9014:	e50b300c 	str	r3, [fp, #-12]
    9018:	e28b3008 	add	r3, fp, #8
    901c:	e50b3210 	str	r3, [fp, #-528]	; 0xfffffdf0
    9020:	e24b3f83 	sub	r3, fp, #524	; 0x20c
    9024:	e51b2210 	ldr	r2, [fp, #-528]	; 0xfffffdf0
    9028:	e59b1004 	ldr	r1, [fp, #4]
    902c:	e1a00003 	mov	r0, r3
    9030:	ebfffdde 	bl	87b0 <vsprintf>
    9034:	e50b000c 	str	r0, [fp, #-12]
    9038:	e3a03000 	mov	r3, #0
    903c:	e50b3008 	str	r3, [fp, #-8]
    9040:	ea00000a 	b	9070 <printf_video+0x70>
    9044:	e24b2f83 	sub	r2, fp, #524	; 0x20c
    9048:	e51b3008 	ldr	r3, [fp, #-8]
    904c:	e0823003 	add	r3, r2, r3
    9050:	e5d33000 	ldrb	r3, [r3]
    9054:	e3e024ff 	mvn	r2, #-16777216	; 0xff000000
    9058:	e3a01002 	mov	r1, #2
    905c:	e1a00003 	mov	r0, r3
    9060:	eb001b7a 	bl	fe50 <hal_io_video_putc>
    9064:	e51b3008 	ldr	r3, [fp, #-8]
    9068:	e2833001 	add	r3, r3, #1
    906c:	e50b3008 	str	r3, [fp, #-8]
    9070:	e51b2008 	ldr	r2, [fp, #-8]
    9074:	e51b300c 	ldr	r3, [fp, #-12]
    9078:	e1520003 	cmp	r2, r3
    907c:	bafffff0 	blt	9044 <printf_video+0x44>
    9080:	e51b300c 	ldr	r3, [fp, #-12]
    9084:	e1a00003 	mov	r0, r3
    9088:	e24bd004 	sub	sp, fp, #4
    908c:	e8bd4800 	pop	{fp, lr}
    9090:	e28dd010 	add	sp, sp, #16
    9094:	e12fff1e 	bx	lr

00009098 <printf_serial>:
    9098:	e92d000f 	push	{r0, r1, r2, r3}
    909c:	e92d4800 	push	{fp, lr}
    90a0:	e28db004 	add	fp, sp, #4
    90a4:	e24dde21 	sub	sp, sp, #528	; 0x210
    90a8:	e3a03000 	mov	r3, #0
    90ac:	e50b300c 	str	r3, [fp, #-12]
    90b0:	e28b3008 	add	r3, fp, #8
    90b4:	e50b3210 	str	r3, [fp, #-528]	; 0xfffffdf0
    90b8:	e24b3f83 	sub	r3, fp, #524	; 0x20c
    90bc:	e51b2210 	ldr	r2, [fp, #-528]	; 0xfffffdf0
    90c0:	e59b1004 	ldr	r1, [fp, #4]
    90c4:	e1a00003 	mov	r0, r3
    90c8:	ebfffdb8 	bl	87b0 <vsprintf>
    90cc:	e50b000c 	str	r0, [fp, #-12]
    90d0:	e3a03000 	mov	r3, #0
    90d4:	e50b3008 	str	r3, [fp, #-8]
    90d8:	ea000009 	b	9104 <printf_serial+0x6c>
    90dc:	e24b2f83 	sub	r2, fp, #524	; 0x20c
    90e0:	e51b3008 	ldr	r3, [fp, #-8]
    90e4:	e0823003 	add	r3, r2, r3
    90e8:	e5d33000 	ldrb	r3, [r3]
    90ec:	e1a01003 	mov	r1, r3
    90f0:	e3a00000 	mov	r0, #0
    90f4:	eb001cf9 	bl	104e0 <hal_io_serial_putc>
    90f8:	e51b3008 	ldr	r3, [fp, #-8]
    90fc:	e2833001 	add	r3, r3, #1
    9100:	e50b3008 	str	r3, [fp, #-8]
    9104:	e51b2008 	ldr	r2, [fp, #-8]
    9108:	e51b300c 	ldr	r3, [fp, #-12]
    910c:	e1520003 	cmp	r2, r3
    9110:	bafffff1 	blt	90dc <printf_serial+0x44>
    9114:	e51b300c 	ldr	r3, [fp, #-12]
    9118:	e1a00003 	mov	r0, r3
    911c:	e24bd004 	sub	sp, fp, #4
    9120:	e8bd4800 	pop	{fp, lr}
    9124:	e28dd010 	add	sp, sp, #16
    9128:	e12fff1e 	bx	lr

0000912c <printf_null>:
    912c:	e92d000f 	push	{r0, r1, r2, r3}
    9130:	e52db004 	push	{fp}		; (str fp, [sp, #-4]!)
    9134:	e28db000 	add	fp, sp, #0
    9138:	e3a03001 	mov	r3, #1
    913c:	e1a00003 	mov	r0, r3
    9140:	e28bd000 	add	sp, fp, #0
    9144:	e49db004 	pop	{fp}		; (ldr fp, [sp], #4)
    9148:	e28dd010 	add	sp, sp, #16
    914c:	e12fff1e 	bx	lr

00009150 <sdDebugResponse>:
    9150:	e52db004 	push	{fp}		; (str fp, [sp, #-4]!)
    9154:	e28db000 	add	fp, sp, #0
    9158:	e24dd00c 	sub	sp, sp, #12
    915c:	e50b0008 	str	r0, [fp, #-8]
    9160:	e51b3008 	ldr	r3, [fp, #-8]
    9164:	e1a00003 	mov	r0, r3
    9168:	e28bd000 	add	sp, fp, #0
    916c:	e49db004 	pop	{fp}		; (ldr fp, [sp], #4)
    9170:	e12fff1e 	bx	lr

00009174 <sdWaitForInterrupt>:
    9174:	e92d4830 	push	{r4, r5, fp, lr}
    9178:	e28db00c 	add	fp, sp, #12
    917c:	e24dd028 	sub	sp, sp, #40	; 0x28
    9180:	e50b0028 	str	r0, [fp, #-40]	; 0xffffffd8
    9184:	e59f425c 	ldr	r4, [pc, #604]	; 93e8 <sdWaitForInterrupt+0x274>
    9188:	e08f4004 	add	r4, pc, r4
    918c:	e3a02000 	mov	r2, #0
    9190:	e3a03000 	mov	r3, #0
    9194:	e14b21f4 	strd	r2, [fp, #-20]	; 0xffffffec
    9198:	e3a02000 	mov	r2, #0
    919c:	e3a03000 	mov	r3, #0
    91a0:	e14b21fc 	strd	r2, [fp, #-28]	; 0xffffffe4
    91a4:	e51b3028 	ldr	r3, [fp, #-40]	; 0xffffffd8
    91a8:	e383375f 	orr	r3, r3, #24903680	; 0x17c0000
    91ac:	e383390a 	orr	r3, r3, #163840	; 0x28000
    91b0:	e50b3020 	str	r3, [fp, #-32]	; 0xffffffe0
    91b4:	ea00000b 	b	91e8 <sdWaitForInterrupt+0x74>
    91b8:	e14b21dc 	ldrd	r2, [fp, #-28]	; 0xffffffe4
    91bc:	e1923003 	orrs	r3, r2, r3
    91c0:	1a000002 	bne	91d0 <sdWaitForInterrupt+0x5c>
    91c4:	eb00192d 	bl	f680 <timer_getTickCount>
    91c8:	e14b01fc 	strd	r0, [fp, #-28]	; 0xffffffe4
    91cc:	ea000005 	b	91e8 <sdWaitForInterrupt+0x74>
    91d0:	eb00192a 	bl	f680 <timer_getTickCount>
    91d4:	e1a02000 	mov	r2, r0
    91d8:	e1a03001 	mov	r3, r1
    91dc:	e14b01dc 	ldrd	r0, [fp, #-28]	; 0xffffffe4
    91e0:	eb001968 	bl	f788 <tick_difference>
    91e4:	e14b01f4 	strd	r0, [fp, #-20]	; 0xffffffec
    91e8:	e59f31fc 	ldr	r3, [pc, #508]	; 93ec <sdWaitForInterrupt+0x278>
    91ec:	e7943003 	ldr	r3, [r4, r3]
    91f0:	e5933000 	ldr	r3, [r3]
    91f4:	e2833603 	add	r3, r3, #3145728	; 0x300000
    91f8:	e2833030 	add	r3, r3, #48	; 0x30
    91fc:	e5932000 	ldr	r2, [r3]
    9200:	e51b3020 	ldr	r3, [fp, #-32]	; 0xffffffe0
    9204:	e0033002 	and	r3, r3, r2
    9208:	e3530000 	cmp	r3, #0
    920c:	1a000005 	bne	9228 <sdWaitForInterrupt+0xb4>
    9210:	e14b21d4 	ldrd	r2, [fp, #-20]	; 0xffffffec
    9214:	e28f1f71 	add	r1, pc, #452	; 0x1c4
    9218:	e1c100d0 	ldrd	r0, [r1]
    921c:	e1530001 	cmp	r3, r1
    9220:	01520000 	cmpeq	r2, r0
    9224:	9affffe3 	bls	91b8 <sdWaitForInterrupt+0x44>
    9228:	e59f31bc 	ldr	r3, [pc, #444]	; 93ec <sdWaitForInterrupt+0x278>
    922c:	e7943003 	ldr	r3, [r4, r3]
    9230:	e5933000 	ldr	r3, [r3]
    9234:	e2833603 	add	r3, r3, #3145728	; 0x300000
    9238:	e2833030 	add	r3, r3, #48	; 0x30
    923c:	e5933000 	ldr	r3, [r3]
    9240:	e50b3024 	str	r3, [fp, #-36]	; 0xffffffdc
    9244:	e14b21d4 	ldrd	r2, [fp, #-20]	; 0xffffffec
    9248:	e28f1e19 	add	r1, pc, #400	; 0x190
    924c:	e1c100d0 	ldrd	r0, [r1]
    9250:	e1530001 	cmp	r3, r1
    9254:	01520000 	cmpeq	r2, r0
    9258:	8a000007 	bhi	927c <sdWaitForInterrupt+0x108>
    925c:	e51b3024 	ldr	r3, [fp, #-36]	; 0xffffffdc
    9260:	e2033801 	and	r3, r3, #65536	; 0x10000
    9264:	e3530000 	cmp	r3, #0
    9268:	1a000003 	bne	927c <sdWaitForInterrupt+0x108>
    926c:	e51b3024 	ldr	r3, [fp, #-36]	; 0xffffffdc
    9270:	e2033601 	and	r3, r3, #1048576	; 0x100000
    9274:	e3530000 	cmp	r3, #0
    9278:	0a000023 	beq	930c <sdWaitForInterrupt+0x198>
    927c:	e59f316c 	ldr	r3, [pc, #364]	; 93f0 <sdWaitForInterrupt+0x27c>
    9280:	e7943003 	ldr	r3, [r4, r3]
    9284:	e5933000 	ldr	r3, [r3]
    9288:	e3530000 	cmp	r3, #0
    928c:	0a000014 	beq	92e4 <sdWaitForInterrupt+0x170>
    9290:	e59f3158 	ldr	r3, [pc, #344]	; 93f0 <sdWaitForInterrupt+0x27c>
    9294:	e7943003 	ldr	r3, [r4, r3]
    9298:	e5935000 	ldr	r5, [r3]
    929c:	e59f3148 	ldr	r3, [pc, #328]	; 93ec <sdWaitForInterrupt+0x278>
    92a0:	e7943003 	ldr	r3, [r4, r3]
    92a4:	e5933000 	ldr	r3, [r3]
    92a8:	e2833603 	add	r3, r3, #3145728	; 0x300000
    92ac:	e2833024 	add	r3, r3, #36	; 0x24
    92b0:	e5932000 	ldr	r2, [r3]
    92b4:	e59f3130 	ldr	r3, [pc, #304]	; 93ec <sdWaitForInterrupt+0x278>
    92b8:	e7943003 	ldr	r3, [r4, r3]
    92bc:	e5933000 	ldr	r3, [r3]
    92c0:	e2833603 	add	r3, r3, #3145728	; 0x300000
    92c4:	e2833010 	add	r3, r3, #16
    92c8:	e5933000 	ldr	r3, [r3]
    92cc:	e58d3000 	str	r3, [sp]
    92d0:	e51b3024 	ldr	r3, [fp, #-36]	; 0xffffffdc
    92d4:	e51b1028 	ldr	r1, [fp, #-40]	; 0xffffffd8
    92d8:	e59f0114 	ldr	r0, [pc, #276]	; 93f4 <sdWaitForInterrupt+0x280>
    92dc:	e08f0000 	add	r0, pc, r0
    92e0:	e12fff35 	blx	r5
    92e4:	e59f3100 	ldr	r3, [pc, #256]	; 93ec <sdWaitForInterrupt+0x278>
    92e8:	e7943003 	ldr	r3, [r4, r3]
    92ec:	e5933000 	ldr	r3, [r3]
    92f0:	e2833603 	add	r3, r3, #3145728	; 0x300000
    92f4:	e2833030 	add	r3, r3, #48	; 0x30
    92f8:	e1a02003 	mov	r2, r3
    92fc:	e51b3024 	ldr	r3, [fp, #-36]	; 0xffffffdc
    9300:	e5823000 	str	r3, [r2]
    9304:	e3a03002 	mov	r3, #2
    9308:	ea000030 	b	93d0 <sdWaitForInterrupt+0x25c>
    930c:	e51b2024 	ldr	r2, [fp, #-36]	; 0xffffffdc
    9310:	e3a03902 	mov	r3, #32768	; 0x8000
    9314:	e340317e 	movt	r3, #382	; 0x17e
    9318:	e0033002 	and	r3, r3, r2
    931c:	e3530000 	cmp	r3, #0
    9320:	0a000021 	beq	93ac <sdWaitForInterrupt+0x238>
    9324:	e59f30c4 	ldr	r3, [pc, #196]	; 93f0 <sdWaitForInterrupt+0x27c>
    9328:	e7943003 	ldr	r3, [r4, r3]
    932c:	e5933000 	ldr	r3, [r3]
    9330:	e3530000 	cmp	r3, #0
    9334:	0a000012 	beq	9384 <sdWaitForInterrupt+0x210>
    9338:	e59f30b0 	ldr	r3, [pc, #176]	; 93f0 <sdWaitForInterrupt+0x27c>
    933c:	e7943003 	ldr	r3, [r4, r3]
    9340:	e5935000 	ldr	r5, [r3]
    9344:	e59f30a0 	ldr	r3, [pc, #160]	; 93ec <sdWaitForInterrupt+0x278>
    9348:	e7943003 	ldr	r3, [r4, r3]
    934c:	e5933000 	ldr	r3, [r3]
    9350:	e2833603 	add	r3, r3, #3145728	; 0x300000
    9354:	e2833024 	add	r3, r3, #36	; 0x24
    9358:	e5931000 	ldr	r1, [r3]
    935c:	e59f3088 	ldr	r3, [pc, #136]	; 93ec <sdWaitForInterrupt+0x278>
    9360:	e7943003 	ldr	r3, [r4, r3]
    9364:	e5933000 	ldr	r3, [r3]
    9368:	e2833603 	add	r3, r3, #3145728	; 0x300000
    936c:	e2833010 	add	r3, r3, #16
    9370:	e5933000 	ldr	r3, [r3]
    9374:	e51b2024 	ldr	r2, [fp, #-36]	; 0xffffffdc
    9378:	e59f0078 	ldr	r0, [pc, #120]	; 93f8 <sdWaitForInterrupt+0x284>
    937c:	e08f0000 	add	r0, pc, r0
    9380:	e12fff35 	blx	r5
    9384:	e59f3060 	ldr	r3, [pc, #96]	; 93ec <sdWaitForInterrupt+0x278>
    9388:	e7943003 	ldr	r3, [r4, r3]
    938c:	e5933000 	ldr	r3, [r3]
    9390:	e2833603 	add	r3, r3, #3145728	; 0x300000
    9394:	e2833030 	add	r3, r3, #48	; 0x30
    9398:	e1a02003 	mov	r2, r3
    939c:	e51b3024 	ldr	r3, [fp, #-36]	; 0xffffffdc
    93a0:	e5823000 	str	r3, [r2]
    93a4:	e3a03001 	mov	r3, #1
    93a8:	ea000008 	b	93d0 <sdWaitForInterrupt+0x25c>
    93ac:	e59f3038 	ldr	r3, [pc, #56]	; 93ec <sdWaitForInterrupt+0x278>
    93b0:	e7943003 	ldr	r3, [r4, r3]
    93b4:	e5933000 	ldr	r3, [r3]
    93b8:	e2833603 	add	r3, r3, #3145728	; 0x300000
    93bc:	e2833030 	add	r3, r3, #48	; 0x30
    93c0:	e1a02003 	mov	r2, r3
    93c4:	e51b3028 	ldr	r3, [fp, #-40]	; 0xffffffd8
    93c8:	e5823000 	str	r3, [r2]
    93cc:	e3a03000 	mov	r3, #0
    93d0:	e1a00003 	mov	r0, r3
    93d4:	e24bd00c 	sub	sp, fp, #12
    93d8:	e8bd8830 	pop	{r4, r5, fp, pc}
    93dc:	e320f000 	nop	{0}
    93e0:	000f423f 	andeq	r4, pc, pc, lsr r2	; <UNPREDICTABLE>
    93e4:	00000000 	andeq	r0, r0, r0
    93e8:	0000d204 	andeq	sp, r0, r4, lsl #4
    93ec:	00000020 	andeq	r0, r0, r0, lsr #32
    93f0:	0000003c 	andeq	r0, r0, ip, lsr r0
    93f4:	020bdf08 	andeq	sp, fp, #8, 30
    93f8:	020bdea0 	andeq	sp, fp, #160, 28	; 0xa00

000093fc <sdWaitForCommand>:
    93fc:	e92d4830 	push	{r4, r5, fp, lr}
    9400:	e28db00c 	add	fp, sp, #12
    9404:	e24dd010 	sub	sp, sp, #16
    9408:	e59f4190 	ldr	r4, [pc, #400]	; 95a0 <sdWaitForCommand+0x1a4>
    940c:	e08f4004 	add	r4, pc, r4
    9410:	e3a02000 	mov	r2, #0
    9414:	e3a03000 	mov	r3, #0
    9418:	e14b21f4 	strd	r2, [fp, #-20]	; 0xffffffec
    941c:	e3a02000 	mov	r2, #0
    9420:	e3a03000 	mov	r3, #0
    9424:	e14b21fc 	strd	r2, [fp, #-28]	; 0xffffffe4
    9428:	ea00000b 	b	945c <sdWaitForCommand+0x60>
    942c:	e14b21dc 	ldrd	r2, [fp, #-28]	; 0xffffffe4
    9430:	e1923003 	orrs	r3, r2, r3
    9434:	1a000002 	bne	9444 <sdWaitForCommand+0x48>
    9438:	eb001890 	bl	f680 <timer_getTickCount>
    943c:	e14b01fc 	strd	r0, [fp, #-28]	; 0xffffffe4
    9440:	ea000005 	b	945c <sdWaitForCommand+0x60>
    9444:	eb00188d 	bl	f680 <timer_getTickCount>
    9448:	e1a02000 	mov	r2, r0
    944c:	e1a03001 	mov	r3, r1
    9450:	e14b01dc 	ldrd	r0, [fp, #-28]	; 0xffffffe4
    9454:	eb0018cb 	bl	f788 <tick_difference>
    9458:	e14b01f4 	strd	r0, [fp, #-20]	; 0xffffffec
    945c:	e59f3140 	ldr	r3, [pc, #320]	; 95a4 <sdWaitForCommand+0x1a8>
    9460:	e7943003 	ldr	r3, [r4, r3]
    9464:	e5933000 	ldr	r3, [r3]
    9468:	e2833603 	add	r3, r3, #3145728	; 0x300000
    946c:	e2833024 	add	r3, r3, #36	; 0x24
    9470:	e5933000 	ldr	r3, [r3]
    9474:	e7e03053 	ubfx	r3, r3, #0, #1
    9478:	e6ef3073 	uxtb	r3, r3
    947c:	e3530000 	cmp	r3, #0
    9480:	0a000010 	beq	94c8 <sdWaitForCommand+0xcc>
    9484:	e59f3118 	ldr	r3, [pc, #280]	; 95a4 <sdWaitForCommand+0x1a8>
    9488:	e7943003 	ldr	r3, [r4, r3]
    948c:	e5933000 	ldr	r3, [r3]
    9490:	e2833603 	add	r3, r3, #3145728	; 0x300000
    9494:	e2833030 	add	r3, r3, #48	; 0x30
    9498:	e5932000 	ldr	r2, [r3]
    949c:	e3a03902 	mov	r3, #32768	; 0x8000
    94a0:	e340317e 	movt	r3, #382	; 0x17e
    94a4:	e0033002 	and	r3, r3, r2
    94a8:	e3530000 	cmp	r3, #0
    94ac:	1a000005 	bne	94c8 <sdWaitForCommand+0xcc>
    94b0:	e14b21d4 	ldrd	r2, [fp, #-20]	; 0xffffffec
    94b4:	e28f10dc 	add	r1, pc, #220	; 0xdc
    94b8:	e1c100d0 	ldrd	r0, [r1]
    94bc:	e1530001 	cmp	r3, r1
    94c0:	01520000 	cmpeq	r2, r0
    94c4:	9affffd8 	bls	942c <sdWaitForCommand+0x30>
    94c8:	e14b21d4 	ldrd	r2, [fp, #-20]	; 0xffffffec
    94cc:	e28f10c4 	add	r1, pc, #196	; 0xc4
    94d0:	e1c100d0 	ldrd	r0, [r1]
    94d4:	e1530001 	cmp	r3, r1
    94d8:	01520000 	cmpeq	r2, r0
    94dc:	8a00000a 	bhi	950c <sdWaitForCommand+0x110>
    94e0:	e59f30bc 	ldr	r3, [pc, #188]	; 95a4 <sdWaitForCommand+0x1a8>
    94e4:	e7943003 	ldr	r3, [r4, r3]
    94e8:	e5933000 	ldr	r3, [r3]
    94ec:	e2833603 	add	r3, r3, #3145728	; 0x300000
    94f0:	e2833030 	add	r3, r3, #48	; 0x30
    94f4:	e5932000 	ldr	r2, [r3]
    94f8:	e3a03902 	mov	r3, #32768	; 0x8000
    94fc:	e340317e 	movt	r3, #382	; 0x17e
    9500:	e0033002 	and	r3, r3, r2
    9504:	e3530000 	cmp	r3, #0
    9508:	0a00001e 	beq	9588 <sdWaitForCommand+0x18c>
    950c:	e59f3094 	ldr	r3, [pc, #148]	; 95a8 <sdWaitForCommand+0x1ac>
    9510:	e7943003 	ldr	r3, [r4, r3]
    9514:	e5933000 	ldr	r3, [r3]
    9518:	e3530000 	cmp	r3, #0
    951c:	0a000017 	beq	9580 <sdWaitForCommand+0x184>
    9520:	e59f3080 	ldr	r3, [pc, #128]	; 95a8 <sdWaitForCommand+0x1ac>
    9524:	e7943003 	ldr	r3, [r4, r3]
    9528:	e5935000 	ldr	r5, [r3]
    952c:	e59f3070 	ldr	r3, [pc, #112]	; 95a4 <sdWaitForCommand+0x1a8>
    9530:	e7943003 	ldr	r3, [r4, r3]
    9534:	e5933000 	ldr	r3, [r3]
    9538:	e2833603 	add	r3, r3, #3145728	; 0x300000
    953c:	e2833024 	add	r3, r3, #36	; 0x24
    9540:	e5931000 	ldr	r1, [r3]
    9544:	e59f3058 	ldr	r3, [pc, #88]	; 95a4 <sdWaitForCommand+0x1a8>
    9548:	e7943003 	ldr	r3, [r4, r3]
    954c:	e5933000 	ldr	r3, [r3]
    9550:	e2833603 	add	r3, r3, #3145728	; 0x300000
    9554:	e2833030 	add	r3, r3, #48	; 0x30
    9558:	e5932000 	ldr	r2, [r3]
    955c:	e59f3040 	ldr	r3, [pc, #64]	; 95a4 <sdWaitForCommand+0x1a8>
    9560:	e7943003 	ldr	r3, [r4, r3]
    9564:	e5933000 	ldr	r3, [r3]
    9568:	e2833603 	add	r3, r3, #3145728	; 0x300000
    956c:	e2833010 	add	r3, r3, #16
    9570:	e5933000 	ldr	r3, [r3]
    9574:	e59f0030 	ldr	r0, [pc, #48]	; 95ac <sdWaitForCommand+0x1b0>
    9578:	e08f0000 	add	r0, pc, r0
    957c:	e12fff35 	blx	r5
    9580:	e3a03003 	mov	r3, #3
    9584:	ea000000 	b	958c <sdWaitForCommand+0x190>
    9588:	e3a03000 	mov	r3, #0
    958c:	e1a00003 	mov	r0, r3
    9590:	e24bd00c 	sub	sp, fp, #12
    9594:	e8bd8830 	pop	{r4, r5, fp, pc}
    9598:	000f423f 	andeq	r4, pc, pc, lsr r2	; <UNPREDICTABLE>
    959c:	00000000 	andeq	r0, r0, r0
    95a0:	0000cf80 	andeq	ip, r0, r0, lsl #31
    95a4:	00000020 	andeq	r0, r0, r0, lsr #32
    95a8:	0000003c 	andeq	r0, r0, ip, lsr r0
    95ac:	020bdcd8 	andeq	sp, fp, #216, 24	; 0xd800

000095b0 <sdWaitForData>:
    95b0:	e92d4830 	push	{r4, r5, fp, lr}
    95b4:	e28db00c 	add	fp, sp, #12
    95b8:	e24dd010 	sub	sp, sp, #16
    95bc:	e59f4194 	ldr	r4, [pc, #404]	; 9758 <sdWaitForData+0x1a8>
    95c0:	e08f4004 	add	r4, pc, r4
    95c4:	e3a02000 	mov	r2, #0
    95c8:	e3a03000 	mov	r3, #0
    95cc:	e14b21f4 	strd	r2, [fp, #-20]	; 0xffffffec
    95d0:	e3a02000 	mov	r2, #0
    95d4:	e3a03000 	mov	r3, #0
    95d8:	e14b21fc 	strd	r2, [fp, #-28]	; 0xffffffe4
    95dc:	ea00000b 	b	9610 <sdWaitForData+0x60>
    95e0:	e14b21dc 	ldrd	r2, [fp, #-28]	; 0xffffffe4
    95e4:	e1923003 	orrs	r3, r2, r3
    95e8:	1a000002 	bne	95f8 <sdWaitForData+0x48>
    95ec:	eb001823 	bl	f680 <timer_getTickCount>
    95f0:	e14b01fc 	strd	r0, [fp, #-28]	; 0xffffffe4
    95f4:	ea000005 	b	9610 <sdWaitForData+0x60>
    95f8:	eb001820 	bl	f680 <timer_getTickCount>
    95fc:	e1a02000 	mov	r2, r0
    9600:	e1a03001 	mov	r3, r1
    9604:	e14b01dc 	ldrd	r0, [fp, #-28]	; 0xffffffe4
    9608:	eb00185e 	bl	f788 <tick_difference>
    960c:	e14b01f4 	strd	r0, [fp, #-20]	; 0xffffffec
    9610:	e59f3144 	ldr	r3, [pc, #324]	; 975c <sdWaitForData+0x1ac>
    9614:	e7943003 	ldr	r3, [r4, r3]
    9618:	e5933000 	ldr	r3, [r3]
    961c:	e2833603 	add	r3, r3, #3145728	; 0x300000
    9620:	e2833024 	add	r3, r3, #36	; 0x24
    9624:	e5933000 	ldr	r3, [r3]
    9628:	e7e030d3 	ubfx	r3, r3, #1, #1
    962c:	e6ef3073 	uxtb	r3, r3
    9630:	e3530000 	cmp	r3, #0
    9634:	0a000010 	beq	967c <sdWaitForData+0xcc>
    9638:	e59f311c 	ldr	r3, [pc, #284]	; 975c <sdWaitForData+0x1ac>
    963c:	e7943003 	ldr	r3, [r4, r3]
    9640:	e5933000 	ldr	r3, [r3]
    9644:	e2833603 	add	r3, r3, #3145728	; 0x300000
    9648:	e2833030 	add	r3, r3, #48	; 0x30
    964c:	e5932000 	ldr	r2, [r3]
    9650:	e3a03902 	mov	r3, #32768	; 0x8000
    9654:	e340317e 	movt	r3, #382	; 0x17e
    9658:	e0033002 	and	r3, r3, r2
    965c:	e3530000 	cmp	r3, #0
    9660:	1a000005 	bne	967c <sdWaitForData+0xcc>
    9664:	e14b21d4 	ldrd	r2, [fp, #-20]	; 0xffffffec
    9668:	e28f10e0 	add	r1, pc, #224	; 0xe0
    966c:	e1c100d0 	ldrd	r0, [r1]
    9670:	e1530001 	cmp	r3, r1
    9674:	01520000 	cmpeq	r2, r0
    9678:	9affffd8 	bls	95e0 <sdWaitForData+0x30>
    967c:	e14b21d4 	ldrd	r2, [fp, #-20]	; 0xffffffec
    9680:	e28f10c8 	add	r1, pc, #200	; 0xc8
    9684:	e1c100d0 	ldrd	r0, [r1]
    9688:	e1530001 	cmp	r3, r1
    968c:	01520000 	cmpeq	r2, r0
    9690:	8a00000a 	bhi	96c0 <sdWaitForData+0x110>
    9694:	e59f30c0 	ldr	r3, [pc, #192]	; 975c <sdWaitForData+0x1ac>
    9698:	e7943003 	ldr	r3, [r4, r3]
    969c:	e5933000 	ldr	r3, [r3]
    96a0:	e2833603 	add	r3, r3, #3145728	; 0x300000
    96a4:	e2833030 	add	r3, r3, #48	; 0x30
    96a8:	e5932000 	ldr	r2, [r3]
    96ac:	e3a03902 	mov	r3, #32768	; 0x8000
    96b0:	e340317e 	movt	r3, #382	; 0x17e
    96b4:	e0033002 	and	r3, r3, r2
    96b8:	e3530000 	cmp	r3, #0
    96bc:	0a00001e 	beq	973c <sdWaitForData+0x18c>
    96c0:	e59f3098 	ldr	r3, [pc, #152]	; 9760 <sdWaitForData+0x1b0>
    96c4:	e7943003 	ldr	r3, [r4, r3]
    96c8:	e5933000 	ldr	r3, [r3]
    96cc:	e3530000 	cmp	r3, #0
    96d0:	0a000017 	beq	9734 <sdWaitForData+0x184>
    96d4:	e59f3084 	ldr	r3, [pc, #132]	; 9760 <sdWaitForData+0x1b0>
    96d8:	e7943003 	ldr	r3, [r4, r3]
    96dc:	e5935000 	ldr	r5, [r3]
    96e0:	e59f3074 	ldr	r3, [pc, #116]	; 975c <sdWaitForData+0x1ac>
    96e4:	e7943003 	ldr	r3, [r4, r3]
    96e8:	e5933000 	ldr	r3, [r3]
    96ec:	e2833603 	add	r3, r3, #3145728	; 0x300000
    96f0:	e2833024 	add	r3, r3, #36	; 0x24
    96f4:	e5931000 	ldr	r1, [r3]
    96f8:	e59f305c 	ldr	r3, [pc, #92]	; 975c <sdWaitForData+0x1ac>
    96fc:	e7943003 	ldr	r3, [r4, r3]
    9700:	e5933000 	ldr	r3, [r3]
    9704:	e2833603 	add	r3, r3, #3145728	; 0x300000
    9708:	e2833030 	add	r3, r3, #48	; 0x30
    970c:	e5932000 	ldr	r2, [r3]
    9710:	e59f3044 	ldr	r3, [pc, #68]	; 975c <sdWaitForData+0x1ac>
    9714:	e7943003 	ldr	r3, [r4, r3]
    9718:	e5933000 	ldr	r3, [r3]
    971c:	e2833603 	add	r3, r3, #3145728	; 0x300000
    9720:	e2833010 	add	r3, r3, #16
    9724:	e5933000 	ldr	r3, [r3]
    9728:	e59f0034 	ldr	r0, [pc, #52]	; 9764 <sdWaitForData+0x1b4>
    972c:	e08f0000 	add	r0, pc, r0
    9730:	e12fff35 	blx	r5
    9734:	e3a03003 	mov	r3, #3
    9738:	ea000000 	b	9740 <sdWaitForData+0x190>
    973c:	e3a03000 	mov	r3, #0
    9740:	e1a00003 	mov	r0, r3
    9744:	e24bd00c 	sub	sp, fp, #12
    9748:	e8bd8830 	pop	{r4, r5, fp, pc}
    974c:	e320f000 	nop	{0}
    9750:	0007a11f 	andeq	sl, r7, pc, lsl r1
    9754:	00000000 	andeq	r0, r0, r0
    9758:	0000cdcc 	andeq	ip, r0, ip, asr #27
    975c:	00000020 	andeq	r0, r0, r0, lsr #32
    9760:	0000003c 	andeq	r0, r0, ip, lsr r0
    9764:	020bdb54 	andeq	sp, fp, #84, 22	; 0x15000

00009768 <unpack_csd>:
    9768:	e52db004 	push	{fp}		; (str fp, [sp, #-4]!)
    976c:	e28db000 	add	fp, sp, #0
    9770:	e24dd024 	sub	sp, sp, #36	; 0x24
    9774:	e50b0020 	str	r0, [fp, #-32]	; 0xffffffe0
    9778:	e59f3700 	ldr	r3, [pc, #1792]	; 9e80 <unpack_csd+0x718>
    977c:	e08f3003 	add	r3, pc, r3
    9780:	e24b2018 	sub	r2, fp, #24
    9784:	e3a01000 	mov	r1, #0
    9788:	e5821000 	str	r1, [r2]
    978c:	e5821004 	str	r1, [r2, #4]
    9790:	e5821008 	str	r1, [r2, #8]
    9794:	e582100c 	str	r1, [r2, #12]
    9798:	e24b2018 	sub	r2, fp, #24
    979c:	e282200c 	add	r2, r2, #12
    97a0:	e50b2008 	str	r2, [fp, #-8]
    97a4:	e59f26d8 	ldr	r2, [pc, #1752]	; 9e84 <unpack_csd+0x71c>
    97a8:	e7932002 	ldr	r2, [r3, r2]
    97ac:	e5922000 	ldr	r2, [r2]
    97b0:	e2822603 	add	r2, r2, #3145728	; 0x300000
    97b4:	e2822010 	add	r2, r2, #16
    97b8:	e5921000 	ldr	r1, [r2]
    97bc:	e51b2008 	ldr	r2, [fp, #-8]
    97c0:	e5821000 	str	r1, [r2]
    97c4:	e24b2018 	sub	r2, fp, #24
    97c8:	e2822008 	add	r2, r2, #8
    97cc:	e50b2008 	str	r2, [fp, #-8]
    97d0:	e59f26ac 	ldr	r2, [pc, #1708]	; 9e84 <unpack_csd+0x71c>
    97d4:	e7932002 	ldr	r2, [r3, r2]
    97d8:	e5922000 	ldr	r2, [r2]
    97dc:	e2822603 	add	r2, r2, #3145728	; 0x300000
    97e0:	e2822014 	add	r2, r2, #20
    97e4:	e5921000 	ldr	r1, [r2]
    97e8:	e51b2008 	ldr	r2, [fp, #-8]
    97ec:	e5821000 	str	r1, [r2]
    97f0:	e24b2018 	sub	r2, fp, #24
    97f4:	e2822004 	add	r2, r2, #4
    97f8:	e50b2008 	str	r2, [fp, #-8]
    97fc:	e59f2680 	ldr	r2, [pc, #1664]	; 9e84 <unpack_csd+0x71c>
    9800:	e7932002 	ldr	r2, [r3, r2]
    9804:	e5922000 	ldr	r2, [r2]
    9808:	e2822603 	add	r2, r2, #3145728	; 0x300000
    980c:	e2822018 	add	r2, r2, #24
    9810:	e5921000 	ldr	r1, [r2]
    9814:	e51b2008 	ldr	r2, [fp, #-8]
    9818:	e5821000 	str	r1, [r2]
    981c:	e24b2018 	sub	r2, fp, #24
    9820:	e50b2008 	str	r2, [fp, #-8]
    9824:	e59f2658 	ldr	r2, [pc, #1624]	; 9e84 <unpack_csd+0x71c>
    9828:	e7933002 	ldr	r3, [r3, r2]
    982c:	e5933000 	ldr	r3, [r3]
    9830:	e2833603 	add	r3, r3, #3145728	; 0x300000
    9834:	e283301c 	add	r3, r3, #28
    9838:	e5932000 	ldr	r2, [r3]
    983c:	e51b3008 	ldr	r3, [fp, #-8]
    9840:	e5832000 	str	r2, [r3]
    9844:	e55b3016 	ldrb	r3, [fp, #-22]	; 0xffffffea
    9848:	e1a03323 	lsr	r3, r3, #6
    984c:	e6ef3073 	uxtb	r3, r3
    9850:	e2033003 	and	r3, r3, #3
    9854:	e6ef1073 	uxtb	r1, r3
    9858:	e51b2020 	ldr	r2, [fp, #-32]	; 0xffffffe0
    985c:	e5d23000 	ldrb	r3, [r2]
    9860:	e7c13011 	bfi	r3, r1, #0, #2
    9864:	e5c23000 	strb	r3, [r2]
    9868:	e55b3016 	ldrb	r3, [fp, #-22]	; 0xffffffea
    986c:	e203303f 	and	r3, r3, #63	; 0x3f
    9870:	e6ef1073 	uxtb	r1, r3
    9874:	e51b2020 	ldr	r2, [fp, #-32]	; 0xffffffe0
    9878:	e5d23000 	ldrb	r3, [r2]
    987c:	e7c73111 	bfi	r3, r1, #2, #6
    9880:	e5c23000 	strb	r3, [r2]
    9884:	e55b2017 	ldrb	r2, [fp, #-23]	; 0xffffffe9
    9888:	e51b3020 	ldr	r3, [fp, #-32]	; 0xffffffe0
    988c:	e5c32001 	strb	r2, [r3, #1]
    9890:	e55b2018 	ldrb	r2, [fp, #-24]	; 0xffffffe8
    9894:	e51b3020 	ldr	r3, [fp, #-32]	; 0xffffffe0
    9898:	e5c32002 	strb	r2, [r3, #2]
    989c:	e55b2011 	ldrb	r2, [fp, #-17]	; 0xffffffef
    98a0:	e51b3020 	ldr	r3, [fp, #-32]	; 0xffffffe0
    98a4:	e5c32003 	strb	r2, [r3, #3]
    98a8:	e55b3012 	ldrb	r3, [fp, #-18]	; 0xffffffee
    98ac:	e1a03203 	lsl	r3, r3, #4
    98b0:	e6bf2073 	sxth	r2, r3
    98b4:	e55b3013 	ldrb	r3, [fp, #-19]	; 0xffffffed
    98b8:	e1a03223 	lsr	r3, r3, #4
    98bc:	e6ef3073 	uxtb	r3, r3
    98c0:	e6bf3073 	sxth	r3, r3
    98c4:	e1823003 	orr	r3, r2, r3
    98c8:	e6bf3073 	sxth	r3, r3
    98cc:	e7eb3053 	ubfx	r3, r3, #0, #12
    98d0:	e6ff1073 	uxth	r1, r3
    98d4:	e51b2020 	ldr	r2, [fp, #-32]	; 0xffffffe0
    98d8:	e1d230b4 	ldrh	r3, [r2, #4]
    98dc:	e7cb3011 	bfi	r3, r1, #0, #12
    98e0:	e1c230b4 	strh	r3, [r2, #4]
    98e4:	e55b3013 	ldrb	r3, [fp, #-19]	; 0xffffffed
    98e8:	e203300f 	and	r3, r3, #15
    98ec:	e6ef1073 	uxtb	r1, r3
    98f0:	e51b2020 	ldr	r2, [fp, #-32]	; 0xffffffe0
    98f4:	e5d23005 	ldrb	r3, [r2, #5]
    98f8:	e7c73211 	bfi	r3, r1, #4, #4
    98fc:	e5c23005 	strb	r3, [r2, #5]
    9900:	e55b3014 	ldrb	r3, [fp, #-20]	; 0xffffffec
    9904:	e1a033a3 	lsr	r3, r3, #7
    9908:	e6ef3073 	uxtb	r3, r3
    990c:	e2033001 	and	r3, r3, #1
    9910:	e6ef1073 	uxtb	r1, r3
    9914:	e51b2020 	ldr	r2, [fp, #-32]	; 0xffffffe0
    9918:	e5d23006 	ldrb	r3, [r2, #6]
    991c:	e7c03011 	bfi	r3, r1, #0, #1
    9920:	e5c23006 	strb	r3, [r2, #6]
    9924:	e55b3014 	ldrb	r3, [fp, #-20]	; 0xffffffec
    9928:	e1a03343 	asr	r3, r3, #6
    992c:	e2033001 	and	r3, r3, #1
    9930:	e6ef1073 	uxtb	r1, r3
    9934:	e51b2020 	ldr	r2, [fp, #-32]	; 0xffffffe0
    9938:	e5d23006 	ldrb	r3, [r2, #6]
    993c:	e7c13091 	bfi	r3, r1, #1, #1
    9940:	e5c23006 	strb	r3, [r2, #6]
    9944:	e55b3014 	ldrb	r3, [fp, #-20]	; 0xffffffec
    9948:	e1a032c3 	asr	r3, r3, #5
    994c:	e2033001 	and	r3, r3, #1
    9950:	e6ef1073 	uxtb	r1, r3
    9954:	e51b2020 	ldr	r2, [fp, #-32]	; 0xffffffe0
    9958:	e5d23006 	ldrb	r3, [r2, #6]
    995c:	e7c23111 	bfi	r3, r1, #2, #1
    9960:	e5c23006 	strb	r3, [r2, #6]
    9964:	e55b3014 	ldrb	r3, [fp, #-20]	; 0xffffffec
    9968:	e1a03243 	asr	r3, r3, #4
    996c:	e2033001 	and	r3, r3, #1
    9970:	e6ef1073 	uxtb	r1, r3
    9974:	e51b2020 	ldr	r2, [fp, #-32]	; 0xffffffe0
    9978:	e5d23006 	ldrb	r3, [r2, #6]
    997c:	e7c33191 	bfi	r3, r1, #3, #1
    9980:	e5c23006 	strb	r3, [r2, #6]
    9984:	e51b3020 	ldr	r3, [fp, #-32]	; 0xffffffe0
    9988:	e5d33000 	ldrb	r3, [r3]
    998c:	e2033003 	and	r3, r3, #3
    9990:	e6ef3073 	uxtb	r3, r3
    9994:	e3530001 	cmp	r3, #1
    9998:	1a000032 	bne	9a68 <unpack_csd+0x300>
    999c:	e55b300d 	ldrb	r3, [fp, #-13]
    99a0:	e1a03803 	lsl	r3, r3, #16
    99a4:	e7f53053 	ubfx	r3, r3, #0, #22
    99a8:	e203183f 	and	r1, r3, #4128768	; 0x3f0000
    99ac:	e51b2020 	ldr	r2, [fp, #-32]	; 0xffffffe0
    99b0:	e5923008 	ldr	r3, [r2, #8]
    99b4:	e7d53011 	bfi	r3, r1, #0, #22
    99b8:	e5823008 	str	r3, [r2, #8]
    99bc:	e51b3020 	ldr	r3, [fp, #-32]	; 0xffffffe0
    99c0:	e5933008 	ldr	r3, [r3, #8]
    99c4:	e7f53053 	ubfx	r3, r3, #0, #22
    99c8:	e1a02003 	mov	r2, r3
    99cc:	e55b300e 	ldrb	r3, [fp, #-14]
    99d0:	e1a03403 	lsl	r3, r3, #8
    99d4:	e0823003 	add	r3, r2, r3
    99d8:	e7f51053 	ubfx	r1, r3, #0, #22
    99dc:	e51b2020 	ldr	r2, [fp, #-32]	; 0xffffffe0
    99e0:	e5923008 	ldr	r3, [r2, #8]
    99e4:	e7d53011 	bfi	r3, r1, #0, #22
    99e8:	e5823008 	str	r3, [r2, #8]
    99ec:	e51b3020 	ldr	r3, [fp, #-32]	; 0xffffffe0
    99f0:	e5933008 	ldr	r3, [r3, #8]
    99f4:	e7f53053 	ubfx	r3, r3, #0, #22
    99f8:	e1a02003 	mov	r2, r3
    99fc:	e55b300f 	ldrb	r3, [fp, #-15]
    9a00:	e0823003 	add	r3, r2, r3
    9a04:	e7f51053 	ubfx	r1, r3, #0, #22
    9a08:	e51b2020 	ldr	r2, [fp, #-32]	; 0xffffffe0
    9a0c:	e5923008 	ldr	r3, [r2, #8]
    9a10:	e7d53011 	bfi	r3, r1, #0, #22
    9a14:	e5823008 	str	r3, [r2, #8]
    9a18:	e51b3020 	ldr	r3, [fp, #-32]	; 0xffffffe0
    9a1c:	e5933008 	ldr	r3, [r3, #8]
    9a20:	e7f53053 	ubfx	r3, r3, #0, #22
    9a24:	e1a02003 	mov	r2, r3
    9a28:	e3a03000 	mov	r3, #0
    9a2c:	e59f1454 	ldr	r1, [pc, #1108]	; 9e88 <unpack_csd+0x720>
    9a30:	e08f1001 	add	r1, pc, r1
    9a34:	e1c123f0 	strd	r2, [r1, #48]	; 0x30
    9a38:	e59f344c 	ldr	r3, [pc, #1100]	; 9e8c <unpack_csd+0x724>
    9a3c:	e08f3003 	add	r3, pc, r3
    9a40:	e1c303d0 	ldrd	r0, [r3, #48]	; 0x30
    9a44:	e3a02000 	mov	r2, #0
    9a48:	e3a03000 	mov	r3, #0
    9a4c:	e1a03981 	lsl	r3, r1, #19
    9a50:	e18336a0 	orr	r3, r3, r0, lsr #13
    9a54:	e1a02980 	lsl	r2, r0, #19
    9a58:	e59f1430 	ldr	r1, [pc, #1072]	; 9e90 <unpack_csd+0x728>
    9a5c:	e08f1001 	add	r1, pc, r1
    9a60:	e1c123f0 	strd	r2, [r1, #48]	; 0x30
    9a64:	ea00007d 	b	9c60 <unpack_csd+0x4f8>
    9a68:	e55b3014 	ldrb	r3, [fp, #-20]	; 0xffffffec
    9a6c:	e6ff3073 	uxth	r3, r3
    9a70:	e1a03403 	lsl	r3, r3, #8
    9a74:	e6ff3073 	uxth	r3, r3
    9a78:	e7eb3053 	ubfx	r3, r3, #0, #12
    9a7c:	e6ff3073 	uxth	r3, r3
    9a80:	e2033c03 	and	r3, r3, #768	; 0x300
    9a84:	e6ff1073 	uxth	r1, r3
    9a88:	e51b2020 	ldr	r2, [fp, #-32]	; 0xffffffe0
    9a8c:	e1d230b6 	ldrh	r3, [r2, #6]
    9a90:	e7cf3211 	bfi	r3, r1, #4, #12
    9a94:	e1c230b6 	strh	r3, [r2, #6]
    9a98:	e51b3020 	ldr	r3, [fp, #-32]	; 0xffffffe0
    9a9c:	e1d330b6 	ldrh	r3, [r3, #6]
    9aa0:	e7eb3253 	ubfx	r3, r3, #4, #12
    9aa4:	e6ff3073 	uxth	r3, r3
    9aa8:	e1a02003 	mov	r2, r3
    9aac:	e55b300d 	ldrb	r3, [fp, #-13]
    9ab0:	e6ff3073 	uxth	r3, r3
    9ab4:	e0823003 	add	r3, r2, r3
    9ab8:	e6ff3073 	uxth	r3, r3
    9abc:	e7eb3053 	ubfx	r3, r3, #0, #12
    9ac0:	e6ff1073 	uxth	r1, r3
    9ac4:	e51b2020 	ldr	r2, [fp, #-32]	; 0xffffffe0
    9ac8:	e1d230b6 	ldrh	r3, [r2, #6]
    9acc:	e7cf3211 	bfi	r3, r1, #4, #12
    9ad0:	e1c230b6 	strh	r3, [r2, #6]
    9ad4:	e51b3020 	ldr	r3, [fp, #-32]	; 0xffffffe0
    9ad8:	e1d330b6 	ldrh	r3, [r3, #6]
    9adc:	e7eb3253 	ubfx	r3, r3, #4, #12
    9ae0:	e6ff3073 	uxth	r3, r3
    9ae4:	e1a03103 	lsl	r3, r3, #2
    9ae8:	e6ff3073 	uxth	r3, r3
    9aec:	e7eb3053 	ubfx	r3, r3, #0, #12
    9af0:	e6ff1073 	uxth	r1, r3
    9af4:	e51b2020 	ldr	r2, [fp, #-32]	; 0xffffffe0
    9af8:	e1d230b6 	ldrh	r3, [r2, #6]
    9afc:	e7cf3211 	bfi	r3, r1, #4, #12
    9b00:	e1c230b6 	strh	r3, [r2, #6]
    9b04:	e51b3020 	ldr	r3, [fp, #-32]	; 0xffffffe0
    9b08:	e1d330b6 	ldrh	r3, [r3, #6]
    9b0c:	e7eb3253 	ubfx	r3, r3, #4, #12
    9b10:	e6ff3073 	uxth	r3, r3
    9b14:	e1a02003 	mov	r2, r3
    9b18:	e55b300e 	ldrb	r3, [fp, #-14]
    9b1c:	e1a03323 	lsr	r3, r3, #6
    9b20:	e6ef3073 	uxtb	r3, r3
    9b24:	e6ff3073 	uxth	r3, r3
    9b28:	e0823003 	add	r3, r2, r3
    9b2c:	e6ff3073 	uxth	r3, r3
    9b30:	e7eb3053 	ubfx	r3, r3, #0, #12
    9b34:	e6ff1073 	uxth	r1, r3
    9b38:	e51b2020 	ldr	r2, [fp, #-32]	; 0xffffffe0
    9b3c:	e1d230b6 	ldrh	r3, [r2, #6]
    9b40:	e7cf3211 	bfi	r3, r1, #4, #12
    9b44:	e1c230b6 	strh	r3, [r2, #6]
    9b48:	e55b300e 	ldrb	r3, [fp, #-14]
    9b4c:	e1a031c3 	asr	r3, r3, #3
    9b50:	e2033007 	and	r3, r3, #7
    9b54:	e6ef1073 	uxtb	r1, r3
    9b58:	e51b2020 	ldr	r2, [fp, #-32]	; 0xffffffe0
    9b5c:	e5d23008 	ldrb	r3, [r2, #8]
    9b60:	e7c23011 	bfi	r3, r1, #0, #3
    9b64:	e5c23008 	strb	r3, [r2, #8]
    9b68:	e55b300e 	ldrb	r3, [fp, #-14]
    9b6c:	e2033007 	and	r3, r3, #7
    9b70:	e6ef1073 	uxtb	r1, r3
    9b74:	e51b2020 	ldr	r2, [fp, #-32]	; 0xffffffe0
    9b78:	e5d23008 	ldrb	r3, [r2, #8]
    9b7c:	e7c53191 	bfi	r3, r1, #3, #3
    9b80:	e5c23008 	strb	r3, [r2, #8]
    9b84:	e55b300f 	ldrb	r3, [fp, #-15]
    9b88:	e1a032a3 	lsr	r3, r3, #5
    9b8c:	e6ef3073 	uxtb	r3, r3
    9b90:	e2033007 	and	r3, r3, #7
    9b94:	e6ef1073 	uxtb	r1, r3
    9b98:	e51b2020 	ldr	r2, [fp, #-32]	; 0xffffffe0
    9b9c:	e1d230b8 	ldrh	r3, [r2, #8]
    9ba0:	e7c83311 	bfi	r3, r1, #6, #3
    9ba4:	e1c230b8 	strh	r3, [r2, #8]
    9ba8:	e55b300f 	ldrb	r3, [fp, #-15]
    9bac:	e1a03143 	asr	r3, r3, #2
    9bb0:	e2033007 	and	r3, r3, #7
    9bb4:	e6ef1073 	uxtb	r1, r3
    9bb8:	e51b2020 	ldr	r2, [fp, #-32]	; 0xffffffe0
    9bbc:	e5d23009 	ldrb	r3, [r2, #9]
    9bc0:	e7c33091 	bfi	r3, r1, #1, #3
    9bc4:	e5c23009 	strb	r3, [r2, #9]
    9bc8:	e55b300f 	ldrb	r3, [fp, #-15]
    9bcc:	e1a03083 	lsl	r3, r3, #1
    9bd0:	e6af3073 	sxtb	r3, r3
    9bd4:	e2033006 	and	r3, r3, #6
    9bd8:	e6af2073 	sxtb	r2, r3
    9bdc:	e55b3010 	ldrb	r3, [fp, #-16]
    9be0:	e1a033a3 	lsr	r3, r3, #7
    9be4:	e6ef3073 	uxtb	r3, r3
    9be8:	e6af3073 	sxtb	r3, r3
    9bec:	e1823003 	orr	r3, r2, r3
    9bf0:	e6af3073 	sxtb	r3, r3
    9bf4:	e2033007 	and	r3, r3, #7
    9bf8:	e6ef1073 	uxtb	r1, r3
    9bfc:	e51b2020 	ldr	r2, [fp, #-32]	; 0xffffffe0
    9c00:	e5d23009 	ldrb	r3, [r2, #9]
    9c04:	e7c63211 	bfi	r3, r1, #4, #3
    9c08:	e5c23009 	strb	r3, [r2, #9]
    9c0c:	e51b3020 	ldr	r3, [fp, #-32]	; 0xffffffe0
    9c10:	e1d330b6 	ldrh	r3, [r3, #6]
    9c14:	e7eb3253 	ubfx	r3, r3, #4, #12
    9c18:	e6ff3073 	uxth	r3, r3
    9c1c:	e2832001 	add	r2, r3, #1
    9c20:	e51b3020 	ldr	r3, [fp, #-32]	; 0xffffffe0
    9c24:	e5d33009 	ldrb	r3, [r3, #9]
    9c28:	e7e23253 	ubfx	r3, r3, #4, #3
    9c2c:	e6ef3073 	uxtb	r3, r3
    9c30:	e2833002 	add	r3, r3, #2
    9c34:	e1a03312 	lsl	r3, r2, r3
    9c38:	e51b2020 	ldr	r2, [fp, #-32]	; 0xffffffe0
    9c3c:	e5d22005 	ldrb	r2, [r2, #5]
    9c40:	e7e32252 	ubfx	r2, r2, #4, #4
    9c44:	e6ef2072 	uxtb	r2, r2
    9c48:	e1a03213 	lsl	r3, r3, r2
    9c4c:	e1a02003 	mov	r2, r3
    9c50:	e1a03fc2 	asr	r3, r2, #31
    9c54:	e59f1238 	ldr	r1, [pc, #568]	; 9e94 <unpack_csd+0x72c>
    9c58:	e08f1001 	add	r1, pc, r1
    9c5c:	e1c123f0 	strd	r2, [r1, #48]	; 0x30
    9c60:	e55b3010 	ldrb	r3, [fp, #-16]
    9c64:	e1a03343 	asr	r3, r3, #6
    9c68:	e2033001 	and	r3, r3, #1
    9c6c:	e6ef1073 	uxtb	r1, r3
    9c70:	e51b2020 	ldr	r2, [fp, #-32]	; 0xffffffe0
    9c74:	e5d2300c 	ldrb	r3, [r2, #12]
    9c78:	e7c03011 	bfi	r3, r1, #0, #1
    9c7c:	e5c2300c 	strb	r3, [r2, #12]
    9c80:	e55b3009 	ldrb	r3, [fp, #-9]
    9c84:	e1a030c3 	asr	r3, r3, #1
    9c88:	e6af3073 	sxtb	r3, r3
    9c8c:	e2033040 	and	r3, r3, #64	; 0x40
    9c90:	e6af2073 	sxtb	r2, r3
    9c94:	e55b3010 	ldrb	r3, [fp, #-16]
    9c98:	e6af3073 	sxtb	r3, r3
    9c9c:	e203303f 	and	r3, r3, #63	; 0x3f
    9ca0:	e6af3073 	sxtb	r3, r3
    9ca4:	e1823003 	orr	r3, r2, r3
    9ca8:	e6af3073 	sxtb	r3, r3
    9cac:	e203307f 	and	r3, r3, #127	; 0x7f
    9cb0:	e6ef1073 	uxtb	r1, r3
    9cb4:	e51b2020 	ldr	r2, [fp, #-32]	; 0xffffffe0
    9cb8:	e5d2300c 	ldrb	r3, [r2, #12]
    9cbc:	e7c73091 	bfi	r3, r1, #1, #7
    9cc0:	e5c2300c 	strb	r3, [r2, #12]
    9cc4:	e55b3009 	ldrb	r3, [fp, #-9]
    9cc8:	e203307f 	and	r3, r3, #127	; 0x7f
    9ccc:	e6ef1073 	uxtb	r1, r3
    9cd0:	e51b2020 	ldr	r2, [fp, #-32]	; 0xffffffe0
    9cd4:	e5d23010 	ldrb	r3, [r2, #16]
    9cd8:	e7c63011 	bfi	r3, r1, #0, #7
    9cdc:	e5c23010 	strb	r3, [r2, #16]
    9ce0:	e55b300a 	ldrb	r3, [fp, #-10]
    9ce4:	e1a033a3 	lsr	r3, r3, #7
    9ce8:	e6ef3073 	uxtb	r3, r3
    9cec:	e2033001 	and	r3, r3, #1
    9cf0:	e6ef1073 	uxtb	r1, r3
    9cf4:	e51b2020 	ldr	r2, [fp, #-32]	; 0xffffffe0
    9cf8:	e5d23010 	ldrb	r3, [r2, #16]
    9cfc:	e7c73391 	bfi	r3, r1, #7, #1
    9d00:	e5c23010 	strb	r3, [r2, #16]
    9d04:	e55b300a 	ldrb	r3, [fp, #-10]
    9d08:	e1a032c3 	asr	r3, r3, #5
    9d0c:	e203301f 	and	r3, r3, #31
    9d10:	e6ef3073 	uxtb	r3, r3
    9d14:	e2033003 	and	r3, r3, #3
    9d18:	e6ef1073 	uxtb	r1, r3
    9d1c:	e51b2020 	ldr	r2, [fp, #-32]	; 0xffffffe0
    9d20:	e5d23012 	ldrb	r3, [r2, #18]
    9d24:	e7c63111 	bfi	r3, r1, #2, #5
    9d28:	e5c23012 	strb	r3, [r2, #18]
    9d2c:	e55b300a 	ldrb	r3, [fp, #-10]
    9d30:	e1a03143 	asr	r3, r3, #2
    9d34:	e2033007 	and	r3, r3, #7
    9d38:	e6ef1073 	uxtb	r1, r3
    9d3c:	e51b2020 	ldr	r2, [fp, #-32]	; 0xffffffe0
    9d40:	e5d23011 	ldrb	r3, [r2, #17]
    9d44:	e7c43111 	bfi	r3, r1, #2, #3
    9d48:	e5c23011 	strb	r3, [r2, #17]
    9d4c:	e55b300a 	ldrb	r3, [fp, #-10]
    9d50:	e1a03103 	lsl	r3, r3, #2
    9d54:	e6af3073 	sxtb	r3, r3
    9d58:	e203300c 	and	r3, r3, #12
    9d5c:	e6af2073 	sxtb	r2, r3
    9d60:	e55b300b 	ldrb	r3, [fp, #-11]
    9d64:	e1a03323 	lsr	r3, r3, #6
    9d68:	e6ef3073 	uxtb	r3, r3
    9d6c:	e6af3073 	sxtb	r3, r3
    9d70:	e1823003 	orr	r3, r2, r3
    9d74:	e6af3073 	sxtb	r3, r3
    9d78:	e203300f 	and	r3, r3, #15
    9d7c:	e6ef1073 	uxtb	r1, r3
    9d80:	e51b2020 	ldr	r2, [fp, #-32]	; 0xffffffe0
    9d84:	e5923010 	ldr	r3, [r2, #16]
    9d88:	e7d03691 	bfi	r3, r1, #13, #4
    9d8c:	e5823010 	str	r3, [r2, #16]
    9d90:	e55b300b 	ldrb	r3, [fp, #-11]
    9d94:	e1a032c3 	asr	r3, r3, #5
    9d98:	e2033001 	and	r3, r3, #1
    9d9c:	e6ef1073 	uxtb	r1, r3
    9da0:	e51b2020 	ldr	r2, [fp, #-32]	; 0xffffffe0
    9da4:	e5d23012 	ldrb	r3, [r2, #18]
    9da8:	e7c13091 	bfi	r3, r1, #1, #1
    9dac:	e5c23012 	strb	r3, [r2, #18]
    9db0:	e55b300c 	ldrb	r3, [fp, #-12]
    9db4:	e1a033a3 	lsr	r3, r3, #7
    9db8:	e6ef3073 	uxtb	r3, r3
    9dbc:	e2033001 	and	r3, r3, #1
    9dc0:	e6ef1073 	uxtb	r1, r3
    9dc4:	e51b2020 	ldr	r2, [fp, #-32]	; 0xffffffe0
    9dc8:	e5d23012 	ldrb	r3, [r2, #18]
    9dcc:	e7c73391 	bfi	r3, r1, #7, #1
    9dd0:	e5c23012 	strb	r3, [r2, #18]
    9dd4:	e55b300c 	ldrb	r3, [fp, #-12]
    9dd8:	e1a03343 	asr	r3, r3, #6
    9ddc:	e2033001 	and	r3, r3, #1
    9de0:	e6ef1073 	uxtb	r1, r3
    9de4:	e51b2020 	ldr	r2, [fp, #-32]	; 0xffffffe0
    9de8:	e5d23013 	ldrb	r3, [r2, #19]
    9dec:	e7c03011 	bfi	r3, r1, #0, #1
    9df0:	e5c23013 	strb	r3, [r2, #19]
    9df4:	e55b300c 	ldrb	r3, [fp, #-12]
    9df8:	e1a032c3 	asr	r3, r3, #5
    9dfc:	e2033001 	and	r3, r3, #1
    9e00:	e6ef1073 	uxtb	r1, r3
    9e04:	e51b2020 	ldr	r2, [fp, #-32]	; 0xffffffe0
    9e08:	e5d23013 	ldrb	r3, [r2, #19]
    9e0c:	e7c13091 	bfi	r3, r1, #1, #1
    9e10:	e5c23013 	strb	r3, [r2, #19]
    9e14:	e55b300c 	ldrb	r3, [fp, #-12]
    9e18:	e1a03243 	asr	r3, r3, #4
    9e1c:	e2033001 	and	r3, r3, #1
    9e20:	e6ef1073 	uxtb	r1, r3
    9e24:	e51b2020 	ldr	r2, [fp, #-32]	; 0xffffffe0
    9e28:	e5d23013 	ldrb	r3, [r2, #19]
    9e2c:	e7c23111 	bfi	r3, r1, #2, #1
    9e30:	e5c23013 	strb	r3, [r2, #19]
    9e34:	e55b300c 	ldrb	r3, [fp, #-12]
    9e38:	e1a03143 	asr	r3, r3, #2
    9e3c:	e2033003 	and	r3, r3, #3
    9e40:	e6ef1073 	uxtb	r1, r3
    9e44:	e51b2020 	ldr	r2, [fp, #-32]	; 0xffffffe0
    9e48:	e5d23013 	ldrb	r3, [r2, #19]
    9e4c:	e7c43191 	bfi	r3, r1, #3, #2
    9e50:	e5c23013 	strb	r3, [r2, #19]
    9e54:	e55b300c 	ldrb	r3, [fp, #-12]
    9e58:	e2033003 	and	r3, r3, #3
    9e5c:	e6ef1073 	uxtb	r1, r3
    9e60:	e51b2020 	ldr	r2, [fp, #-32]	; 0xffffffe0
    9e64:	e5d23013 	ldrb	r3, [r2, #19]
    9e68:	e7c63291 	bfi	r3, r1, #5, #2
    9e6c:	e5c23013 	strb	r3, [r2, #19]
    9e70:	e320f000 	nop	{0}
    9e74:	e28bd000 	add	sp, fp, #0
    9e78:	e49db004 	pop	{fp}		; (ldr fp, [sp], #4)
    9e7c:	e12fff1e 	bx	lr
    9e80:	0000cc10 	andeq	ip, r0, r0, lsl ip
    9e84:	00000020 	andeq	r0, r0, r0, lsr #32
    9e88:	0000cff8 	strdeq	ip, [r0], -r8
    9e8c:	0000cfec 	andeq	ip, r0, ip, ror #31
    9e90:	0000cfcc 	andeq	ip, r0, ip, asr #31
    9e94:	0000cdd0 	ldrdeq	ip, [r0], -r0

00009e98 <sdSendCommandP>:
    9e98:	e92d4810 	push	{r4, fp, lr}
    9e9c:	e28db008 	add	fp, sp, #8
    9ea0:	e24dd01c 	sub	sp, sp, #28
    9ea4:	e50b0020 	str	r0, [fp, #-32]	; 0xffffffe0
    9ea8:	e50b1024 	str	r1, [fp, #-36]	; 0xffffffdc
    9eac:	e59f4358 	ldr	r4, [pc, #856]	; a20c <sdSendCommandP+0x374>
    9eb0:	e08f4004 	add	r4, pc, r4
    9eb4:	ebfffd50 	bl	93fc <sdWaitForCommand>
    9eb8:	e1a03000 	mov	r3, r0
    9ebc:	e3530000 	cmp	r3, #0
    9ec0:	0a000001 	beq	9ecc <sdSendCommandP+0x34>
    9ec4:	e3a03003 	mov	r3, #3
    9ec8:	ea0000cc 	b	a200 <sdSendCommandP+0x368>
    9ecc:	e59f333c 	ldr	r3, [pc, #828]	; a210 <sdSendCommandP+0x378>
    9ed0:	e08f3003 	add	r3, pc, r3
    9ed4:	e51b2020 	ldr	r2, [fp, #-32]	; 0xffffffe0
    9ed8:	e5832048 	str	r2, [r3, #72]	; 0x48
    9edc:	e59f3330 	ldr	r3, [pc, #816]	; a214 <sdSendCommandP+0x37c>
    9ee0:	e7943003 	ldr	r3, [r4, r3]
    9ee4:	e5933000 	ldr	r3, [r3]
    9ee8:	e2833603 	add	r3, r3, #3145728	; 0x300000
    9eec:	e2833030 	add	r3, r3, #48	; 0x30
    9ef0:	e1a01003 	mov	r1, r3
    9ef4:	e59f3318 	ldr	r3, [pc, #792]	; a214 <sdSendCommandP+0x37c>
    9ef8:	e7943003 	ldr	r3, [r4, r3]
    9efc:	e5933000 	ldr	r3, [r3]
    9f00:	e2833603 	add	r3, r3, #3145728	; 0x300000
    9f04:	e2833030 	add	r3, r3, #48	; 0x30
    9f08:	e1a02003 	mov	r2, r3
    9f0c:	e5913000 	ldr	r3, [r1]
    9f10:	e5823000 	str	r3, [r2]
    9f14:	e59f32f8 	ldr	r3, [pc, #760]	; a214 <sdSendCommandP+0x37c>
    9f18:	e7943003 	ldr	r3, [r4, r3]
    9f1c:	e5933000 	ldr	r3, [r3]
    9f20:	e2833603 	add	r3, r3, #3145728	; 0x300000
    9f24:	e2833008 	add	r3, r3, #8
    9f28:	e1a02003 	mov	r2, r3
    9f2c:	e51b3024 	ldr	r3, [fp, #-36]	; 0xffffffdc
    9f30:	e5823000 	str	r3, [r2]
    9f34:	e59f32d8 	ldr	r3, [pc, #728]	; a214 <sdSendCommandP+0x37c>
    9f38:	e7943003 	ldr	r3, [r4, r3]
    9f3c:	e5933000 	ldr	r3, [r3]
    9f40:	e2833603 	add	r3, r3, #3145728	; 0x300000
    9f44:	e283300c 	add	r3, r3, #12
    9f48:	e1a02003 	mov	r2, r3
    9f4c:	e51b3020 	ldr	r3, [fp, #-32]	; 0xffffffe0
    9f50:	e5933010 	ldr	r3, [r3, #16]
    9f54:	e5823000 	str	r3, [r2]
    9f58:	e51b3020 	ldr	r3, [fp, #-32]	; 0xffffffe0
    9f5c:	e1d331b6 	ldrh	r3, [r3, #22]
    9f60:	e3530000 	cmp	r3, #0
    9f64:	0a000006 	beq	9f84 <sdSendCommandP+0xec>
    9f68:	e51b3020 	ldr	r3, [fp, #-32]	; 0xffffffe0
    9f6c:	e1d331b6 	ldrh	r3, [r3, #22]
    9f70:	e6ff2073 	uxth	r2, r3
    9f74:	e3a03000 	mov	r3, #0
    9f78:	e1a00002 	mov	r0, r2
    9f7c:	e1a01003 	mov	r1, r3
    9f80:	eb0015ef 	bl	f744 <timer_wait>
    9f84:	e3a00001 	mov	r0, #1
    9f88:	ebfffc79 	bl	9174 <sdWaitForInterrupt>
    9f8c:	e1a03000 	mov	r3, r0
    9f90:	e54b300d 	strb	r3, [fp, #-13]
    9f94:	e55b300d 	ldrb	r3, [fp, #-13]
    9f98:	e3530000 	cmp	r3, #0
    9f9c:	0a000001 	beq	9fa8 <sdSendCommandP+0x110>
    9fa0:	e55b300d 	ldrb	r3, [fp, #-13]
    9fa4:	ea000095 	b	a200 <sdSendCommandP+0x368>
    9fa8:	e59f3264 	ldr	r3, [pc, #612]	; a214 <sdSendCommandP+0x37c>
    9fac:	e7943003 	ldr	r3, [r4, r3]
    9fb0:	e5933000 	ldr	r3, [r3]
    9fb4:	e2833603 	add	r3, r3, #3145728	; 0x300000
    9fb8:	e2833010 	add	r3, r3, #16
    9fbc:	e5933000 	ldr	r3, [r3]
    9fc0:	e50b3014 	str	r3, [fp, #-20]	; 0xffffffec
    9fc4:	e51b3020 	ldr	r3, [fp, #-32]	; 0xffffffe0
    9fc8:	e5d33012 	ldrb	r3, [r3, #18]
    9fcc:	e7e13053 	ubfx	r3, r3, #0, #2
    9fd0:	e6ef3073 	uxtb	r3, r3
    9fd4:	e3530002 	cmp	r3, #2
    9fd8:	0a00000e 	beq	a018 <sdSendCommandP+0x180>
    9fdc:	e3530003 	cmp	r3, #3
    9fe0:	0a000003 	beq	9ff4 <sdSendCommandP+0x15c>
    9fe4:	e3530001 	cmp	r3, #1
    9fe8:	0a000051 	beq	a134 <sdSendCommandP+0x29c>
    9fec:	e3a03000 	mov	r3, #0
    9ff0:	ea000082 	b	a200 <sdSendCommandP+0x368>
    9ff4:	e59f321c 	ldr	r3, [pc, #540]	; a218 <sdSendCommandP+0x380>
    9ff8:	e08f3003 	add	r3, pc, r3
    9ffc:	e51b2014 	ldr	r2, [fp, #-20]	; 0xffffffec
    a000:	e5832044 	str	r2, [r3, #68]	; 0x44
    a004:	e51b2014 	ldr	r2, [fp, #-20]	; 0xffffffec
    a008:	e30c3004 	movw	r3, #49156	; 0xc004
    a00c:	e34f3ff9 	movt	r3, #65529	; 0xfff9
    a010:	e0033002 	and	r3, r3, r2
    a014:	ea000079 	b	a200 <sdSendCommandP+0x368>
    a018:	e51b3020 	ldr	r3, [fp, #-32]	; 0xffffffe0
    a01c:	e5933010 	ldr	r3, [r3, #16]
    a020:	e7e53c53 	ubfx	r3, r3, #24, #6
    a024:	e6ef3073 	uxtb	r3, r3
    a028:	e3530008 	cmp	r3, #8
    a02c:	0a000022 	beq	a0bc <sdSendCommandP+0x224>
    a030:	e3530029 	cmp	r3, #41	; 0x29
    a034:	0a00002b 	beq	a0e8 <sdSendCommandP+0x250>
    a038:	e3530003 	cmp	r3, #3
    a03c:	1a000033 	bne	a110 <sdSendCommandP+0x278>
    a040:	e51b3014 	ldr	r3, [fp, #-20]	; 0xffffffec
    a044:	e1a03823 	lsr	r3, r3, #16
    a048:	e1a03803 	lsl	r3, r3, #16
    a04c:	e59f21c8 	ldr	r2, [pc, #456]	; a21c <sdSendCommandP+0x384>
    a050:	e08f2002 	add	r2, pc, r2
    a054:	e582303c 	str	r3, [r2, #60]	; 0x3c
    a058:	e51b3014 	ldr	r3, [fp, #-20]	; 0xffffffec
    a05c:	e7ec2053 	ubfx	r2, r3, #0, #13
    a060:	e51b3014 	ldr	r3, [fp, #-20]	; 0xffffffec
    a064:	e1a03303 	lsl	r3, r3, #6
    a068:	e2033702 	and	r3, r3, #524288	; 0x80000
    a06c:	e1822003 	orr	r2, r2, r3
    a070:	e51b3014 	ldr	r3, [fp, #-20]	; 0xffffffec
    a074:	e1a03403 	lsl	r3, r3, #8
    a078:	e2033501 	and	r3, r3, #4194304	; 0x400000
    a07c:	e1822003 	orr	r2, r2, r3
    a080:	e51b3014 	ldr	r3, [fp, #-20]	; 0xffffffec
    a084:	e1a03403 	lsl	r3, r3, #8
    a088:	e2033502 	and	r3, r3, #8388608	; 0x800000
    a08c:	e1822003 	orr	r2, r2, r3
    a090:	e59f3188 	ldr	r3, [pc, #392]	; a220 <sdSendCommandP+0x388>
    a094:	e08f3003 	add	r3, pc, r3
    a098:	e5832044 	str	r2, [r3, #68]	; 0x44
    a09c:	e59f3180 	ldr	r3, [pc, #384]	; a224 <sdSendCommandP+0x38c>
    a0a0:	e08f3003 	add	r3, pc, r3
    a0a4:	e5933044 	ldr	r3, [r3, #68]	; 0x44
    a0a8:	e1a02003 	mov	r2, r3
    a0ac:	e30c3004 	movw	r3, #49156	; 0xc004
    a0b0:	e34f3ff9 	movt	r3, #65529	; 0xfff9
    a0b4:	e0033002 	and	r3, r3, r2
    a0b8:	ea000050 	b	a200 <sdSendCommandP+0x368>
    a0bc:	e59f3164 	ldr	r3, [pc, #356]	; a228 <sdSendCommandP+0x390>
    a0c0:	e08f3003 	add	r3, pc, r3
    a0c4:	e3a02000 	mov	r2, #0
    a0c8:	e5832044 	str	r2, [r3, #68]	; 0x44
    a0cc:	e51b2014 	ldr	r2, [fp, #-20]	; 0xffffffec
    a0d0:	e51b3024 	ldr	r3, [fp, #-36]	; 0xffffffdc
    a0d4:	e1520003 	cmp	r2, r3
    a0d8:	13a03001 	movne	r3, #1
    a0dc:	03a03000 	moveq	r3, #0
    a0e0:	e6ef3073 	uxtb	r3, r3
    a0e4:	ea000045 	b	a200 <sdSendCommandP+0x368>
    a0e8:	e59f313c 	ldr	r3, [pc, #316]	; a22c <sdSendCommandP+0x394>
    a0ec:	e08f3003 	add	r3, pc, r3
    a0f0:	e3a02000 	mov	r2, #0
    a0f4:	e5832044 	str	r2, [r3, #68]	; 0x44
    a0f8:	e59f3130 	ldr	r3, [pc, #304]	; a230 <sdSendCommandP+0x398>
    a0fc:	e08f3003 	add	r3, pc, r3
    a100:	e51b2014 	ldr	r2, [fp, #-20]	; 0xffffffec
    a104:	e5832040 	str	r2, [r3, #64]	; 0x40
    a108:	e3a03000 	mov	r3, #0
    a10c:	ea00003b 	b	a200 <sdSendCommandP+0x368>
    a110:	e59f311c 	ldr	r3, [pc, #284]	; a234 <sdSendCommandP+0x39c>
    a114:	e08f3003 	add	r3, pc, r3
    a118:	e51b2014 	ldr	r2, [fp, #-20]	; 0xffffffec
    a11c:	e5832044 	str	r2, [r3, #68]	; 0x44
    a120:	e51b2014 	ldr	r2, [fp, #-20]	; 0xffffffec
    a124:	e30c3004 	movw	r3, #49156	; 0xc004
    a128:	e34f3ff9 	movt	r3, #65529	; 0xfff9
    a12c:	e0033002 	and	r3, r3, r2
    a130:	ea000032 	b	a200 <sdSendCommandP+0x368>
    a134:	e59f30fc 	ldr	r3, [pc, #252]	; a238 <sdSendCommandP+0x3a0>
    a138:	e08f3003 	add	r3, pc, r3
    a13c:	e3a02000 	mov	r2, #0
    a140:	e5832044 	str	r2, [r3, #68]	; 0x44
    a144:	e51b3020 	ldr	r3, [fp, #-32]	; 0xffffffe0
    a148:	e5933010 	ldr	r3, [r3, #16]
    a14c:	e7e53c53 	ubfx	r3, r3, #24, #6
    a150:	e6ef3073 	uxtb	r3, r3
    a154:	e3530009 	cmp	r3, #9
    a158:	1a000004 	bne	a170 <sdSendCommandP+0x2d8>
    a15c:	e59f30d8 	ldr	r3, [pc, #216]	; a23c <sdSendCommandP+0x3a4>
    a160:	e08f3003 	add	r3, pc, r3
    a164:	e2830010 	add	r0, r3, #16
    a168:	ebfffd7e 	bl	9768 <unpack_csd>
    a16c:	ea000022 	b	a1fc <sdSendCommandP+0x364>
    a170:	e59f30c8 	ldr	r3, [pc, #200]	; a240 <sdSendCommandP+0x3a8>
    a174:	e08f3003 	add	r3, pc, r3
    a178:	e50b3018 	str	r3, [fp, #-24]	; 0xffffffe8
    a17c:	e51b3018 	ldr	r3, [fp, #-24]	; 0xffffffe8
    a180:	e283300c 	add	r3, r3, #12
    a184:	e51b2014 	ldr	r2, [fp, #-20]	; 0xffffffec
    a188:	e5832000 	str	r2, [r3]
    a18c:	e59f3080 	ldr	r3, [pc, #128]	; a214 <sdSendCommandP+0x37c>
    a190:	e7943003 	ldr	r3, [r4, r3]
    a194:	e5933000 	ldr	r3, [r3]
    a198:	e2833603 	add	r3, r3, #3145728	; 0x300000
    a19c:	e2833014 	add	r3, r3, #20
    a1a0:	e1a02003 	mov	r2, r3
    a1a4:	e51b3018 	ldr	r3, [fp, #-24]	; 0xffffffe8
    a1a8:	e2833008 	add	r3, r3, #8
    a1ac:	e5922000 	ldr	r2, [r2]
    a1b0:	e5832000 	str	r2, [r3]
    a1b4:	e59f3058 	ldr	r3, [pc, #88]	; a214 <sdSendCommandP+0x37c>
    a1b8:	e7943003 	ldr	r3, [r4, r3]
    a1bc:	e5933000 	ldr	r3, [r3]
    a1c0:	e2833603 	add	r3, r3, #3145728	; 0x300000
    a1c4:	e2833018 	add	r3, r3, #24
    a1c8:	e1a02003 	mov	r2, r3
    a1cc:	e51b3018 	ldr	r3, [fp, #-24]	; 0xffffffe8
    a1d0:	e2833004 	add	r3, r3, #4
    a1d4:	e5922000 	ldr	r2, [r2]
    a1d8:	e5832000 	str	r2, [r3]
    a1dc:	e59f3030 	ldr	r3, [pc, #48]	; a214 <sdSendCommandP+0x37c>
    a1e0:	e7943003 	ldr	r3, [r4, r3]
    a1e4:	e5933000 	ldr	r3, [r3]
    a1e8:	e2833603 	add	r3, r3, #3145728	; 0x300000
    a1ec:	e283301c 	add	r3, r3, #28
    a1f0:	e5932000 	ldr	r2, [r3]
    a1f4:	e51b3018 	ldr	r3, [fp, #-24]	; 0xffffffe8
    a1f8:	e5832000 	str	r2, [r3]
    a1fc:	e3a03000 	mov	r3, #0
    a200:	e1a00003 	mov	r0, r3
    a204:	e24bd008 	sub	sp, fp, #8
    a208:	e8bd8810 	pop	{r4, fp, pc}
    a20c:	0000c4dc 	ldrdeq	ip, [r0], -ip	; <UNPREDICTABLE>
    a210:	0000cb58 	andeq	ip, r0, r8, asr fp
    a214:	00000020 	andeq	r0, r0, r0, lsr #32
    a218:	0000ca30 	andeq	ip, r0, r0, lsr sl
    a21c:	0000c9d8 	ldrdeq	ip, [r0], -r8
    a220:	0000c994 	muleq	r0, r4, r9
    a224:	0000c988 	andeq	ip, r0, r8, lsl #19
    a228:	0000c968 	andeq	ip, r0, r8, ror #18
    a22c:	0000c93c 	andeq	ip, r0, ip, lsr r9
    a230:	0000c92c 	andeq	ip, r0, ip, lsr #18
    a234:	0000c914 	andeq	ip, r0, r4, lsl r9
    a238:	0000c8f0 	strdeq	ip, [r0], -r0
    a23c:	0000c8c8 	andeq	ip, r0, r8, asr #17
    a240:	0000c8b4 			; <UNDEFINED> instruction: 0x0000c8b4

0000a244 <sdSendAppCommand>:
    a244:	e92d4800 	push	{fp, lr}
    a248:	e28db004 	add	fp, sp, #4
    a24c:	e24dd008 	sub	sp, sp, #8
    a250:	e59f30a0 	ldr	r3, [pc, #160]	; a2f8 <sdSendAppCommand+0xb4>
    a254:	e08f3003 	add	r3, pc, r3
    a258:	e593303c 	ldr	r3, [r3, #60]	; 0x3c
    a25c:	e3530000 	cmp	r3, #0
    a260:	1a000005 	bne	a27c <sdSendAppCommand+0x38>
    a264:	e3a01000 	mov	r1, #0
    a268:	e59f308c 	ldr	r3, [pc, #140]	; a2fc <sdSendAppCommand+0xb8>
    a26c:	e08f3003 	add	r3, pc, r3
    a270:	e2830fae 	add	r0, r3, #696	; 0x2b8
    a274:	ebffff07 	bl	9e98 <sdSendCommandP>
    a278:	ea00001a 	b	a2e8 <sdSendAppCommand+0xa4>
    a27c:	e59f307c 	ldr	r3, [pc, #124]	; a300 <sdSendAppCommand+0xbc>
    a280:	e08f3003 	add	r3, pc, r3
    a284:	e593303c 	ldr	r3, [r3, #60]	; 0x3c
    a288:	e1a01003 	mov	r1, r3
    a28c:	e59f3070 	ldr	r3, [pc, #112]	; a304 <sdSendAppCommand+0xc0>
    a290:	e08f3003 	add	r3, pc, r3
    a294:	e2830e2d 	add	r0, r3, #720	; 0x2d0
    a298:	ebfffefe 	bl	9e98 <sdSendCommandP>
    a29c:	e1a03000 	mov	r3, r0
    a2a0:	e54b3005 	strb	r3, [fp, #-5]
    a2a4:	e55b3005 	ldrb	r3, [fp, #-5]
    a2a8:	e3530000 	cmp	r3, #0
    a2ac:	0a000005 	beq	a2c8 <sdSendAppCommand+0x84>
    a2b0:	e55b3005 	ldrb	r3, [fp, #-5]
    a2b4:	e1a00003 	mov	r0, r3
    a2b8:	ebfffba4 	bl	9150 <sdDebugResponse>
    a2bc:	e1a03000 	mov	r3, r0
    a2c0:	e6ef3073 	uxtb	r3, r3
    a2c4:	ea000008 	b	a2ec <sdSendAppCommand+0xa8>
    a2c8:	e59f3038 	ldr	r3, [pc, #56]	; a308 <sdSendAppCommand+0xc4>
    a2cc:	e08f3003 	add	r3, pc, r3
    a2d0:	e5933044 	ldr	r3, [r3, #68]	; 0x44
    a2d4:	e2033020 	and	r3, r3, #32
    a2d8:	e3530000 	cmp	r3, #0
    a2dc:	1a000001 	bne	a2e8 <sdSendAppCommand+0xa4>
    a2e0:	e3a03001 	mov	r3, #1
    a2e4:	ea000000 	b	a2ec <sdSendAppCommand+0xa8>
    a2e8:	e3a03000 	mov	r3, #0
    a2ec:	e1a00003 	mov	r0, r3
    a2f0:	e24bd004 	sub	sp, fp, #4
    a2f4:	e8bd8800 	pop	{fp, pc}
    a2f8:	0000c7d4 	ldrdeq	ip, [r0], -r4
    a2fc:	0000bd34 	andeq	fp, r0, r4, lsr sp
    a300:	0000c7a8 	andeq	ip, r0, r8, lsr #15
    a304:	0000bd10 	andeq	fp, r0, r0, lsl sp
    a308:	0000c75c 	andeq	ip, r0, ip, asr r7

0000a30c <sdSendCommand>:
    a30c:	e92d4800 	push	{fp, lr}
    a310:	e28db004 	add	fp, sp, #4
    a314:	e24dd018 	sub	sp, sp, #24
    a318:	e50b0018 	str	r0, [fp, #-24]	; 0xffffffe8
    a31c:	e51b3018 	ldr	r3, [fp, #-24]	; 0xffffffe8
    a320:	e353001f 	cmp	r3, #31
    a324:	da00000b 	ble	a358 <sdSendCommand+0x4c>
    a328:	ebffffc5 	bl	a244 <sdSendAppCommand>
    a32c:	e1a03000 	mov	r3, r0
    a330:	e54b3009 	strb	r3, [fp, #-9]
    a334:	e55b3009 	ldrb	r3, [fp, #-9]
    a338:	e3530000 	cmp	r3, #0
    a33c:	0a000005 	beq	a358 <sdSendCommand+0x4c>
    a340:	e55b3009 	ldrb	r3, [fp, #-9]
    a344:	e1a00003 	mov	r0, r3
    a348:	ebfffb80 	bl	9150 <sdDebugResponse>
    a34c:	e1a03000 	mov	r3, r0
    a350:	e6ef3073 	uxtb	r3, r3
    a354:	ea00002d 	b	a410 <sdSendCommand+0x104>
    a358:	e51b3018 	ldr	r3, [fp, #-24]	; 0xffffffe8
    a35c:	e3a02018 	mov	r2, #24
    a360:	e0030392 	mul	r3, r2, r3
    a364:	e59f20b0 	ldr	r2, [pc, #176]	; a41c <sdSendCommand+0x110>
    a368:	e08f2002 	add	r2, pc, r2
    a36c:	e0833002 	add	r3, r3, r2
    a370:	e50b3010 	str	r3, [fp, #-16]
    a374:	e3a03000 	mov	r3, #0
    a378:	e50b3008 	str	r3, [fp, #-8]
    a37c:	e51b3010 	ldr	r3, [fp, #-16]
    a380:	e5d33014 	ldrb	r3, [r3, #20]
    a384:	e2033001 	and	r3, r3, #1
    a388:	e6ef3073 	uxtb	r3, r3
    a38c:	e3530000 	cmp	r3, #0
    a390:	0a000003 	beq	a3a4 <sdSendCommand+0x98>
    a394:	e59f3084 	ldr	r3, [pc, #132]	; a420 <sdSendCommand+0x114>
    a398:	e08f3003 	add	r3, pc, r3
    a39c:	e593303c 	ldr	r3, [r3, #60]	; 0x3c
    a3a0:	e50b3008 	str	r3, [fp, #-8]
    a3a4:	e51b1008 	ldr	r1, [fp, #-8]
    a3a8:	e51b0010 	ldr	r0, [fp, #-16]
    a3ac:	ebfffeb9 	bl	9e98 <sdSendCommandP>
    a3b0:	e1a03000 	mov	r3, r0
    a3b4:	e54b3009 	strb	r3, [fp, #-9]
    a3b8:	e55b3009 	ldrb	r3, [fp, #-9]
    a3bc:	e3530000 	cmp	r3, #0
    a3c0:	0a000001 	beq	a3cc <sdSendCommand+0xc0>
    a3c4:	e55b3009 	ldrb	r3, [fp, #-9]
    a3c8:	ea000010 	b	a410 <sdSendCommand+0x104>
    a3cc:	e51b3018 	ldr	r3, [fp, #-24]	; 0xffffffe8
    a3d0:	e353001f 	cmp	r3, #31
    a3d4:	da00000c 	ble	a40c <sdSendCommand+0x100>
    a3d8:	e59f3044 	ldr	r3, [pc, #68]	; a424 <sdSendCommand+0x118>
    a3dc:	e08f3003 	add	r3, pc, r3
    a3e0:	e593303c 	ldr	r3, [r3, #60]	; 0x3c
    a3e4:	e3530000 	cmp	r3, #0
    a3e8:	0a000007 	beq	a40c <sdSendCommand+0x100>
    a3ec:	e59f3034 	ldr	r3, [pc, #52]	; a428 <sdSendCommand+0x11c>
    a3f0:	e08f3003 	add	r3, pc, r3
    a3f4:	e5933044 	ldr	r3, [r3, #68]	; 0x44
    a3f8:	e2033020 	and	r3, r3, #32
    a3fc:	e3530000 	cmp	r3, #0
    a400:	1a000001 	bne	a40c <sdSendCommand+0x100>
    a404:	e3a03009 	mov	r3, #9
    a408:	ea000000 	b	a410 <sdSendCommand+0x104>
    a40c:	e55b3009 	ldrb	r3, [fp, #-9]
    a410:	e1a00003 	mov	r0, r3
    a414:	e24bd004 	sub	sp, fp, #4
    a418:	e8bd8800 	pop	{fp, pc}
    a41c:	0000bc38 	andeq	fp, r0, r8, lsr ip
    a420:	0000c690 	muleq	r0, r0, r6
    a424:	0000c64c 	andeq	ip, r0, ip, asr #12
    a428:	0000c638 	andeq	ip, r0, r8, lsr r6

0000a42c <sdSendCommandA>:
    a42c:	e92d4800 	push	{fp, lr}
    a430:	e28db004 	add	fp, sp, #4
    a434:	e24dd010 	sub	sp, sp, #16
    a438:	e50b0010 	str	r0, [fp, #-16]
    a43c:	e50b1014 	str	r1, [fp, #-20]	; 0xffffffec
    a440:	e51b3010 	ldr	r3, [fp, #-16]
    a444:	e353001f 	cmp	r3, #31
    a448:	da00000b 	ble	a47c <sdSendCommandA+0x50>
    a44c:	ebffff7c 	bl	a244 <sdSendAppCommand>
    a450:	e1a03000 	mov	r3, r0
    a454:	e54b3005 	strb	r3, [fp, #-5]
    a458:	e55b3005 	ldrb	r3, [fp, #-5]
    a45c:	e3530000 	cmp	r3, #0
    a460:	0a000005 	beq	a47c <sdSendCommandA+0x50>
    a464:	e55b3005 	ldrb	r3, [fp, #-5]
    a468:	e1a00003 	mov	r0, r3
    a46c:	ebfffb37 	bl	9150 <sdDebugResponse>
    a470:	e1a03000 	mov	r3, r0
    a474:	e6ef3073 	uxtb	r3, r3
    a478:	ea000020 	b	a500 <sdSendCommandA+0xd4>
    a47c:	e51b3010 	ldr	r3, [fp, #-16]
    a480:	e3a02018 	mov	r2, #24
    a484:	e0030392 	mul	r3, r2, r3
    a488:	e59f207c 	ldr	r2, [pc, #124]	; a50c <sdSendCommandA+0xe0>
    a48c:	e08f2002 	add	r2, pc, r2
    a490:	e0833002 	add	r3, r3, r2
    a494:	e51b1014 	ldr	r1, [fp, #-20]	; 0xffffffec
    a498:	e1a00003 	mov	r0, r3
    a49c:	ebfffe7d 	bl	9e98 <sdSendCommandP>
    a4a0:	e1a03000 	mov	r3, r0
    a4a4:	e54b3005 	strb	r3, [fp, #-5]
    a4a8:	e55b3005 	ldrb	r3, [fp, #-5]
    a4ac:	e3530000 	cmp	r3, #0
    a4b0:	0a000001 	beq	a4bc <sdSendCommandA+0x90>
    a4b4:	e55b3005 	ldrb	r3, [fp, #-5]
    a4b8:	ea000010 	b	a500 <sdSendCommandA+0xd4>
    a4bc:	e51b3010 	ldr	r3, [fp, #-16]
    a4c0:	e353001f 	cmp	r3, #31
    a4c4:	da00000c 	ble	a4fc <sdSendCommandA+0xd0>
    a4c8:	e59f3040 	ldr	r3, [pc, #64]	; a510 <sdSendCommandA+0xe4>
    a4cc:	e08f3003 	add	r3, pc, r3
    a4d0:	e593303c 	ldr	r3, [r3, #60]	; 0x3c
    a4d4:	e3530000 	cmp	r3, #0
    a4d8:	0a000007 	beq	a4fc <sdSendCommandA+0xd0>
    a4dc:	e59f3030 	ldr	r3, [pc, #48]	; a514 <sdSendCommandA+0xe8>
    a4e0:	e08f3003 	add	r3, pc, r3
    a4e4:	e5933044 	ldr	r3, [r3, #68]	; 0x44
    a4e8:	e2033020 	and	r3, r3, #32
    a4ec:	e3530000 	cmp	r3, #0
    a4f0:	1a000001 	bne	a4fc <sdSendCommandA+0xd0>
    a4f4:	e3a03009 	mov	r3, #9
    a4f8:	ea000000 	b	a500 <sdSendCommandA+0xd4>
    a4fc:	e55b3005 	ldrb	r3, [fp, #-5]
    a500:	e1a00003 	mov	r0, r3
    a504:	e24bd004 	sub	sp, fp, #4
    a508:	e8bd8800 	pop	{fp, pc}
    a50c:	0000bb14 	andeq	fp, r0, r4, lsl fp
    a510:	0000c55c 	andeq	ip, r0, ip, asr r5
    a514:	0000c548 	andeq	ip, r0, r8, asr #10

0000a518 <sdReadSCR>:
    a518:	e92d4830 	push	{r4, r5, fp, lr}
    a51c:	e28db00c 	add	fp, sp, #12
    a520:	e24dd010 	sub	sp, sp, #16
    a524:	e59f4290 	ldr	r4, [pc, #656]	; a7bc <sdReadSCR+0x2a4>
    a528:	e08f4004 	add	r4, pc, r4
    a52c:	ebfffc1f 	bl	95b0 <sdWaitForData>
    a530:	e1a03000 	mov	r3, r0
    a534:	e3530000 	cmp	r3, #0
    a538:	0a000001 	beq	a544 <sdReadSCR+0x2c>
    a53c:	e3a03002 	mov	r3, #2
    a540:	ea00009a 	b	a7b0 <sdReadSCR+0x298>
    a544:	e59f3274 	ldr	r3, [pc, #628]	; a7c0 <sdReadSCR+0x2a8>
    a548:	e7943003 	ldr	r3, [r4, r3]
    a54c:	e5933000 	ldr	r3, [r3]
    a550:	e2833603 	add	r3, r3, #3145728	; 0x300000
    a554:	e2833004 	add	r3, r3, #4
    a558:	e1a02003 	mov	r2, r3
    a55c:	e5923000 	ldr	r3, [r2]
    a560:	e3a01001 	mov	r1, #1
    a564:	e7df3811 	bfi	r3, r1, #16, #16
    a568:	e5823000 	str	r3, [r2]
    a56c:	e59f324c 	ldr	r3, [pc, #588]	; a7c0 <sdReadSCR+0x2a8>
    a570:	e7943003 	ldr	r3, [r4, r3]
    a574:	e5933000 	ldr	r3, [r3]
    a578:	e2833603 	add	r3, r3, #3145728	; 0x300000
    a57c:	e2833004 	add	r3, r3, #4
    a580:	e1a02003 	mov	r2, r3
    a584:	e5923000 	ldr	r3, [r2]
    a588:	e3a01008 	mov	r1, #8
    a58c:	e7c93011 	bfi	r3, r1, #0, #10
    a590:	e5823000 	str	r3, [r2]
    a594:	e3a00026 	mov	r0, #38	; 0x26
    a598:	ebffff5b 	bl	a30c <sdSendCommand>
    a59c:	e1a03000 	mov	r3, r0
    a5a0:	e50b3018 	str	r3, [fp, #-24]	; 0xffffffe8
    a5a4:	e51b3018 	ldr	r3, [fp, #-24]	; 0xffffffe8
    a5a8:	e3530000 	cmp	r3, #0
    a5ac:	0a000004 	beq	a5c4 <sdReadSCR+0xac>
    a5b0:	e51b0018 	ldr	r0, [fp, #-24]	; 0xffffffe8
    a5b4:	ebfffae5 	bl	9150 <sdDebugResponse>
    a5b8:	e1a03000 	mov	r3, r0
    a5bc:	e6ef3073 	uxtb	r3, r3
    a5c0:	ea00007a 	b	a7b0 <sdReadSCR+0x298>
    a5c4:	e3a00020 	mov	r0, #32
    a5c8:	ebfffae9 	bl	9174 <sdWaitForInterrupt>
    a5cc:	e1a03000 	mov	r3, r0
    a5d0:	e50b3018 	str	r3, [fp, #-24]	; 0xffffffe8
    a5d4:	e51b3018 	ldr	r3, [fp, #-24]	; 0xffffffe8
    a5d8:	e3530000 	cmp	r3, #0
    a5dc:	0a000010 	beq	a624 <sdReadSCR+0x10c>
    a5e0:	e59f31dc 	ldr	r3, [pc, #476]	; a7c4 <sdReadSCR+0x2ac>
    a5e4:	e7943003 	ldr	r3, [r4, r3]
    a5e8:	e5933000 	ldr	r3, [r3]
    a5ec:	e3530000 	cmp	r3, #0
    a5f0:	0a000006 	beq	a610 <sdReadSCR+0xf8>
    a5f4:	e59f31c8 	ldr	r3, [pc, #456]	; a7c4 <sdReadSCR+0x2ac>
    a5f8:	e7943003 	ldr	r3, [r4, r3]
    a5fc:	e5933000 	ldr	r3, [r3]
    a600:	e59f21c0 	ldr	r2, [pc, #448]	; a7c8 <sdReadSCR+0x2b0>
    a604:	e08f2002 	add	r2, pc, r2
    a608:	e1a00002 	mov	r0, r2
    a60c:	e12fff33 	blx	r3
    a610:	e51b0018 	ldr	r0, [fp, #-24]	; 0xffffffe8
    a614:	ebfffacd 	bl	9150 <sdDebugResponse>
    a618:	e1a03000 	mov	r3, r0
    a61c:	e6ef3073 	uxtb	r3, r3
    a620:	ea000062 	b	a7b0 <sdReadSCR+0x298>
    a624:	e3a03000 	mov	r3, #0
    a628:	e50b3010 	str	r3, [fp, #-16]
    a62c:	e30836a0 	movw	r3, #34464	; 0x86a0
    a630:	e3403001 	movt	r3, #1
    a634:	e50b3014 	str	r3, [fp, #-20]	; 0xffffffec
    a638:	ea00002c 	b	a6f0 <sdReadSCR+0x1d8>
    a63c:	e59f317c 	ldr	r3, [pc, #380]	; a7c0 <sdReadSCR+0x2a8>
    a640:	e7943003 	ldr	r3, [r4, r3]
    a644:	e5933000 	ldr	r3, [r3]
    a648:	e2833603 	add	r3, r3, #3145728	; 0x300000
    a64c:	e2833024 	add	r3, r3, #36	; 0x24
    a650:	e5933000 	ldr	r3, [r3]
    a654:	e7e034d3 	ubfx	r3, r3, #9, #1
    a658:	e6ef3073 	uxtb	r3, r3
    a65c:	e3530000 	cmp	r3, #0
    a660:	0a000019 	beq	a6cc <sdReadSCR+0x1b4>
    a664:	e51b3010 	ldr	r3, [fp, #-16]
    a668:	e3530000 	cmp	r3, #0
    a66c:	1a000009 	bne	a698 <sdReadSCR+0x180>
    a670:	e59f3148 	ldr	r3, [pc, #328]	; a7c0 <sdReadSCR+0x2a8>
    a674:	e7943003 	ldr	r3, [r4, r3]
    a678:	e5933000 	ldr	r3, [r3]
    a67c:	e2833603 	add	r3, r3, #3145728	; 0x300000
    a680:	e2833020 	add	r3, r3, #32
    a684:	e5932000 	ldr	r2, [r3]
    a688:	e59f313c 	ldr	r3, [pc, #316]	; a7cc <sdReadSCR+0x2b4>
    a68c:	e08f3003 	add	r3, pc, r3
    a690:	e5832024 	str	r2, [r3, #36]	; 0x24
    a694:	ea000008 	b	a6bc <sdReadSCR+0x1a4>
    a698:	e59f3120 	ldr	r3, [pc, #288]	; a7c0 <sdReadSCR+0x2a8>
    a69c:	e7943003 	ldr	r3, [r4, r3]
    a6a0:	e5933000 	ldr	r3, [r3]
    a6a4:	e2833603 	add	r3, r3, #3145728	; 0x300000
    a6a8:	e2833020 	add	r3, r3, #32
    a6ac:	e5932000 	ldr	r2, [r3]
    a6b0:	e59f3118 	ldr	r3, [pc, #280]	; a7d0 <sdReadSCR+0x2b8>
    a6b4:	e08f3003 	add	r3, pc, r3
    a6b8:	e5832028 	str	r2, [r3, #40]	; 0x28
    a6bc:	e51b3010 	ldr	r3, [fp, #-16]
    a6c0:	e2833001 	add	r3, r3, #1
    a6c4:	e50b3010 	str	r3, [fp, #-16]
    a6c8:	ea000008 	b	a6f0 <sdReadSCR+0x1d8>
    a6cc:	e3a00001 	mov	r0, #1
    a6d0:	e3a01000 	mov	r1, #0
    a6d4:	eb00141a 	bl	f744 <timer_wait>
    a6d8:	e51b3014 	ldr	r3, [fp, #-20]	; 0xffffffec
    a6dc:	e2433001 	sub	r3, r3, #1
    a6e0:	e50b3014 	str	r3, [fp, #-20]	; 0xffffffec
    a6e4:	e51b3014 	ldr	r3, [fp, #-20]	; 0xffffffec
    a6e8:	e3530000 	cmp	r3, #0
    a6ec:	0a000003 	beq	a700 <sdReadSCR+0x1e8>
    a6f0:	e51b3010 	ldr	r3, [fp, #-16]
    a6f4:	e3530001 	cmp	r3, #1
    a6f8:	daffffcf 	ble	a63c <sdReadSCR+0x124>
    a6fc:	ea000000 	b	a704 <sdReadSCR+0x1ec>
    a700:	e320f000 	nop	{0}
    a704:	e51b3010 	ldr	r3, [fp, #-16]
    a708:	e3530002 	cmp	r3, #2
    a70c:	0a000026 	beq	a7ac <sdReadSCR+0x294>
    a710:	e59f30ac 	ldr	r3, [pc, #172]	; a7c4 <sdReadSCR+0x2ac>
    a714:	e7943003 	ldr	r3, [r4, r3]
    a718:	e5933000 	ldr	r3, [r3]
    a71c:	e3530000 	cmp	r3, #0
    a720:	0a00001f 	beq	a7a4 <sdReadSCR+0x28c>
    a724:	e59f3098 	ldr	r3, [pc, #152]	; a7c4 <sdReadSCR+0x2ac>
    a728:	e7943003 	ldr	r3, [r4, r3]
    a72c:	e5935000 	ldr	r5, [r3]
    a730:	e59f3088 	ldr	r3, [pc, #136]	; a7c0 <sdReadSCR+0x2a8>
    a734:	e7943003 	ldr	r3, [r4, r3]
    a738:	e5933000 	ldr	r3, [r3]
    a73c:	e2833603 	add	r3, r3, #3145728	; 0x300000
    a740:	e2833024 	add	r3, r3, #36	; 0x24
    a744:	e5931000 	ldr	r1, [r3]
    a748:	e59f3070 	ldr	r3, [pc, #112]	; a7c0 <sdReadSCR+0x2a8>
    a74c:	e7943003 	ldr	r3, [r4, r3]
    a750:	e5933000 	ldr	r3, [r3]
    a754:	e2833603 	add	r3, r3, #3145728	; 0x300000
    a758:	e2833030 	add	r3, r3, #48	; 0x30
    a75c:	e5932000 	ldr	r2, [r3]
    a760:	e59f3058 	ldr	r3, [pc, #88]	; a7c0 <sdReadSCR+0x2a8>
    a764:	e7943003 	ldr	r3, [r4, r3]
    a768:	e5933000 	ldr	r3, [r3]
    a76c:	e2833603 	add	r3, r3, #3145728	; 0x300000
    a770:	e2833010 	add	r3, r3, #16
    a774:	e5933000 	ldr	r3, [r3]
    a778:	e59f0054 	ldr	r0, [pc, #84]	; a7d4 <sdReadSCR+0x2bc>
    a77c:	e08f0000 	add	r0, pc, r0
    a780:	e12fff35 	blx	r5
    a784:	e59f3038 	ldr	r3, [pc, #56]	; a7c4 <sdReadSCR+0x2ac>
    a788:	e7943003 	ldr	r3, [r4, r3]
    a78c:	e5933000 	ldr	r3, [r3]
    a790:	e51b1010 	ldr	r1, [fp, #-16]
    a794:	e59f203c 	ldr	r2, [pc, #60]	; a7d8 <sdReadSCR+0x2c0>
    a798:	e08f2002 	add	r2, pc, r2
    a79c:	e1a00002 	mov	r0, r2
    a7a0:	e12fff33 	blx	r3
    a7a4:	e3a03002 	mov	r3, #2
    a7a8:	ea000000 	b	a7b0 <sdReadSCR+0x298>
    a7ac:	e3a03000 	mov	r3, #0
    a7b0:	e1a00003 	mov	r0, r3
    a7b4:	e24bd00c 	sub	sp, fp, #12
    a7b8:	e8bd8830 	pop	{r4, r5, fp, pc}
    a7bc:	0000be64 	andeq	fp, r0, r4, ror #28
    a7c0:	00000020 	andeq	r0, r0, r0, lsr #32
    a7c4:	0000003c 	andeq	r0, r0, ip, lsr r0
    a7c8:	020bccac 	andeq	ip, fp, #172, 24	; 0xac00
    a7cc:	0000c39c 	muleq	r0, ip, r3
    a7d0:	0000c374 	andeq	ip, r0, r4, ror r3
    a7d4:	020bcb60 	andeq	ip, fp, #96, 22	; 0x18000
    a7d8:	020bcb68 	andeq	ip, fp, #104, 22	; 0x1a000

0000a7dc <fls_uint32_t>:
    a7dc:	e52db004 	push	{fp}		; (str fp, [sp, #-4]!)
    a7e0:	e28db000 	add	fp, sp, #0
    a7e4:	e24dd014 	sub	sp, sp, #20
    a7e8:	e50b0010 	str	r0, [fp, #-16]
    a7ec:	e3a03020 	mov	r3, #32
    a7f0:	e50b3008 	str	r3, [fp, #-8]
    a7f4:	e51b3010 	ldr	r3, [fp, #-16]
    a7f8:	e3530000 	cmp	r3, #0
    a7fc:	1a000001 	bne	a808 <fls_uint32_t+0x2c>
    a800:	e3a03000 	mov	r3, #0
    a804:	ea000032 	b	a8d4 <fls_uint32_t+0xf8>
    a808:	e51b3010 	ldr	r3, [fp, #-16]
    a80c:	e1a03823 	lsr	r3, r3, #16
    a810:	e1a03803 	lsl	r3, r3, #16
    a814:	e3530000 	cmp	r3, #0
    a818:	1a000005 	bne	a834 <fls_uint32_t+0x58>
    a81c:	e51b3010 	ldr	r3, [fp, #-16]
    a820:	e1a03803 	lsl	r3, r3, #16
    a824:	e50b3010 	str	r3, [fp, #-16]
    a828:	e51b3008 	ldr	r3, [fp, #-8]
    a82c:	e2433010 	sub	r3, r3, #16
    a830:	e50b3008 	str	r3, [fp, #-8]
    a834:	e51b3010 	ldr	r3, [fp, #-16]
    a838:	e20334ff 	and	r3, r3, #-16777216	; 0xff000000
    a83c:	e3530000 	cmp	r3, #0
    a840:	1a000005 	bne	a85c <fls_uint32_t+0x80>
    a844:	e51b3010 	ldr	r3, [fp, #-16]
    a848:	e1a03403 	lsl	r3, r3, #8
    a84c:	e50b3010 	str	r3, [fp, #-16]
    a850:	e51b3008 	ldr	r3, [fp, #-8]
    a854:	e2433008 	sub	r3, r3, #8
    a858:	e50b3008 	str	r3, [fp, #-8]
    a85c:	e51b3010 	ldr	r3, [fp, #-16]
    a860:	e203320f 	and	r3, r3, #-268435456	; 0xf0000000
    a864:	e3530000 	cmp	r3, #0
    a868:	1a000005 	bne	a884 <fls_uint32_t+0xa8>
    a86c:	e51b3010 	ldr	r3, [fp, #-16]
    a870:	e1a03203 	lsl	r3, r3, #4
    a874:	e50b3010 	str	r3, [fp, #-16]
    a878:	e51b3008 	ldr	r3, [fp, #-8]
    a87c:	e2433004 	sub	r3, r3, #4
    a880:	e50b3008 	str	r3, [fp, #-8]
    a884:	e51b3010 	ldr	r3, [fp, #-16]
    a888:	e2033103 	and	r3, r3, #-1073741824	; 0xc0000000
    a88c:	e3530000 	cmp	r3, #0
    a890:	1a000005 	bne	a8ac <fls_uint32_t+0xd0>
    a894:	e51b3010 	ldr	r3, [fp, #-16]
    a898:	e1a03103 	lsl	r3, r3, #2
    a89c:	e50b3010 	str	r3, [fp, #-16]
    a8a0:	e51b3008 	ldr	r3, [fp, #-8]
    a8a4:	e2433002 	sub	r3, r3, #2
    a8a8:	e50b3008 	str	r3, [fp, #-8]
    a8ac:	e51b3010 	ldr	r3, [fp, #-16]
    a8b0:	e3530000 	cmp	r3, #0
    a8b4:	ba000005 	blt	a8d0 <fls_uint32_t+0xf4>
    a8b8:	e51b3010 	ldr	r3, [fp, #-16]
    a8bc:	e1a03083 	lsl	r3, r3, #1
    a8c0:	e50b3010 	str	r3, [fp, #-16]
    a8c4:	e51b3008 	ldr	r3, [fp, #-8]
    a8c8:	e2433001 	sub	r3, r3, #1
    a8cc:	e50b3008 	str	r3, [fp, #-8]
    a8d0:	e51b3008 	ldr	r3, [fp, #-8]
    a8d4:	e1a00003 	mov	r0, r3
    a8d8:	e28bd000 	add	sp, fp, #0
    a8dc:	e49db004 	pop	{fp}		; (ldr fp, [sp], #4)
    a8e0:	e12fff1e 	bx	lr

0000a8e4 <sdGetClockDivider>:
    a8e4:	e92d4800 	push	{fp, lr}
    a8e8:	e28db004 	add	fp, sp, #4
    a8ec:	e24dd010 	sub	sp, sp, #16
    a8f0:	e50b0010 	str	r0, [fp, #-16]
    a8f4:	e59f20c8 	ldr	r2, [pc, #200]	; a9c4 <sdGetClockDivider+0xe0>
    a8f8:	e08f2002 	add	r2, pc, r2
    a8fc:	e51b1010 	ldr	r1, [fp, #-16]
    a900:	e30c386a 	movw	r3, #51306	; 0xc86a
    a904:	e340327b 	movt	r3, #635	; 0x27b
    a908:	e0813003 	add	r3, r1, r3
    a90c:	e51b1010 	ldr	r1, [fp, #-16]
    a910:	e733f113 	udiv	r3, r3, r1
    a914:	e50b3008 	str	r3, [fp, #-8]
    a918:	e51b3008 	ldr	r3, [fp, #-8]
    a91c:	e3530b01 	cmp	r3, #1024	; 0x400
    a920:	3a000001 	bcc	a92c <sdGetClockDivider+0x48>
    a924:	e30033ff 	movw	r3, #1023	; 0x3ff
    a928:	e50b3008 	str	r3, [fp, #-8]
    a92c:	e59f3094 	ldr	r3, [pc, #148]	; a9c8 <sdGetClockDivider+0xe4>
    a930:	e7923003 	ldr	r3, [r2, r3]
    a934:	e5933000 	ldr	r3, [r3]
    a938:	e2833603 	add	r3, r3, #3145728	; 0x300000
    a93c:	e28330fc 	add	r3, r3, #252	; 0xfc
    a940:	e5933000 	ldr	r3, [r3]
    a944:	e7e73853 	ubfx	r3, r3, #16, #8
    a948:	e6ef3073 	uxtb	r3, r3
    a94c:	e3530001 	cmp	r3, #1
    a950:	8a000012 	bhi	a9a0 <sdGetClockDivider+0xbc>
    a954:	e51b0008 	ldr	r0, [fp, #-8]
    a958:	ebffff9f 	bl	a7dc <fls_uint32_t>
    a95c:	e50b000c 	str	r0, [fp, #-12]
    a960:	e51b300c 	ldr	r3, [fp, #-12]
    a964:	e3530000 	cmp	r3, #0
    a968:	0a000002 	beq	a978 <sdGetClockDivider+0x94>
    a96c:	e51b300c 	ldr	r3, [fp, #-12]
    a970:	e2433001 	sub	r3, r3, #1
    a974:	e50b300c 	str	r3, [fp, #-12]
    a978:	e51b300c 	ldr	r3, [fp, #-12]
    a97c:	e3530007 	cmp	r3, #7
    a980:	9a000001 	bls	a98c <sdGetClockDivider+0xa8>
    a984:	e3a03007 	mov	r3, #7
    a988:	e50b300c 	str	r3, [fp, #-12]
    a98c:	e3a02001 	mov	r2, #1
    a990:	e51b300c 	ldr	r3, [fp, #-12]
    a994:	e1a03312 	lsl	r3, r2, r3
    a998:	e50b3008 	str	r3, [fp, #-8]
    a99c:	ea000004 	b	a9b4 <sdGetClockDivider+0xd0>
    a9a0:	e51b3008 	ldr	r3, [fp, #-8]
    a9a4:	e3530002 	cmp	r3, #2
    a9a8:	8a000001 	bhi	a9b4 <sdGetClockDivider+0xd0>
    a9ac:	e3a03004 	mov	r3, #4
    a9b0:	e50b3008 	str	r3, [fp, #-8]
    a9b4:	e51b3008 	ldr	r3, [fp, #-8]
    a9b8:	e1a00003 	mov	r0, r3
    a9bc:	e24bd004 	sub	sp, fp, #4
    a9c0:	e8bd8800 	pop	{fp, pc}
    a9c4:	0000ba94 	muleq	r0, r4, sl
    a9c8:	00000020 	andeq	r0, r0, r0, lsr #32

0000a9cc <sdSetClock>:
    a9cc:	e92d4810 	push	{r4, fp, lr}
    a9d0:	e28db008 	add	fp, sp, #8
    a9d4:	e24dd02c 	sub	sp, sp, #44	; 0x2c
    a9d8:	e50b0030 	str	r0, [fp, #-48]	; 0xffffffd0
    a9dc:	e59f42ec 	ldr	r4, [pc, #748]	; acd0 <sdSetClock+0x304>
    a9e0:	e08f4004 	add	r4, pc, r4
    a9e4:	e3a02000 	mov	r2, #0
    a9e8:	e3a03000 	mov	r3, #0
    a9ec:	e14b21f4 	strd	r2, [fp, #-20]	; 0xffffffec
    a9f0:	e3a02000 	mov	r2, #0
    a9f4:	e3a03000 	mov	r3, #0
    a9f8:	e14b21fc 	strd	r2, [fp, #-28]	; 0xffffffe4
    a9fc:	ea00000b 	b	aa30 <sdSetClock+0x64>
    aa00:	e14b21dc 	ldrd	r2, [fp, #-28]	; 0xffffffe4
    aa04:	e1923003 	orrs	r3, r2, r3
    aa08:	1a000002 	bne	aa18 <sdSetClock+0x4c>
    aa0c:	eb00131b 	bl	f680 <timer_getTickCount>
    aa10:	e14b01fc 	strd	r0, [fp, #-28]	; 0xffffffe4
    aa14:	ea000005 	b	aa30 <sdSetClock+0x64>
    aa18:	eb001318 	bl	f680 <timer_getTickCount>
    aa1c:	e1a02000 	mov	r2, r0
    aa20:	e1a03001 	mov	r3, r1
    aa24:	e14b01dc 	ldrd	r0, [fp, #-28]	; 0xffffffe4
    aa28:	eb001356 	bl	f788 <tick_difference>
    aa2c:	e14b01f4 	strd	r0, [fp, #-20]	; 0xffffffec
    aa30:	e59f329c 	ldr	r3, [pc, #668]	; acd4 <sdSetClock+0x308>
    aa34:	e7943003 	ldr	r3, [r4, r3]
    aa38:	e5933000 	ldr	r3, [r3]
    aa3c:	e2833603 	add	r3, r3, #3145728	; 0x300000
    aa40:	e2833024 	add	r3, r3, #36	; 0x24
    aa44:	e5933000 	ldr	r3, [r3]
    aa48:	e7e03053 	ubfx	r3, r3, #0, #1
    aa4c:	e6ef3073 	uxtb	r3, r3
    aa50:	e3530000 	cmp	r3, #0
    aa54:	1a000009 	bne	aa80 <sdSetClock+0xb4>
    aa58:	e59f3274 	ldr	r3, [pc, #628]	; acd4 <sdSetClock+0x308>
    aa5c:	e7943003 	ldr	r3, [r4, r3]
    aa60:	e5933000 	ldr	r3, [r3]
    aa64:	e2833603 	add	r3, r3, #3145728	; 0x300000
    aa68:	e2833024 	add	r3, r3, #36	; 0x24
    aa6c:	e5933000 	ldr	r3, [r3]
    aa70:	e7e030d3 	ubfx	r3, r3, #1, #1
    aa74:	e6ef3073 	uxtb	r3, r3
    aa78:	e3530000 	cmp	r3, #0
    aa7c:	0a000005 	beq	aa98 <sdSetClock+0xcc>
    aa80:	e14b21d4 	ldrd	r2, [fp, #-20]	; 0xffffffec
    aa84:	e28f1f8f 	add	r1, pc, #572	; 0x23c
    aa88:	e1c100d0 	ldrd	r0, [r1]
    aa8c:	e1530001 	cmp	r3, r1
    aa90:	01520000 	cmpeq	r2, r0
    aa94:	9affffd9 	bls	aa00 <sdSetClock+0x34>
    aa98:	e14b21d4 	ldrd	r2, [fp, #-20]	; 0xffffffec
    aa9c:	e28f1f89 	add	r1, pc, #548	; 0x224
    aaa0:	e1c100d0 	ldrd	r0, [r1]
    aaa4:	e1530001 	cmp	r3, r1
    aaa8:	01520000 	cmpeq	r2, r0
    aaac:	9a000014 	bls	ab04 <sdSetClock+0x138>
    aab0:	e59f3220 	ldr	r3, [pc, #544]	; acd8 <sdSetClock+0x30c>
    aab4:	e7943003 	ldr	r3, [r4, r3]
    aab8:	e5933000 	ldr	r3, [r3]
    aabc:	e3530000 	cmp	r3, #0
    aac0:	0a00000d 	beq	aafc <sdSetClock+0x130>
    aac4:	e59f320c 	ldr	r3, [pc, #524]	; acd8 <sdSetClock+0x30c>
    aac8:	e7943003 	ldr	r3, [r4, r3]
    aacc:	e5932000 	ldr	r2, [r3]
    aad0:	e59f31fc 	ldr	r3, [pc, #508]	; acd4 <sdSetClock+0x308>
    aad4:	e7943003 	ldr	r3, [r4, r3]
    aad8:	e5933000 	ldr	r3, [r3]
    aadc:	e2833603 	add	r3, r3, #3145728	; 0x300000
    aae0:	e2833024 	add	r3, r3, #36	; 0x24
    aae4:	e5933000 	ldr	r3, [r3]
    aae8:	e1a01003 	mov	r1, r3
    aaec:	e59f31e8 	ldr	r3, [pc, #488]	; acdc <sdSetClock+0x310>
    aaf0:	e08f3003 	add	r3, pc, r3
    aaf4:	e1a00003 	mov	r0, r3
    aaf8:	e12fff32 	blx	r2
    aafc:	e3a03007 	mov	r3, #7
    ab00:	ea00006d 	b	acbc <sdSetClock+0x2f0>
    ab04:	e59f31c8 	ldr	r3, [pc, #456]	; acd4 <sdSetClock+0x308>
    ab08:	e7943003 	ldr	r3, [r4, r3]
    ab0c:	e5933000 	ldr	r3, [r3]
    ab10:	e2833603 	add	r3, r3, #3145728	; 0x300000
    ab14:	e283302c 	add	r3, r3, #44	; 0x2c
    ab18:	e1a02003 	mov	r2, r3
    ab1c:	e5923000 	ldr	r3, [r2]
    ab20:	e7c2311f 	bfc	r3, #2, #1
    ab24:	e5823000 	str	r3, [r2]
    ab28:	e3a0000a 	mov	r0, #10
    ab2c:	e3a01000 	mov	r1, #0
    ab30:	eb001303 	bl	f744 <timer_wait>
    ab34:	e51b0030 	ldr	r0, [fp, #-48]	; 0xffffffd0
    ab38:	ebffff69 	bl	a8e4 <sdGetClockDivider>
    ab3c:	e50b0020 	str	r0, [fp, #-32]	; 0xffffffe0
    ab40:	e51b3020 	ldr	r3, [fp, #-32]	; 0xffffffe0
    ab44:	e1a03403 	lsl	r3, r3, #8
    ab48:	e6ff3073 	uxth	r3, r3
    ab4c:	e50b3024 	str	r3, [fp, #-36]	; 0xffffffdc
    ab50:	e51b3020 	ldr	r3, [fp, #-32]	; 0xffffffe0
    ab54:	e1a03123 	lsr	r3, r3, #2
    ab58:	e20330c0 	and	r3, r3, #192	; 0xc0
    ab5c:	e50b3028 	str	r3, [fp, #-40]	; 0xffffffd8
    ab60:	e59f316c 	ldr	r3, [pc, #364]	; acd4 <sdSetClock+0x308>
    ab64:	e7943003 	ldr	r3, [r4, r3]
    ab68:	e5933000 	ldr	r3, [r3]
    ab6c:	e2833603 	add	r3, r3, #3145728	; 0x300000
    ab70:	e283302c 	add	r3, r3, #44	; 0x2c
    ab74:	e5933000 	ldr	r3, [r3]
    ab78:	e3c33cff 	bic	r3, r3, #65280	; 0xff00
    ab7c:	e3c330e0 	bic	r3, r3, #224	; 0xe0
    ab80:	e51b2024 	ldr	r2, [fp, #-36]	; 0xffffffdc
    ab84:	e1832002 	orr	r2, r3, r2
    ab88:	e59f3144 	ldr	r3, [pc, #324]	; acd4 <sdSetClock+0x308>
    ab8c:	e7943003 	ldr	r3, [r4, r3]
    ab90:	e5933000 	ldr	r3, [r3]
    ab94:	e2833603 	add	r3, r3, #3145728	; 0x300000
    ab98:	e283302c 	add	r3, r3, #44	; 0x2c
    ab9c:	e1a01003 	mov	r1, r3
    aba0:	e51b3028 	ldr	r3, [fp, #-40]	; 0xffffffd8
    aba4:	e1823003 	orr	r3, r2, r3
    aba8:	e5813000 	str	r3, [r1]
    abac:	e3a0000a 	mov	r0, #10
    abb0:	e3a01000 	mov	r1, #0
    abb4:	eb0012e2 	bl	f744 <timer_wait>
    abb8:	e59f3114 	ldr	r3, [pc, #276]	; acd4 <sdSetClock+0x308>
    abbc:	e7943003 	ldr	r3, [r4, r3]
    abc0:	e5933000 	ldr	r3, [r3]
    abc4:	e2833603 	add	r3, r3, #3145728	; 0x300000
    abc8:	e283302c 	add	r3, r3, #44	; 0x2c
    abcc:	e1a02003 	mov	r2, r3
    abd0:	e5923000 	ldr	r3, [r2]
    abd4:	e3833004 	orr	r3, r3, #4
    abd8:	e5823000 	str	r3, [r2]
    abdc:	e3a02000 	mov	r2, #0
    abe0:	e3a03000 	mov	r3, #0
    abe4:	e14b21f4 	strd	r2, [fp, #-20]	; 0xffffffec
    abe8:	e3a02000 	mov	r2, #0
    abec:	e3a03000 	mov	r3, #0
    abf0:	e14b21fc 	strd	r2, [fp, #-28]	; 0xffffffe4
    abf4:	ea00000b 	b	ac28 <sdSetClock+0x25c>
    abf8:	e14b21dc 	ldrd	r2, [fp, #-28]	; 0xffffffe4
    abfc:	e1923003 	orrs	r3, r2, r3
    ac00:	1a000002 	bne	ac10 <sdSetClock+0x244>
    ac04:	eb00129d 	bl	f680 <timer_getTickCount>
    ac08:	e14b01fc 	strd	r0, [fp, #-28]	; 0xffffffe4
    ac0c:	ea000005 	b	ac28 <sdSetClock+0x25c>
    ac10:	eb00129a 	bl	f680 <timer_getTickCount>
    ac14:	e1a02000 	mov	r2, r0
    ac18:	e1a03001 	mov	r3, r1
    ac1c:	e14b01dc 	ldrd	r0, [fp, #-28]	; 0xffffffe4
    ac20:	eb0012d8 	bl	f788 <tick_difference>
    ac24:	e14b01f4 	strd	r0, [fp, #-20]	; 0xffffffec
    ac28:	e59f30a4 	ldr	r3, [pc, #164]	; acd4 <sdSetClock+0x308>
    ac2c:	e7943003 	ldr	r3, [r4, r3]
    ac30:	e5933000 	ldr	r3, [r3]
    ac34:	e2833603 	add	r3, r3, #3145728	; 0x300000
    ac38:	e283302c 	add	r3, r3, #44	; 0x2c
    ac3c:	e5933000 	ldr	r3, [r3]
    ac40:	e7e030d3 	ubfx	r3, r3, #1, #1
    ac44:	e6ef3073 	uxtb	r3, r3
    ac48:	e3530000 	cmp	r3, #0
    ac4c:	1a000005 	bne	ac68 <sdSetClock+0x29c>
    ac50:	e14b21d4 	ldrd	r2, [fp, #-20]	; 0xffffffec
    ac54:	e28f106c 	add	r1, pc, #108	; 0x6c
    ac58:	e1c100d0 	ldrd	r0, [r1]
    ac5c:	e1530001 	cmp	r3, r1
    ac60:	01520000 	cmpeq	r2, r0
    ac64:	9affffe3 	bls	abf8 <sdSetClock+0x22c>
    ac68:	e14b21d4 	ldrd	r2, [fp, #-20]	; 0xffffffec
    ac6c:	e28f1054 	add	r1, pc, #84	; 0x54
    ac70:	e1c100d0 	ldrd	r0, [r1]
    ac74:	e1530001 	cmp	r3, r1
    ac78:	01520000 	cmpeq	r2, r0
    ac7c:	9a00000d 	bls	acb8 <sdSetClock+0x2ec>
    ac80:	e59f3050 	ldr	r3, [pc, #80]	; acd8 <sdSetClock+0x30c>
    ac84:	e7943003 	ldr	r3, [r4, r3]
    ac88:	e5933000 	ldr	r3, [r3]
    ac8c:	e3530000 	cmp	r3, #0
    ac90:	0a000006 	beq	acb0 <sdSetClock+0x2e4>
    ac94:	e59f303c 	ldr	r3, [pc, #60]	; acd8 <sdSetClock+0x30c>
    ac98:	e7943003 	ldr	r3, [r4, r3]
    ac9c:	e5933000 	ldr	r3, [r3]
    aca0:	e59f2038 	ldr	r2, [pc, #56]	; ace0 <sdSetClock+0x314>
    aca4:	e08f2002 	add	r2, pc, r2
    aca8:	e1a00002 	mov	r0, r2
    acac:	e12fff33 	blx	r3
    acb0:	e3a03007 	mov	r3, #7
    acb4:	ea000000 	b	acbc <sdSetClock+0x2f0>
    acb8:	e3a03000 	mov	r3, #0
    acbc:	e1a00003 	mov	r0, r3
    acc0:	e24bd008 	sub	sp, fp, #8
    acc4:	e8bd8810 	pop	{r4, fp, pc}
    acc8:	0001869f 	muleq	r1, pc, r6	; <UNPREDICTABLE>
    accc:	00000000 	andeq	r0, r0, r0
    acd0:	0000b9ac 	andeq	fp, r0, ip, lsr #19
    acd4:	00000020 	andeq	r0, r0, r0, lsr #32
    acd8:	0000003c 	andeq	r0, r0, ip, lsr r0
    acdc:	020bc838 	andeq	ip, fp, #56, 16	; 0x380000
    ace0:	020bc6c8 	andeq	ip, fp, #200, 12	; 0xc800000

0000ace4 <sdResetCard>:
    ace4:	e92d4810 	push	{r4, fp, lr}
    ace8:	e28db008 	add	fp, sp, #8
    acec:	e24dd01c 	sub	sp, sp, #28
    acf0:	e59f4288 	ldr	r4, [pc, #648]	; af80 <sdResetCard+0x29c>
    acf4:	e08f4004 	add	r4, pc, r4
    acf8:	e3a02000 	mov	r2, #0
    acfc:	e3a03000 	mov	r3, #0
    ad00:	e14b21f4 	strd	r2, [fp, #-20]	; 0xffffffec
    ad04:	e3a02000 	mov	r2, #0
    ad08:	e3a03000 	mov	r3, #0
    ad0c:	e14b21fc 	strd	r2, [fp, #-28]	; 0xffffffe4
    ad10:	e59f326c 	ldr	r3, [pc, #620]	; af84 <sdResetCard+0x2a0>
    ad14:	e7943003 	ldr	r3, [r4, r3]
    ad18:	e5933000 	ldr	r3, [r3]
    ad1c:	e2833603 	add	r3, r3, #3145728	; 0x300000
    ad20:	e2833028 	add	r3, r3, #40	; 0x28
    ad24:	e1a02003 	mov	r2, r3
    ad28:	e3a03000 	mov	r3, #0
    ad2c:	e5823000 	str	r3, [r2]
    ad30:	e59f324c 	ldr	r3, [pc, #588]	; af84 <sdResetCard+0x2a0>
    ad34:	e7943003 	ldr	r3, [r4, r3]
    ad38:	e5933000 	ldr	r3, [r3]
    ad3c:	e2833603 	add	r3, r3, #3145728	; 0x300000
    ad40:	e283302c 	add	r3, r3, #44	; 0x2c
    ad44:	e1a02003 	mov	r2, r3
    ad48:	e3a03000 	mov	r3, #0
    ad4c:	e5823000 	str	r3, [r2]
    ad50:	e59f322c 	ldr	r3, [pc, #556]	; af84 <sdResetCard+0x2a0>
    ad54:	e7943003 	ldr	r3, [r4, r3]
    ad58:	e5933000 	ldr	r3, [r3]
    ad5c:	e2833603 	add	r3, r3, #3145728	; 0x300000
    ad60:	e283302c 	add	r3, r3, #44	; 0x2c
    ad64:	e1a02003 	mov	r2, r3
    ad68:	e5923000 	ldr	r3, [r2]
    ad6c:	e3833401 	orr	r3, r3, #16777216	; 0x1000000
    ad70:	e5823000 	str	r3, [r2]
    ad74:	e3a0000a 	mov	r0, #10
    ad78:	e3a01000 	mov	r1, #0
    ad7c:	eb001270 	bl	f744 <timer_wait>
    ad80:	ea00000b 	b	adb4 <sdResetCard+0xd0>
    ad84:	e14b21dc 	ldrd	r2, [fp, #-28]	; 0xffffffe4
    ad88:	e1923003 	orrs	r3, r2, r3
    ad8c:	1a000002 	bne	ad9c <sdResetCard+0xb8>
    ad90:	eb00123a 	bl	f680 <timer_getTickCount>
    ad94:	e14b01fc 	strd	r0, [fp, #-28]	; 0xffffffe4
    ad98:	ea000005 	b	adb4 <sdResetCard+0xd0>
    ad9c:	eb001237 	bl	f680 <timer_getTickCount>
    ada0:	e1a02000 	mov	r2, r0
    ada4:	e1a03001 	mov	r3, r1
    ada8:	e14b01dc 	ldrd	r0, [fp, #-28]	; 0xffffffe4
    adac:	eb001275 	bl	f788 <tick_difference>
    adb0:	e14b01f4 	strd	r0, [fp, #-20]	; 0xffffffec
    adb4:	e59f31c8 	ldr	r3, [pc, #456]	; af84 <sdResetCard+0x2a0>
    adb8:	e7943003 	ldr	r3, [r4, r3]
    adbc:	e5933000 	ldr	r3, [r3]
    adc0:	e2833603 	add	r3, r3, #3145728	; 0x300000
    adc4:	e283302c 	add	r3, r3, #44	; 0x2c
    adc8:	e5933000 	ldr	r3, [r3]
    adcc:	e7e03c53 	ubfx	r3, r3, #24, #1
    add0:	e6ef3073 	uxtb	r3, r3
    add4:	e3530000 	cmp	r3, #0
    add8:	0a000005 	beq	adf4 <sdResetCard+0x110>
    addc:	e14b21d4 	ldrd	r2, [fp, #-20]	; 0xffffffec
    ade0:	e28f1e19 	add	r1, pc, #400	; 0x190
    ade4:	e1c100d0 	ldrd	r0, [r1]
    ade8:	e1530001 	cmp	r3, r1
    adec:	01520000 	cmpeq	r2, r0
    adf0:	9affffe3 	bls	ad84 <sdResetCard+0xa0>
    adf4:	e14b21d4 	ldrd	r2, [fp, #-20]	; 0xffffffec
    adf8:	e28f1f5e 	add	r1, pc, #376	; 0x178
    adfc:	e1c100d0 	ldrd	r0, [r1]
    ae00:	e1530001 	cmp	r3, r1
    ae04:	01520000 	cmpeq	r2, r0
    ae08:	9a00000d 	bls	ae44 <sdResetCard+0x160>
    ae0c:	e59f3174 	ldr	r3, [pc, #372]	; af88 <sdResetCard+0x2a4>
    ae10:	e7943003 	ldr	r3, [r4, r3]
    ae14:	e5933000 	ldr	r3, [r3]
    ae18:	e3530000 	cmp	r3, #0
    ae1c:	0a000006 	beq	ae3c <sdResetCard+0x158>
    ae20:	e59f3160 	ldr	r3, [pc, #352]	; af88 <sdResetCard+0x2a4>
    ae24:	e7943003 	ldr	r3, [r4, r3]
    ae28:	e5933000 	ldr	r3, [r3]
    ae2c:	e59f2158 	ldr	r2, [pc, #344]	; af8c <sdResetCard+0x2a8>
    ae30:	e08f2002 	add	r2, pc, r2
    ae34:	e1a00002 	mov	r0, r2
    ae38:	e12fff33 	blx	r3
    ae3c:	e3a03006 	mov	r3, #6
    ae40:	ea000048 	b	af68 <sdResetCard+0x284>
    ae44:	e59f3138 	ldr	r3, [pc, #312]	; af84 <sdResetCard+0x2a0>
    ae48:	e7943003 	ldr	r3, [r4, r3]
    ae4c:	e5933000 	ldr	r3, [r3]
    ae50:	e2833603 	add	r3, r3, #3145728	; 0x300000
    ae54:	e283302c 	add	r3, r3, #44	; 0x2c
    ae58:	e1a02003 	mov	r2, r3
    ae5c:	e5923000 	ldr	r3, [r2]
    ae60:	e3a0100e 	mov	r1, #14
    ae64:	e7d33811 	bfi	r3, r1, #16, #4
    ae68:	e5823000 	str	r3, [r2]
    ae6c:	e59f3110 	ldr	r3, [pc, #272]	; af84 <sdResetCard+0x2a0>
    ae70:	e7943003 	ldr	r3, [r4, r3]
    ae74:	e5933000 	ldr	r3, [r3]
    ae78:	e2833603 	add	r3, r3, #3145728	; 0x300000
    ae7c:	e283302c 	add	r3, r3, #44	; 0x2c
    ae80:	e1a02003 	mov	r2, r3
    ae84:	e5923000 	ldr	r3, [r2]
    ae88:	e3833001 	orr	r3, r3, #1
    ae8c:	e5823000 	str	r3, [r2]
    ae90:	e3a0000a 	mov	r0, #10
    ae94:	e3a01000 	mov	r1, #0
    ae98:	eb001229 	bl	f744 <timer_wait>
    ae9c:	e3a00d6a 	mov	r0, #6784	; 0x1a80
    aea0:	e3400006 	movt	r0, #6
    aea4:	ebfffec8 	bl	a9cc <sdSetClock>
    aea8:	e1a03000 	mov	r3, r0
    aeac:	e54b301d 	strb	r3, [fp, #-29]	; 0xffffffe3
    aeb0:	e55b301d 	ldrb	r3, [fp, #-29]	; 0xffffffe3
    aeb4:	e3530000 	cmp	r3, #0
    aeb8:	0a000001 	beq	aec4 <sdResetCard+0x1e0>
    aebc:	e55b301d 	ldrb	r3, [fp, #-29]	; 0xffffffe3
    aec0:	ea000028 	b	af68 <sdResetCard+0x284>
    aec4:	e59f30b8 	ldr	r3, [pc, #184]	; af84 <sdResetCard+0x2a0>
    aec8:	e7943003 	ldr	r3, [r4, r3]
    aecc:	e5933000 	ldr	r3, [r3]
    aed0:	e2833603 	add	r3, r3, #3145728	; 0x300000
    aed4:	e2833038 	add	r3, r3, #56	; 0x38
    aed8:	e1a02003 	mov	r2, r3
    aedc:	e3e03000 	mvn	r3, #0
    aee0:	e5823000 	str	r3, [r2]
    aee4:	e59f3098 	ldr	r3, [pc, #152]	; af84 <sdResetCard+0x2a0>
    aee8:	e7943003 	ldr	r3, [r4, r3]
    aeec:	e5933000 	ldr	r3, [r3]
    aef0:	e2833603 	add	r3, r3, #3145728	; 0x300000
    aef4:	e2833034 	add	r3, r3, #52	; 0x34
    aef8:	e1a02003 	mov	r2, r3
    aefc:	e3e03000 	mvn	r3, #0
    af00:	e5823000 	str	r3, [r2]
    af04:	e59f3084 	ldr	r3, [pc, #132]	; af90 <sdResetCard+0x2ac>
    af08:	e08f3003 	add	r3, pc, r3
    af0c:	e3a02000 	mov	r2, #0
    af10:	e583203c 	str	r2, [r3, #60]	; 0x3c
    af14:	e59f3078 	ldr	r3, [pc, #120]	; af94 <sdResetCard+0x2b0>
    af18:	e08f3003 	add	r3, pc, r3
    af1c:	e3a02000 	mov	r2, #0
    af20:	e5832040 	str	r2, [r3, #64]	; 0x40
    af24:	e59f306c 	ldr	r3, [pc, #108]	; af98 <sdResetCard+0x2b4>
    af28:	e08f3003 	add	r3, pc, r3
    af2c:	e3a02000 	mov	r2, #0
    af30:	e5832048 	str	r2, [r3, #72]	; 0x48
    af34:	e59f3060 	ldr	r3, [pc, #96]	; af9c <sdResetCard+0x2b8>
    af38:	e08f3003 	add	r3, pc, r3
    af3c:	e3a02000 	mov	r2, #0
    af40:	e5832044 	str	r2, [r3, #68]	; 0x44
    af44:	e59f3054 	ldr	r3, [pc, #84]	; afa0 <sdResetCard+0x2bc>
    af48:	e08f3003 	add	r3, pc, r3
    af4c:	e3a02000 	mov	r2, #0
    af50:	e5c32038 	strb	r2, [r3, #56]	; 0x38
    af54:	e3a00000 	mov	r0, #0
    af58:	ebfffceb 	bl	a30c <sdSendCommand>
    af5c:	e1a03000 	mov	r3, r0
    af60:	e54b301d 	strb	r3, [fp, #-29]	; 0xffffffe3
    af64:	e55b301d 	ldrb	r3, [fp, #-29]	; 0xffffffe3
    af68:	e1a00003 	mov	r0, r3
    af6c:	e24bd008 	sub	sp, fp, #8
    af70:	e8bd8810 	pop	{r4, fp, pc}
    af74:	e320f000 	nop	{0}
    af78:	0001869f 	muleq	r1, pc, r6	; <UNPREDICTABLE>
    af7c:	00000000 	andeq	r0, r0, r0
    af80:	0000b698 	muleq	r0, r8, r6
    af84:	00000020 	andeq	r0, r0, r0, lsr #32
    af88:	0000003c 	andeq	r0, r0, ip, lsr r0
    af8c:	020bc568 	andeq	ip, fp, #104, 10	; 0x1a000000
    af90:	0000bb20 	andeq	fp, r0, r0, lsr #22
    af94:	0000bb10 	andeq	fp, r0, r0, lsl fp
    af98:	0000bb00 	andeq	fp, r0, r0, lsl #22
    af9c:	0000baf0 	strdeq	fp, [r0], -r0
    afa0:	0000bae0 	andeq	fp, r0, r0, ror #21

0000afa4 <sdAppSendOpCond>:
    afa4:	e92d4810 	push	{r4, fp, lr}
    afa8:	e28db008 	add	fp, sp, #8
    afac:	e24dd014 	sub	sp, sp, #20
    afb0:	e50b0018 	str	r0, [fp, #-24]	; 0xffffffe8
    afb4:	e59f4198 	ldr	r4, [pc, #408]	; b154 <sdAppSendOpCond+0x1b0>
    afb8:	e08f4004 	add	r4, pc, r4
    afbc:	e51b1018 	ldr	r1, [fp, #-24]	; 0xffffffe8
    afc0:	e3a00024 	mov	r0, #36	; 0x24
    afc4:	ebfffd18 	bl	a42c <sdSendCommandA>
    afc8:	e1a03000 	mov	r3, r0
    afcc:	e54b3011 	strb	r3, [fp, #-17]	; 0xffffffef
    afd0:	e55b3011 	ldrb	r3, [fp, #-17]	; 0xffffffef
    afd4:	e3530000 	cmp	r3, #0
    afd8:	0a000012 	beq	b028 <sdAppSendOpCond+0x84>
    afdc:	e55b3011 	ldrb	r3, [fp, #-17]	; 0xffffffef
    afe0:	e3530002 	cmp	r3, #2
    afe4:	0a00000f 	beq	b028 <sdAppSendOpCond+0x84>
    afe8:	e59f3168 	ldr	r3, [pc, #360]	; b158 <sdAppSendOpCond+0x1b4>
    afec:	e7943003 	ldr	r3, [r4, r3]
    aff0:	e5933000 	ldr	r3, [r3]
    aff4:	e3530000 	cmp	r3, #0
    aff8:	0a000008 	beq	b020 <sdAppSendOpCond+0x7c>
    affc:	e59f3154 	ldr	r3, [pc, #340]	; b158 <sdAppSendOpCond+0x1b4>
    b000:	e7943003 	ldr	r3, [r4, r3]
    b004:	e5933000 	ldr	r3, [r3]
    b008:	e55b2011 	ldrb	r2, [fp, #-17]	; 0xffffffef
    b00c:	e1a01002 	mov	r1, r2
    b010:	e59f2144 	ldr	r2, [pc, #324]	; b15c <sdAppSendOpCond+0x1b8>
    b014:	e08f2002 	add	r2, pc, r2
    b018:	e1a00002 	mov	r0, r2
    b01c:	e12fff33 	blx	r3
    b020:	e55b3011 	ldrb	r3, [fp, #-17]	; 0xffffffef
    b024:	ea000047 	b	b148 <sdAppSendOpCond+0x1a4>
    b028:	e3a03006 	mov	r3, #6
    b02c:	e50b3010 	str	r3, [fp, #-16]
    b030:	ea00001e 	b	b0b0 <sdAppSendOpCond+0x10c>
    b034:	e3a00d6a 	mov	r0, #6784	; 0x1a80
    b038:	e3400006 	movt	r0, #6
    b03c:	e3a01000 	mov	r1, #0
    b040:	eb0011bf 	bl	f744 <timer_wait>
    b044:	e51b1018 	ldr	r1, [fp, #-24]	; 0xffffffe8
    b048:	e3a00024 	mov	r0, #36	; 0x24
    b04c:	ebfffcf6 	bl	a42c <sdSendCommandA>
    b050:	e1a03000 	mov	r3, r0
    b054:	e54b3011 	strb	r3, [fp, #-17]	; 0xffffffef
    b058:	e55b3011 	ldrb	r3, [fp, #-17]	; 0xffffffef
    b05c:	e3530000 	cmp	r3, #0
    b060:	0a000012 	beq	b0b0 <sdAppSendOpCond+0x10c>
    b064:	e55b3011 	ldrb	r3, [fp, #-17]	; 0xffffffef
    b068:	e3530002 	cmp	r3, #2
    b06c:	0a00000f 	beq	b0b0 <sdAppSendOpCond+0x10c>
    b070:	e59f30e0 	ldr	r3, [pc, #224]	; b158 <sdAppSendOpCond+0x1b4>
    b074:	e7943003 	ldr	r3, [r4, r3]
    b078:	e5933000 	ldr	r3, [r3]
    b07c:	e3530000 	cmp	r3, #0
    b080:	0a000008 	beq	b0a8 <sdAppSendOpCond+0x104>
    b084:	e59f30cc 	ldr	r3, [pc, #204]	; b158 <sdAppSendOpCond+0x1b4>
    b088:	e7943003 	ldr	r3, [r4, r3]
    b08c:	e5933000 	ldr	r3, [r3]
    b090:	e55b2011 	ldrb	r2, [fp, #-17]	; 0xffffffef
    b094:	e1a01002 	mov	r1, r2
    b098:	e59f20c0 	ldr	r2, [pc, #192]	; b160 <sdAppSendOpCond+0x1bc>
    b09c:	e08f2002 	add	r2, pc, r2
    b0a0:	e1a00002 	mov	r0, r2
    b0a4:	e12fff33 	blx	r3
    b0a8:	e55b3011 	ldrb	r3, [fp, #-17]	; 0xffffffef
    b0ac:	ea000025 	b	b148 <sdAppSendOpCond+0x1a4>
    b0b0:	e59f30ac 	ldr	r3, [pc, #172]	; b164 <sdAppSendOpCond+0x1c0>
    b0b4:	e08f3003 	add	r3, pc, r3
    b0b8:	e5d33043 	ldrb	r3, [r3, #67]	; 0x43
    b0bc:	e3c3307f 	bic	r3, r3, #127	; 0x7f
    b0c0:	e6ef3073 	uxtb	r3, r3
    b0c4:	e3530000 	cmp	r3, #0
    b0c8:	1a000004 	bne	b0e0 <sdAppSendOpCond+0x13c>
    b0cc:	e51b3010 	ldr	r3, [fp, #-16]
    b0d0:	e2432001 	sub	r2, r3, #1
    b0d4:	e50b2010 	str	r2, [fp, #-16]
    b0d8:	e3530000 	cmp	r3, #0
    b0dc:	1affffd4 	bne	b034 <sdAppSendOpCond+0x90>
    b0e0:	e59f3080 	ldr	r3, [pc, #128]	; b168 <sdAppSendOpCond+0x1c4>
    b0e4:	e08f3003 	add	r3, pc, r3
    b0e8:	e5d33043 	ldrb	r3, [r3, #67]	; 0x43
    b0ec:	e3c3307f 	bic	r3, r3, #127	; 0x7f
    b0f0:	e6ef3073 	uxtb	r3, r3
    b0f4:	e3530000 	cmp	r3, #0
    b0f8:	1a000001 	bne	b104 <sdAppSendOpCond+0x160>
    b0fc:	e3a03002 	mov	r3, #2
    b100:	ea000010 	b	b148 <sdAppSendOpCond+0x1a4>
    b104:	e59f3060 	ldr	r3, [pc, #96]	; b16c <sdAppSendOpCond+0x1c8>
    b108:	e08f3003 	add	r3, pc, r3
    b10c:	e5d33042 	ldrb	r3, [r3, #66]	; 0x42
    b110:	e2033010 	and	r3, r3, #16
    b114:	e6ef3073 	uxtb	r3, r3
    b118:	e3530000 	cmp	r3, #0
    b11c:	1a000008 	bne	b144 <sdAppSendOpCond+0x1a0>
    b120:	e59f3048 	ldr	r3, [pc, #72]	; b170 <sdAppSendOpCond+0x1cc>
    b124:	e08f3003 	add	r3, pc, r3
    b128:	e5d33042 	ldrb	r3, [r3, #66]	; 0x42
    b12c:	e2033020 	and	r3, r3, #32
    b130:	e6ef3073 	uxtb	r3, r3
    b134:	e3530000 	cmp	r3, #0
    b138:	1a000001 	bne	b144 <sdAppSendOpCond+0x1a0>
    b13c:	e3a03008 	mov	r3, #8
    b140:	ea000000 	b	b148 <sdAppSendOpCond+0x1a4>
    b144:	e3a03000 	mov	r3, #0
    b148:	e1a00003 	mov	r0, r3
    b14c:	e24bd008 	sub	sp, fp, #8
    b150:	e8bd8810 	pop	{r4, fp, pc}
    b154:	0000b3d4 	ldrdeq	fp, [r0], -r4
    b158:	0000003c 	andeq	r0, r0, ip, lsr r0
    b15c:	020bc3a4 	andeq	ip, fp, #164, 6	; 0x90000002
    b160:	020bc31c 	andeq	ip, fp, #28, 6	; 0x70000000
    b164:	0000b974 	andeq	fp, r0, r4, ror r9
    b168:	0000b944 	andeq	fp, r0, r4, asr #18
    b16c:	0000b920 	andeq	fp, r0, r0, lsr #18
    b170:	0000b904 	andeq	fp, r0, r4, lsl #18

0000b174 <sdTransferBlocks>:
    b174:	e92d4810 	push	{r4, fp, lr}
    b178:	e28db008 	add	fp, sp, #8
    b17c:	e24dd03c 	sub	sp, sp, #60	; 0x3c
    b180:	e50b0038 	str	r0, [fp, #-56]	; 0xffffffc8
    b184:	e50b103c 	str	r1, [fp, #-60]	; 0xffffffc4
    b188:	e50b2040 	str	r2, [fp, #-64]	; 0xffffffc0
    b18c:	e54b3041 	strb	r3, [fp, #-65]	; 0xffffffbf
    b190:	e59f45c0 	ldr	r4, [pc, #1472]	; b758 <sdTransferBlocks+0x5e4>
    b194:	e08f4004 	add	r4, pc, r4
    b198:	e59f35bc 	ldr	r3, [pc, #1468]	; b75c <sdTransferBlocks+0x5e8>
    b19c:	e08f3003 	add	r3, pc, r3
    b1a0:	e5d33038 	ldrb	r3, [r3, #56]	; 0x38
    b1a4:	e3530000 	cmp	r3, #0
    b1a8:	1a000001 	bne	b1b4 <sdTransferBlocks+0x40>
    b1ac:	e3a03005 	mov	r3, #5
    b1b0:	ea000165 	b	b74c <sdTransferBlocks+0x5d8>
    b1b4:	ebfff8fd 	bl	95b0 <sdWaitForData>
    b1b8:	e1a03000 	mov	r3, r0
    b1bc:	e3530000 	cmp	r3, #0
    b1c0:	0a000001 	beq	b1cc <sdTransferBlocks+0x58>
    b1c4:	e3a03002 	mov	r3, #2
    b1c8:	ea00015f 	b	b74c <sdTransferBlocks+0x5d8>
    b1cc:	e55b3041 	ldrb	r3, [fp, #-65]	; 0xffffffbf
    b1d0:	e3530000 	cmp	r3, #0
    b1d4:	0a000001 	beq	b1e0 <sdTransferBlocks+0x6c>
    b1d8:	e3a03010 	mov	r3, #16
    b1dc:	ea000000 	b	b1e4 <sdTransferBlocks+0x70>
    b1e0:	e3a03020 	mov	r3, #32
    b1e4:	e50b301c 	str	r3, [fp, #-28]	; 0xffffffe4
    b1e8:	e55b3041 	ldrb	r3, [fp, #-65]	; 0xffffffbf
    b1ec:	e3530000 	cmp	r3, #0
    b1f0:	0a000006 	beq	b210 <sdTransferBlocks+0x9c>
    b1f4:	e51b303c 	ldr	r3, [fp, #-60]	; 0xffffffc4
    b1f8:	e3530001 	cmp	r3, #1
    b1fc:	1a000001 	bne	b208 <sdTransferBlocks+0x94>
    b200:	e3a03013 	mov	r3, #19
    b204:	ea000007 	b	b228 <sdTransferBlocks+0xb4>
    b208:	e3a03014 	mov	r3, #20
    b20c:	ea000005 	b	b228 <sdTransferBlocks+0xb4>
    b210:	e51b303c 	ldr	r3, [fp, #-60]	; 0xffffffc4
    b214:	e3530001 	cmp	r3, #1
    b218:	1a000001 	bne	b224 <sdTransferBlocks+0xb0>
    b21c:	e3a0300e 	mov	r3, #14
    b220:	ea000000 	b	b228 <sdTransferBlocks+0xb4>
    b224:	e3a0300f 	mov	r3, #15
    b228:	e50b3020 	str	r3, [fp, #-32]	; 0xffffffe0
    b22c:	e51b303c 	ldr	r3, [fp, #-60]	; 0xffffffc4
    b230:	e3530001 	cmp	r3, #1
    b234:	9a000014 	bls	b28c <sdTransferBlocks+0x118>
    b238:	e59f3520 	ldr	r3, [pc, #1312]	; b760 <sdTransferBlocks+0x5ec>
    b23c:	e08f3003 	add	r3, pc, r3
    b240:	e5d33027 	ldrb	r3, [r3, #39]	; 0x27
    b244:	e7e13053 	ubfx	r3, r3, #0, #2
    b248:	e6ef3073 	uxtb	r3, r3
    b24c:	e3530002 	cmp	r3, #2
    b250:	1a00000d 	bne	b28c <sdTransferBlocks+0x118>
    b254:	e51b103c 	ldr	r1, [fp, #-60]	; 0xffffffc4
    b258:	e3a00012 	mov	r0, #18
    b25c:	ebfffc72 	bl	a42c <sdSendCommandA>
    b260:	e1a03000 	mov	r3, r0
    b264:	e54b3021 	strb	r3, [fp, #-33]	; 0xffffffdf
    b268:	e55b3021 	ldrb	r3, [fp, #-33]	; 0xffffffdf
    b26c:	e3530000 	cmp	r3, #0
    b270:	0a000005 	beq	b28c <sdTransferBlocks+0x118>
    b274:	e55b3021 	ldrb	r3, [fp, #-33]	; 0xffffffdf
    b278:	e1a00003 	mov	r0, r3
    b27c:	ebfff7b3 	bl	9150 <sdDebugResponse>
    b280:	e1a03000 	mov	r3, r0
    b284:	e6ef3073 	uxtb	r3, r3
    b288:	ea00012f 	b	b74c <sdTransferBlocks+0x5d8>
    b28c:	e59f34d0 	ldr	r3, [pc, #1232]	; b764 <sdTransferBlocks+0x5f0>
    b290:	e08f3003 	add	r3, pc, r3
    b294:	e5d33038 	ldrb	r3, [r3, #56]	; 0x38
    b298:	e3530003 	cmp	r3, #3
    b29c:	1a000002 	bne	b2ac <sdTransferBlocks+0x138>
    b2a0:	e51b3038 	ldr	r3, [fp, #-56]	; 0xffffffc8
    b2a4:	e1a03483 	lsl	r3, r3, #9
    b2a8:	ea000000 	b	b2b0 <sdTransferBlocks+0x13c>
    b2ac:	e51b3038 	ldr	r3, [fp, #-56]	; 0xffffffc8
    b2b0:	e50b3028 	str	r3, [fp, #-40]	; 0xffffffd8
    b2b4:	e59f34ac 	ldr	r3, [pc, #1196]	; b768 <sdTransferBlocks+0x5f4>
    b2b8:	e7943003 	ldr	r3, [r4, r3]
    b2bc:	e5933000 	ldr	r3, [r3]
    b2c0:	e2833603 	add	r3, r3, #3145728	; 0x300000
    b2c4:	e2833004 	add	r3, r3, #4
    b2c8:	e1a02003 	mov	r2, r3
    b2cc:	e51b303c 	ldr	r3, [fp, #-60]	; 0xffffffc4
    b2d0:	e6ff1073 	uxth	r1, r3
    b2d4:	e5923000 	ldr	r3, [r2]
    b2d8:	e7df3811 	bfi	r3, r1, #16, #16
    b2dc:	e5823000 	str	r3, [r2]
    b2e0:	e59f3480 	ldr	r3, [pc, #1152]	; b768 <sdTransferBlocks+0x5f4>
    b2e4:	e7943003 	ldr	r3, [r4, r3]
    b2e8:	e5933000 	ldr	r3, [r3]
    b2ec:	e2833603 	add	r3, r3, #3145728	; 0x300000
    b2f0:	e2833004 	add	r3, r3, #4
    b2f4:	e1a02003 	mov	r2, r3
    b2f8:	e5923000 	ldr	r3, [r2]
    b2fc:	e3a01c02 	mov	r1, #512	; 0x200
    b300:	e7c93011 	bfi	r3, r1, #0, #10
    b304:	e5823000 	str	r3, [r2]
    b308:	e51b1028 	ldr	r1, [fp, #-40]	; 0xffffffd8
    b30c:	e51b0020 	ldr	r0, [fp, #-32]	; 0xffffffe0
    b310:	ebfffc45 	bl	a42c <sdSendCommandA>
    b314:	e1a03000 	mov	r3, r0
    b318:	e54b3021 	strb	r3, [fp, #-33]	; 0xffffffdf
    b31c:	e55b3021 	ldrb	r3, [fp, #-33]	; 0xffffffdf
    b320:	e3530000 	cmp	r3, #0
    b324:	0a000005 	beq	b340 <sdTransferBlocks+0x1cc>
    b328:	e55b3021 	ldrb	r3, [fp, #-33]	; 0xffffffdf
    b32c:	e1a00003 	mov	r0, r3
    b330:	ebfff786 	bl	9150 <sdDebugResponse>
    b334:	e1a03000 	mov	r3, r0
    b338:	e6ef3073 	uxtb	r3, r3
    b33c:	ea000102 	b	b74c <sdTransferBlocks+0x5d8>
    b340:	e3a03000 	mov	r3, #0
    b344:	e50b3010 	str	r3, [fp, #-16]
    b348:	ea0000a8 	b	b5f0 <sdTransferBlocks+0x47c>
    b34c:	e51b301c 	ldr	r3, [fp, #-28]	; 0xffffffe4
    b350:	e1a00003 	mov	r0, r3
    b354:	ebfff786 	bl	9174 <sdWaitForInterrupt>
    b358:	e1a03000 	mov	r3, r0
    b35c:	e54b3021 	strb	r3, [fp, #-33]	; 0xffffffdf
    b360:	e55b3021 	ldrb	r3, [fp, #-33]	; 0xffffffdf
    b364:	e3530000 	cmp	r3, #0
    b368:	0a000011 	beq	b3b4 <sdTransferBlocks+0x240>
    b36c:	e59f33f8 	ldr	r3, [pc, #1016]	; b76c <sdTransferBlocks+0x5f8>
    b370:	e7943003 	ldr	r3, [r4, r3]
    b374:	e5933000 	ldr	r3, [r3]
    b378:	e3530000 	cmp	r3, #0
    b37c:	0a000006 	beq	b39c <sdTransferBlocks+0x228>
    b380:	e59f33e4 	ldr	r3, [pc, #996]	; b76c <sdTransferBlocks+0x5f8>
    b384:	e7943003 	ldr	r3, [r4, r3]
    b388:	e5933000 	ldr	r3, [r3]
    b38c:	e59f23dc 	ldr	r2, [pc, #988]	; b770 <sdTransferBlocks+0x5fc>
    b390:	e08f2002 	add	r2, pc, r2
    b394:	e1a00002 	mov	r0, r2
    b398:	e12fff33 	blx	r3
    b39c:	e55b3021 	ldrb	r3, [fp, #-33]	; 0xffffffdf
    b3a0:	e1a00003 	mov	r0, r3
    b3a4:	ebfff769 	bl	9150 <sdDebugResponse>
    b3a8:	e1a03000 	mov	r3, r0
    b3ac:	e6ef3073 	uxtb	r3, r3
    b3b0:	ea0000e5 	b	b74c <sdTransferBlocks+0x5d8>
    b3b4:	e51b3040 	ldr	r3, [fp, #-64]	; 0xffffffc0
    b3b8:	e2033003 	and	r3, r3, #3
    b3bc:	e3530000 	cmp	r3, #0
    b3c0:	0a00005d 	beq	b53c <sdTransferBlocks+0x3c8>
    b3c4:	e3a03000 	mov	r3, #0
    b3c8:	e50b3014 	str	r3, [fp, #-20]	; 0xffffffec
    b3cc:	ea000056 	b	b52c <sdTransferBlocks+0x3b8>
    b3d0:	e55b3041 	ldrb	r3, [fp, #-65]	; 0xffffffbf
    b3d4:	e3530000 	cmp	r3, #0
    b3d8:	0a00002b 	beq	b48c <sdTransferBlocks+0x318>
    b3dc:	e51b2040 	ldr	r2, [fp, #-64]	; 0xffffffc0
    b3e0:	e51b3014 	ldr	r3, [fp, #-20]	; 0xffffffec
    b3e4:	e0823003 	add	r3, r2, r3
    b3e8:	e5d33000 	ldrb	r3, [r3]
    b3ec:	e50b302c 	str	r3, [fp, #-44]	; 0xffffffd4
    b3f0:	e51b3014 	ldr	r3, [fp, #-20]	; 0xffffffec
    b3f4:	e2833001 	add	r3, r3, #1
    b3f8:	e51b2040 	ldr	r2, [fp, #-64]	; 0xffffffc0
    b3fc:	e0823003 	add	r3, r2, r3
    b400:	e5d33000 	ldrb	r3, [r3]
    b404:	e1a03403 	lsl	r3, r3, #8
    b408:	e1a02003 	mov	r2, r3
    b40c:	e51b302c 	ldr	r3, [fp, #-44]	; 0xffffffd4
    b410:	e1833002 	orr	r3, r3, r2
    b414:	e50b302c 	str	r3, [fp, #-44]	; 0xffffffd4
    b418:	e51b3014 	ldr	r3, [fp, #-20]	; 0xffffffec
    b41c:	e2833002 	add	r3, r3, #2
    b420:	e51b2040 	ldr	r2, [fp, #-64]	; 0xffffffc0
    b424:	e0823003 	add	r3, r2, r3
    b428:	e5d33000 	ldrb	r3, [r3]
    b42c:	e1a03803 	lsl	r3, r3, #16
    b430:	e1a02003 	mov	r2, r3
    b434:	e51b302c 	ldr	r3, [fp, #-44]	; 0xffffffd4
    b438:	e1833002 	orr	r3, r3, r2
    b43c:	e50b302c 	str	r3, [fp, #-44]	; 0xffffffd4
    b440:	e51b3014 	ldr	r3, [fp, #-20]	; 0xffffffec
    b444:	e2833003 	add	r3, r3, #3
    b448:	e51b2040 	ldr	r2, [fp, #-64]	; 0xffffffc0
    b44c:	e0823003 	add	r3, r2, r3
    b450:	e5d33000 	ldrb	r3, [r3]
    b454:	e1a03c03 	lsl	r3, r3, #24
    b458:	e1a02003 	mov	r2, r3
    b45c:	e51b302c 	ldr	r3, [fp, #-44]	; 0xffffffd4
    b460:	e1833002 	orr	r3, r3, r2
    b464:	e50b302c 	str	r3, [fp, #-44]	; 0xffffffd4
    b468:	e59f32f8 	ldr	r3, [pc, #760]	; b768 <sdTransferBlocks+0x5f4>
    b46c:	e7943003 	ldr	r3, [r4, r3]
    b470:	e5933000 	ldr	r3, [r3]
    b474:	e2833603 	add	r3, r3, #3145728	; 0x300000
    b478:	e2833020 	add	r3, r3, #32
    b47c:	e1a02003 	mov	r2, r3
    b480:	e51b302c 	ldr	r3, [fp, #-44]	; 0xffffffd4
    b484:	e5823000 	str	r3, [r2]
    b488:	ea000024 	b	b520 <sdTransferBlocks+0x3ac>
    b48c:	e59f32d4 	ldr	r3, [pc, #724]	; b768 <sdTransferBlocks+0x5f4>
    b490:	e7943003 	ldr	r3, [r4, r3]
    b494:	e5933000 	ldr	r3, [r3]
    b498:	e2833603 	add	r3, r3, #3145728	; 0x300000
    b49c:	e2833020 	add	r3, r3, #32
    b4a0:	e5933000 	ldr	r3, [r3]
    b4a4:	e50b3030 	str	r3, [fp, #-48]	; 0xffffffd0
    b4a8:	e51b2040 	ldr	r2, [fp, #-64]	; 0xffffffc0
    b4ac:	e51b3014 	ldr	r3, [fp, #-20]	; 0xffffffec
    b4b0:	e0823003 	add	r3, r2, r3
    b4b4:	e51b2030 	ldr	r2, [fp, #-48]	; 0xffffffd0
    b4b8:	e6ef2072 	uxtb	r2, r2
    b4bc:	e5c32000 	strb	r2, [r3]
    b4c0:	e51b3030 	ldr	r3, [fp, #-48]	; 0xffffffd0
    b4c4:	e1a01423 	lsr	r1, r3, #8
    b4c8:	e51b3014 	ldr	r3, [fp, #-20]	; 0xffffffec
    b4cc:	e2833001 	add	r3, r3, #1
    b4d0:	e51b2040 	ldr	r2, [fp, #-64]	; 0xffffffc0
    b4d4:	e0823003 	add	r3, r2, r3
    b4d8:	e6ef2071 	uxtb	r2, r1
    b4dc:	e5c32000 	strb	r2, [r3]
    b4e0:	e51b3030 	ldr	r3, [fp, #-48]	; 0xffffffd0
    b4e4:	e1a01823 	lsr	r1, r3, #16
    b4e8:	e51b3014 	ldr	r3, [fp, #-20]	; 0xffffffec
    b4ec:	e2833002 	add	r3, r3, #2
    b4f0:	e51b2040 	ldr	r2, [fp, #-64]	; 0xffffffc0
    b4f4:	e0823003 	add	r3, r2, r3
    b4f8:	e6ef2071 	uxtb	r2, r1
    b4fc:	e5c32000 	strb	r2, [r3]
    b500:	e51b3030 	ldr	r3, [fp, #-48]	; 0xffffffd0
    b504:	e1a01c23 	lsr	r1, r3, #24
    b508:	e51b3014 	ldr	r3, [fp, #-20]	; 0xffffffec
    b50c:	e2833003 	add	r3, r3, #3
    b510:	e51b2040 	ldr	r2, [fp, #-64]	; 0xffffffc0
    b514:	e0823003 	add	r3, r2, r3
    b518:	e6ef2071 	uxtb	r2, r1
    b51c:	e5c32000 	strb	r2, [r3]
    b520:	e51b3014 	ldr	r3, [fp, #-20]	; 0xffffffec
    b524:	e2833001 	add	r3, r3, #1
    b528:	e50b3014 	str	r3, [fp, #-20]	; 0xffffffec
    b52c:	e51b3014 	ldr	r3, [fp, #-20]	; 0xffffffec
    b530:	e3530c02 	cmp	r3, #512	; 0x200
    b534:	3affffa5 	bcc	b3d0 <sdTransferBlocks+0x25c>
    b538:	ea000026 	b	b5d8 <sdTransferBlocks+0x464>
    b53c:	e51b3040 	ldr	r3, [fp, #-64]	; 0xffffffc0
    b540:	e50b3034 	str	r3, [fp, #-52]	; 0xffffffcc
    b544:	e3a03000 	mov	r3, #0
    b548:	e50b3018 	str	r3, [fp, #-24]	; 0xffffffe8
    b54c:	ea00001e 	b	b5cc <sdTransferBlocks+0x458>
    b550:	e55b3041 	ldrb	r3, [fp, #-65]	; 0xffffffbf
    b554:	e3530000 	cmp	r3, #0
    b558:	0a00000c 	beq	b590 <sdTransferBlocks+0x41c>
    b55c:	e51b3018 	ldr	r3, [fp, #-24]	; 0xffffffe8
    b560:	e1a03103 	lsl	r3, r3, #2
    b564:	e51b2034 	ldr	r2, [fp, #-52]	; 0xffffffcc
    b568:	e0822003 	add	r2, r2, r3
    b56c:	e59f31f4 	ldr	r3, [pc, #500]	; b768 <sdTransferBlocks+0x5f4>
    b570:	e7943003 	ldr	r3, [r4, r3]
    b574:	e5933000 	ldr	r3, [r3]
    b578:	e2833603 	add	r3, r3, #3145728	; 0x300000
    b57c:	e2833020 	add	r3, r3, #32
    b580:	e1a01003 	mov	r1, r3
    b584:	e5923000 	ldr	r3, [r2]
    b588:	e5813000 	str	r3, [r1]
    b58c:	ea00000b 	b	b5c0 <sdTransferBlocks+0x44c>
    b590:	e59f31d0 	ldr	r3, [pc, #464]	; b768 <sdTransferBlocks+0x5f4>
    b594:	e7943003 	ldr	r3, [r4, r3]
    b598:	e5933000 	ldr	r3, [r3]
    b59c:	e2833603 	add	r3, r3, #3145728	; 0x300000
    b5a0:	e2833020 	add	r3, r3, #32
    b5a4:	e1a01003 	mov	r1, r3
    b5a8:	e51b3018 	ldr	r3, [fp, #-24]	; 0xffffffe8
    b5ac:	e1a03103 	lsl	r3, r3, #2
    b5b0:	e51b2034 	ldr	r2, [fp, #-52]	; 0xffffffcc
    b5b4:	e0823003 	add	r3, r2, r3
    b5b8:	e5912000 	ldr	r2, [r1]
    b5bc:	e5832000 	str	r2, [r3]
    b5c0:	e51b3018 	ldr	r3, [fp, #-24]	; 0xffffffe8
    b5c4:	e2833001 	add	r3, r3, #1
    b5c8:	e50b3018 	str	r3, [fp, #-24]	; 0xffffffe8
    b5cc:	e51b3018 	ldr	r3, [fp, #-24]	; 0xffffffe8
    b5d0:	e353007f 	cmp	r3, #127	; 0x7f
    b5d4:	9affffdd 	bls	b550 <sdTransferBlocks+0x3dc>
    b5d8:	e51b3010 	ldr	r3, [fp, #-16]
    b5dc:	e2833001 	add	r3, r3, #1
    b5e0:	e50b3010 	str	r3, [fp, #-16]
    b5e4:	e51b3040 	ldr	r3, [fp, #-64]	; 0xffffffc0
    b5e8:	e2833c02 	add	r3, r3, #512	; 0x200
    b5ec:	e50b3040 	str	r3, [fp, #-64]	; 0xffffffc0
    b5f0:	e51b2010 	ldr	r2, [fp, #-16]
    b5f4:	e51b303c 	ldr	r3, [fp, #-60]	; 0xffffffc4
    b5f8:	e1520003 	cmp	r2, r3
    b5fc:	3affff52 	bcc	b34c <sdTransferBlocks+0x1d8>
    b600:	e51b2010 	ldr	r2, [fp, #-16]
    b604:	e51b303c 	ldr	r3, [fp, #-60]	; 0xffffffc4
    b608:	e1520003 	cmp	r2, r3
    b60c:	0a00001a 	beq	b67c <sdTransferBlocks+0x508>
    b610:	e59f3154 	ldr	r3, [pc, #340]	; b76c <sdTransferBlocks+0x5f8>
    b614:	e7943003 	ldr	r3, [r4, r3]
    b618:	e5933000 	ldr	r3, [r3]
    b61c:	e3530000 	cmp	r3, #0
    b620:	0a000007 	beq	b644 <sdTransferBlocks+0x4d0>
    b624:	e59f3140 	ldr	r3, [pc, #320]	; b76c <sdTransferBlocks+0x5f8>
    b628:	e7943003 	ldr	r3, [r4, r3]
    b62c:	e5933000 	ldr	r3, [r3]
    b630:	e51b203c 	ldr	r2, [fp, #-60]	; 0xffffffc4
    b634:	e51b1010 	ldr	r1, [fp, #-16]
    b638:	e59f0134 	ldr	r0, [pc, #308]	; b774 <sdTransferBlocks+0x600>
    b63c:	e08f0000 	add	r0, pc, r0
    b640:	e12fff33 	blx	r3
    b644:	e55b3041 	ldrb	r3, [fp, #-65]	; 0xffffffbf
    b648:	e2233001 	eor	r3, r3, #1
    b64c:	e6ef3073 	uxtb	r3, r3
    b650:	e3530000 	cmp	r3, #0
    b654:	0a000006 	beq	b674 <sdTransferBlocks+0x500>
    b658:	e51b303c 	ldr	r3, [fp, #-60]	; 0xffffffc4
    b65c:	e3530001 	cmp	r3, #1
    b660:	9a000003 	bls	b674 <sdTransferBlocks+0x500>
    b664:	e3a0000a 	mov	r0, #10
    b668:	ebfffb27 	bl	a30c <sdSendCommand>
    b66c:	e1a03000 	mov	r3, r0
    b670:	e54b3021 	strb	r3, [fp, #-33]	; 0xffffffdf
    b674:	e3a03002 	mov	r3, #2
    b678:	ea000033 	b	b74c <sdTransferBlocks+0x5d8>
    b67c:	e55b3041 	ldrb	r3, [fp, #-65]	; 0xffffffbf
    b680:	e3530000 	cmp	r3, #0
    b684:	0a000018 	beq	b6ec <sdTransferBlocks+0x578>
    b688:	e3a00002 	mov	r0, #2
    b68c:	ebfff6b8 	bl	9174 <sdWaitForInterrupt>
    b690:	e1a03000 	mov	r3, r0
    b694:	e54b3021 	strb	r3, [fp, #-33]	; 0xffffffdf
    b698:	e55b3021 	ldrb	r3, [fp, #-33]	; 0xffffffdf
    b69c:	e3530000 	cmp	r3, #0
    b6a0:	0a000011 	beq	b6ec <sdTransferBlocks+0x578>
    b6a4:	e59f30c0 	ldr	r3, [pc, #192]	; b76c <sdTransferBlocks+0x5f8>
    b6a8:	e7943003 	ldr	r3, [r4, r3]
    b6ac:	e5933000 	ldr	r3, [r3]
    b6b0:	e3530000 	cmp	r3, #0
    b6b4:	0a000006 	beq	b6d4 <sdTransferBlocks+0x560>
    b6b8:	e59f30ac 	ldr	r3, [pc, #172]	; b76c <sdTransferBlocks+0x5f8>
    b6bc:	e7943003 	ldr	r3, [r4, r3]
    b6c0:	e5933000 	ldr	r3, [r3]
    b6c4:	e59f20ac 	ldr	r2, [pc, #172]	; b778 <sdTransferBlocks+0x604>
    b6c8:	e08f2002 	add	r2, pc, r2
    b6cc:	e1a00002 	mov	r0, r2
    b6d0:	e12fff33 	blx	r3
    b6d4:	e55b3021 	ldrb	r3, [fp, #-33]	; 0xffffffdf
    b6d8:	e1a00003 	mov	r0, r3
    b6dc:	ebfff69b 	bl	9150 <sdDebugResponse>
    b6e0:	e1a03000 	mov	r3, r0
    b6e4:	e6ef3073 	uxtb	r3, r3
    b6e8:	ea000017 	b	b74c <sdTransferBlocks+0x5d8>
    b6ec:	e51b303c 	ldr	r3, [fp, #-60]	; 0xffffffc4
    b6f0:	e3530001 	cmp	r3, #1
    b6f4:	9a000013 	bls	b748 <sdTransferBlocks+0x5d4>
    b6f8:	e59f307c 	ldr	r3, [pc, #124]	; b77c <sdTransferBlocks+0x608>
    b6fc:	e08f3003 	add	r3, pc, r3
    b700:	e5d33027 	ldrb	r3, [r3, #39]	; 0x27
    b704:	e7e13053 	ubfx	r3, r3, #0, #2
    b708:	e6ef3073 	uxtb	r3, r3
    b70c:	e3530002 	cmp	r3, #2
    b710:	0a00000c 	beq	b748 <sdTransferBlocks+0x5d4>
    b714:	e3a0000a 	mov	r0, #10
    b718:	ebfffafb 	bl	a30c <sdSendCommand>
    b71c:	e1a03000 	mov	r3, r0
    b720:	e54b3021 	strb	r3, [fp, #-33]	; 0xffffffdf
    b724:	e55b3021 	ldrb	r3, [fp, #-33]	; 0xffffffdf
    b728:	e3530000 	cmp	r3, #0
    b72c:	0a000005 	beq	b748 <sdTransferBlocks+0x5d4>
    b730:	e55b3021 	ldrb	r3, [fp, #-33]	; 0xffffffdf
    b734:	e1a00003 	mov	r0, r3
    b738:	ebfff684 	bl	9150 <sdDebugResponse>
    b73c:	e1a03000 	mov	r3, r0
    b740:	e6ef3073 	uxtb	r3, r3
    b744:	ea000000 	b	b74c <sdTransferBlocks+0x5d8>
    b748:	e3a03000 	mov	r3, #0
    b74c:	e1a00003 	mov	r0, r3
    b750:	e24bd008 	sub	sp, fp, #8
    b754:	e8bd8810 	pop	{r4, fp, pc}
    b758:	0000b1f8 	strdeq	fp, [r0], -r8
    b75c:	0000b88c 	andeq	fp, r0, ip, lsl #17
    b760:	0000b7ec 	andeq	fp, r0, ip, ror #15
    b764:	0000b798 	muleq	r0, r8, r7
    b768:	00000020 	andeq	r0, r0, r0, lsr #32
    b76c:	0000003c 	andeq	r0, r0, ip, lsr r0
    b770:	020bbf20 	andeq	fp, fp, #32, 30	; 0x80
    b774:	020bbda8 	andeq	fp, fp, #168, 26	; 0x2a00
    b778:	020bbd4c 	andeq	fp, fp, #76, 26	; 0x1300
    b77c:	0000b32c 	andeq	fp, r0, ip, lsr #6

0000b780 <sdClearBlocks>:
    b780:	e92d4830 	push	{r4, r5, fp, lr}
    b784:	e28db00c 	add	fp, sp, #12
    b788:	e24dd018 	sub	sp, sp, #24
    b78c:	e50b0020 	str	r0, [fp, #-32]	; 0xffffffe0
    b790:	e50b1024 	str	r1, [fp, #-36]	; 0xffffffdc
    b794:	e59f4210 	ldr	r4, [pc, #528]	; b9ac <sdClearBlocks+0x22c>
    b798:	e08f4004 	add	r4, pc, r4
    b79c:	e59f320c 	ldr	r3, [pc, #524]	; b9b0 <sdClearBlocks+0x230>
    b7a0:	e08f3003 	add	r3, pc, r3
    b7a4:	e5d33038 	ldrb	r3, [r3, #56]	; 0x38
    b7a8:	e3530000 	cmp	r3, #0
    b7ac:	1a000001 	bne	b7b8 <sdClearBlocks+0x38>
    b7b0:	e3a03005 	mov	r3, #5
    b7b4:	ea000079 	b	b9a0 <sdClearBlocks+0x220>
    b7b8:	ebfff77c 	bl	95b0 <sdWaitForData>
    b7bc:	e1a03000 	mov	r3, r0
    b7c0:	e3530000 	cmp	r3, #0
    b7c4:	0a000001 	beq	b7d0 <sdClearBlocks+0x50>
    b7c8:	e3a03002 	mov	r3, #2
    b7cc:	ea000073 	b	b9a0 <sdClearBlocks+0x220>
    b7d0:	e59f31dc 	ldr	r3, [pc, #476]	; b9b4 <sdClearBlocks+0x234>
    b7d4:	e08f3003 	add	r3, pc, r3
    b7d8:	e5d33038 	ldrb	r3, [r3, #56]	; 0x38
    b7dc:	e3530003 	cmp	r3, #3
    b7e0:	1a000002 	bne	b7f0 <sdClearBlocks+0x70>
    b7e4:	e51b3020 	ldr	r3, [fp, #-32]	; 0xffffffe0
    b7e8:	e1a03483 	lsl	r3, r3, #9
    b7ec:	ea000000 	b	b7f4 <sdClearBlocks+0x74>
    b7f0:	e51b3020 	ldr	r3, [fp, #-32]	; 0xffffffe0
    b7f4:	e50b3014 	str	r3, [fp, #-20]	; 0xffffffec
    b7f8:	e59f31b8 	ldr	r3, [pc, #440]	; b9b8 <sdClearBlocks+0x238>
    b7fc:	e08f3003 	add	r3, pc, r3
    b800:	e5d33038 	ldrb	r3, [r3, #56]	; 0x38
    b804:	e3530003 	cmp	r3, #3
    b808:	1a000004 	bne	b820 <sdClearBlocks+0xa0>
    b80c:	e51b2020 	ldr	r2, [fp, #-32]	; 0xffffffe0
    b810:	e51b3024 	ldr	r3, [fp, #-36]	; 0xffffffdc
    b814:	e0823003 	add	r3, r2, r3
    b818:	e1a03483 	lsl	r3, r3, #9
    b81c:	ea000002 	b	b82c <sdClearBlocks+0xac>
    b820:	e51b2020 	ldr	r2, [fp, #-32]	; 0xffffffe0
    b824:	e51b3024 	ldr	r3, [fp, #-36]	; 0xffffffdc
    b828:	e0823003 	add	r3, r2, r3
    b82c:	e50b3018 	str	r3, [fp, #-24]	; 0xffffffe8
    b830:	e51b1014 	ldr	r1, [fp, #-20]	; 0xffffffec
    b834:	e3a00019 	mov	r0, #25
    b838:	ebfffafb 	bl	a42c <sdSendCommandA>
    b83c:	e1a03000 	mov	r3, r0
    b840:	e54b3019 	strb	r3, [fp, #-25]	; 0xffffffe7
    b844:	e55b3019 	ldrb	r3, [fp, #-25]	; 0xffffffe7
    b848:	e3530000 	cmp	r3, #0
    b84c:	0a000005 	beq	b868 <sdClearBlocks+0xe8>
    b850:	e55b3019 	ldrb	r3, [fp, #-25]	; 0xffffffe7
    b854:	e1a00003 	mov	r0, r3
    b858:	ebfff63c 	bl	9150 <sdDebugResponse>
    b85c:	e1a03000 	mov	r3, r0
    b860:	e6ef3073 	uxtb	r3, r3
    b864:	ea00004d 	b	b9a0 <sdClearBlocks+0x220>
    b868:	e51b1018 	ldr	r1, [fp, #-24]	; 0xffffffe8
    b86c:	e3a0001a 	mov	r0, #26
    b870:	ebfffaed 	bl	a42c <sdSendCommandA>
    b874:	e1a03000 	mov	r3, r0
    b878:	e54b3019 	strb	r3, [fp, #-25]	; 0xffffffe7
    b87c:	e55b3019 	ldrb	r3, [fp, #-25]	; 0xffffffe7
    b880:	e3530000 	cmp	r3, #0
    b884:	0a000005 	beq	b8a0 <sdClearBlocks+0x120>
    b888:	e55b3019 	ldrb	r3, [fp, #-25]	; 0xffffffe7
    b88c:	e1a00003 	mov	r0, r3
    b890:	ebfff62e 	bl	9150 <sdDebugResponse>
    b894:	e1a03000 	mov	r3, r0
    b898:	e6ef3073 	uxtb	r3, r3
    b89c:	ea00003f 	b	b9a0 <sdClearBlocks+0x220>
    b8a0:	e3a0001b 	mov	r0, #27
    b8a4:	ebfffa98 	bl	a30c <sdSendCommand>
    b8a8:	e1a03000 	mov	r3, r0
    b8ac:	e54b3019 	strb	r3, [fp, #-25]	; 0xffffffe7
    b8b0:	e55b3019 	ldrb	r3, [fp, #-25]	; 0xffffffe7
    b8b4:	e3530000 	cmp	r3, #0
    b8b8:	0a000005 	beq	b8d4 <sdClearBlocks+0x154>
    b8bc:	e55b3019 	ldrb	r3, [fp, #-25]	; 0xffffffe7
    b8c0:	e1a00003 	mov	r0, r3
    b8c4:	ebfff621 	bl	9150 <sdDebugResponse>
    b8c8:	e1a03000 	mov	r3, r0
    b8cc:	e6ef3073 	uxtb	r3, r3
    b8d0:	ea000032 	b	b9a0 <sdClearBlocks+0x220>
    b8d4:	e3043240 	movw	r3, #16960	; 0x4240
    b8d8:	e340300f 	movt	r3, #15
    b8dc:	e50b3010 	str	r3, [fp, #-16]
    b8e0:	ea000023 	b	b974 <sdClearBlocks+0x1f4>
    b8e4:	e51b3010 	ldr	r3, [fp, #-16]
    b8e8:	e2433001 	sub	r3, r3, #1
    b8ec:	e50b3010 	str	r3, [fp, #-16]
    b8f0:	e51b3010 	ldr	r3, [fp, #-16]
    b8f4:	e3530000 	cmp	r3, #0
    b8f8:	1a00001a 	bne	b968 <sdClearBlocks+0x1e8>
    b8fc:	e59f30b8 	ldr	r3, [pc, #184]	; b9bc <sdClearBlocks+0x23c>
    b900:	e7943003 	ldr	r3, [r4, r3]
    b904:	e5933000 	ldr	r3, [r3]
    b908:	e3530000 	cmp	r3, #0
    b90c:	0a000013 	beq	b960 <sdClearBlocks+0x1e0>
    b910:	e59f30a4 	ldr	r3, [pc, #164]	; b9bc <sdClearBlocks+0x23c>
    b914:	e7943003 	ldr	r3, [r4, r3]
    b918:	e5935000 	ldr	r5, [r3]
    b91c:	e59f309c 	ldr	r3, [pc, #156]	; b9c0 <sdClearBlocks+0x240>
    b920:	e7943003 	ldr	r3, [r4, r3]
    b924:	e5933000 	ldr	r3, [r3]
    b928:	e2833603 	add	r3, r3, #3145728	; 0x300000
    b92c:	e2833024 	add	r3, r3, #36	; 0x24
    b930:	e5931000 	ldr	r1, [r3]
    b934:	e59f3084 	ldr	r3, [pc, #132]	; b9c0 <sdClearBlocks+0x240>
    b938:	e7943003 	ldr	r3, [r4, r3]
    b93c:	e5933000 	ldr	r3, [r3]
    b940:	e2833603 	add	r3, r3, #3145728	; 0x300000
    b944:	e2833030 	add	r3, r3, #48	; 0x30
    b948:	e5933000 	ldr	r3, [r3]
    b94c:	e1a02003 	mov	r2, r3
    b950:	e59f306c 	ldr	r3, [pc, #108]	; b9c4 <sdClearBlocks+0x244>
    b954:	e08f3003 	add	r3, pc, r3
    b958:	e1a00003 	mov	r0, r3
    b95c:	e12fff35 	blx	r5
    b960:	e3a03002 	mov	r3, #2
    b964:	ea00000d 	b	b9a0 <sdClearBlocks+0x220>
    b968:	e3a0000a 	mov	r0, #10
    b96c:	e3a01000 	mov	r1, #0
    b970:	eb000f73 	bl	f744 <timer_wait>
    b974:	e59f3044 	ldr	r3, [pc, #68]	; b9c0 <sdClearBlocks+0x240>
    b978:	e7943003 	ldr	r3, [r4, r3]
    b97c:	e5933000 	ldr	r3, [r3]
    b980:	e2833603 	add	r3, r3, #3145728	; 0x300000
    b984:	e2833024 	add	r3, r3, #36	; 0x24
    b988:	e5933000 	ldr	r3, [r3]
    b98c:	e7e030d3 	ubfx	r3, r3, #1, #1
    b990:	e6ef3073 	uxtb	r3, r3
    b994:	e3530000 	cmp	r3, #0
    b998:	1affffd1 	bne	b8e4 <sdClearBlocks+0x164>
    b99c:	e3a03000 	mov	r3, #0
    b9a0:	e1a00003 	mov	r0, r3
    b9a4:	e24bd00c 	sub	sp, fp, #12
    b9a8:	e8bd8830 	pop	{r4, r5, fp, pc}
    b9ac:	0000abf4 	strdeq	sl, [r0], -r4
    b9b0:	0000b288 	andeq	fp, r0, r8, lsl #5
    b9b4:	0000b254 	andeq	fp, r0, r4, asr r2
    b9b8:	0000b22c 	andeq	fp, r0, ip, lsr #4
    b9bc:	0000003c 	andeq	r0, r0, ip, lsr r0
    b9c0:	00000020 	andeq	r0, r0, r0, lsr #32
    b9c4:	020bbae8 	andeq	fp, fp, #232, 20	; 0xe8000

0000b9c8 <LoadDrivePartition>:
    b9c8:	e92d4810 	push	{r4, fp, lr}
    b9cc:	e28db008 	add	fp, sp, #8
    b9d0:	e24ddf89 	sub	sp, sp, #548	; 0x224
    b9d4:	e50b0220 	str	r0, [fp, #-544]	; 0xfffffde0
    b9d8:	e24b2f87 	sub	r2, fp, #540	; 0x21c
    b9dc:	e3a03000 	mov	r3, #0
    b9e0:	e3a01001 	mov	r1, #1
    b9e4:	e3a00000 	mov	r0, #0
    b9e8:	ebfffde1 	bl	b174 <sdTransferBlocks>
    b9ec:	e1a03000 	mov	r3, r0
    b9f0:	e3530000 	cmp	r3, #0
    b9f4:	0a000001 	beq	ba00 <LoadDrivePartition+0x38>
    b9f8:	e3a03000 	mov	r3, #0
    b9fc:	ea0000c0 	b	bd04 <LoadDrivePartition+0x33c>
    ba00:	e24b3f87 	sub	r3, fp, #540	; 0x21c
    ba04:	e50b3010 	str	r3, [fp, #-16]
    ba08:	e51b3010 	ldr	r3, [fp, #-16]
    ba0c:	e5d33000 	ldrb	r3, [r3]
    ba10:	e35300e9 	cmp	r3, #233	; 0xe9
    ba14:	0a000027 	beq	bab8 <LoadDrivePartition+0xf0>
    ba18:	e51b3010 	ldr	r3, [fp, #-16]
    ba1c:	e5d33000 	ldrb	r3, [r3]
    ba20:	e35300eb 	cmp	r3, #235	; 0xeb
    ba24:	0a000023 	beq	bab8 <LoadDrivePartition+0xf0>
    ba28:	e24b3f87 	sub	r3, fp, #540	; 0x21c
    ba2c:	e50b3014 	str	r3, [fp, #-20]	; 0xffffffec
    ba30:	e51b3014 	ldr	r3, [fp, #-20]	; 0xffffffec
    ba34:	e2833f7f 	add	r3, r3, #508	; 0x1fc
    ba38:	e2833002 	add	r3, r3, #2
    ba3c:	e1d330b0 	ldrh	r3, [r3]
    ba40:	e30a2a55 	movw	r2, #43605	; 0xaa55
    ba44:	e1530002 	cmp	r3, r2
    ba48:	0a000001 	beq	ba54 <LoadDrivePartition+0x8c>
    ba4c:	e3a03000 	mov	r3, #0
    ba50:	ea0000ab 	b	bd04 <LoadDrivePartition+0x33c>
    ba54:	e51b3014 	ldr	r3, [fp, #-20]	; 0xffffffec
    ba58:	e2833f6f 	add	r3, r3, #444	; 0x1bc
    ba5c:	e2833002 	add	r3, r3, #2
    ba60:	e50b3018 	str	r3, [fp, #-24]	; 0xffffffe8
    ba64:	e51b3018 	ldr	r3, [fp, #-24]	; 0xffffffe8
    ba68:	e5932008 	ldr	r2, [r3, #8]
    ba6c:	e59f329c 	ldr	r3, [pc, #668]	; bd10 <LoadDrivePartition+0x348>
    ba70:	e08f3003 	add	r3, pc, r3
    ba74:	e5832060 	str	r2, [r3, #96]	; 0x60
    ba78:	e51b3018 	ldr	r3, [fp, #-24]	; 0xffffffe8
    ba7c:	e5930008 	ldr	r0, [r3, #8]
    ba80:	e24b2f87 	sub	r2, fp, #540	; 0x21c
    ba84:	e3a03000 	mov	r3, #0
    ba88:	e3a01001 	mov	r1, #1
    ba8c:	ebfffdb8 	bl	b174 <sdTransferBlocks>
    ba90:	e51b3010 	ldr	r3, [fp, #-16]
    ba94:	e5d33000 	ldrb	r3, [r3]
    ba98:	e35300e9 	cmp	r3, #233	; 0xe9
    ba9c:	0a000005 	beq	bab8 <LoadDrivePartition+0xf0>
    baa0:	e51b3010 	ldr	r3, [fp, #-16]
    baa4:	e5d33000 	ldrb	r3, [r3]
    baa8:	e35300eb 	cmp	r3, #235	; 0xeb
    baac:	0a000001 	beq	bab8 <LoadDrivePartition+0xf0>
    bab0:	e3a03000 	mov	r3, #0
    bab4:	ea000092 	b	bd04 <LoadDrivePartition+0x33c>
    bab8:	e51b3010 	ldr	r3, [fp, #-16]
    babc:	e1d330bb 	ldrh	r3, [r3, #11]
    bac0:	e6ff3073 	uxth	r3, r3
    bac4:	e1a02003 	mov	r2, r3
    bac8:	e59f3244 	ldr	r3, [pc, #580]	; bd14 <LoadDrivePartition+0x34c>
    bacc:	e08f3003 	add	r3, pc, r3
    bad0:	e5832054 	str	r2, [r3, #84]	; 0x54
    bad4:	e51b3010 	ldr	r3, [fp, #-16]
    bad8:	e5d3300d 	ldrb	r3, [r3, #13]
    badc:	e1a02003 	mov	r2, r3
    bae0:	e59f3230 	ldr	r3, [pc, #560]	; bd18 <LoadDrivePartition+0x350>
    bae4:	e08f3003 	add	r3, pc, r3
    bae8:	e5832050 	str	r2, [r3, #80]	; 0x50
    baec:	e51b3010 	ldr	r3, [fp, #-16]
    baf0:	e1d330be 	ldrh	r3, [r3, #14]
    baf4:	e1a02003 	mov	r2, r3
    baf8:	e59f321c 	ldr	r3, [pc, #540]	; bd1c <LoadDrivePartition+0x354>
    bafc:	e08f3003 	add	r3, pc, r3
    bb00:	e5832064 	str	r2, [r3, #100]	; 0x64
    bb04:	e51b3010 	ldr	r3, [fp, #-16]
    bb08:	e1d331b6 	ldrh	r3, [r3, #22]
    bb0c:	e3530000 	cmp	r3, #0
    bb10:	1a000032 	bne	bbe0 <LoadDrivePartition+0x218>
    bb14:	e51b3010 	ldr	r3, [fp, #-16]
    bb18:	e1d331b1 	ldrh	r3, [r3, #17]
    bb1c:	e6ff3073 	uxth	r3, r3
    bb20:	e3530000 	cmp	r3, #0
    bb24:	1a00002d 	bne	bbe0 <LoadDrivePartition+0x218>
    bb28:	e51b3010 	ldr	r3, [fp, #-16]
    bb2c:	e593202c 	ldr	r2, [r3, #44]	; 0x2c
    bb30:	e59f31e8 	ldr	r3, [pc, #488]	; bd20 <LoadDrivePartition+0x358>
    bb34:	e08f3003 	add	r3, pc, r3
    bb38:	e583204c 	str	r2, [r3, #76]	; 0x4c
    bb3c:	e51b3010 	ldr	r3, [fp, #-16]
    bb40:	e1d330be 	ldrh	r3, [r3, #14]
    bb44:	e1a02003 	mov	r2, r3
    bb48:	e51b3010 	ldr	r3, [fp, #-16]
    bb4c:	e593301c 	ldr	r3, [r3, #28]
    bb50:	e0822003 	add	r2, r2, r3
    bb54:	e51b3010 	ldr	r3, [fp, #-16]
    bb58:	e5933024 	ldr	r3, [r3, #36]	; 0x24
    bb5c:	e51b1010 	ldr	r1, [fp, #-16]
    bb60:	e5d11010 	ldrb	r1, [r1, #16]
    bb64:	e0030391 	mul	r3, r1, r3
    bb68:	e0822003 	add	r2, r2, r3
    bb6c:	e59f31b0 	ldr	r3, [pc, #432]	; bd24 <LoadDrivePartition+0x35c>
    bb70:	e08f3003 	add	r3, pc, r3
    bb74:	e5832058 	str	r2, [r3, #88]	; 0x58
    bb78:	e51b3010 	ldr	r3, [fp, #-16]
    bb7c:	e5933020 	ldr	r3, [r3, #32]
    bb80:	e51b2010 	ldr	r2, [fp, #-16]
    bb84:	e1d220be 	ldrh	r2, [r2, #14]
    bb88:	e0432002 	sub	r2, r3, r2
    bb8c:	e51b3010 	ldr	r3, [fp, #-16]
    bb90:	e5933024 	ldr	r3, [r3, #36]	; 0x24
    bb94:	e51b1010 	ldr	r1, [fp, #-16]
    bb98:	e5d11010 	ldrb	r1, [r1, #16]
    bb9c:	e0030391 	mul	r3, r1, r3
    bba0:	e0422003 	sub	r2, r2, r3
    bba4:	e59f317c 	ldr	r3, [pc, #380]	; bd28 <LoadDrivePartition+0x360>
    bba8:	e08f3003 	add	r3, pc, r3
    bbac:	e583205c 	str	r2, [r3, #92]	; 0x5c
    bbb0:	e51b3220 	ldr	r3, [fp, #-544]	; 0xfffffde0
    bbb4:	e3530000 	cmp	r3, #0
    bbb8:	0a000036 	beq	bc98 <LoadDrivePartition+0x2d0>
    bbbc:	e51b3010 	ldr	r3, [fp, #-16]
    bbc0:	e2831047 	add	r1, r3, #71	; 0x47
    bbc4:	e51b3010 	ldr	r3, [fp, #-16]
    bbc8:	e5932043 	ldr	r2, [r3, #67]	; 0x43
    bbcc:	e51b3220 	ldr	r3, [fp, #-544]	; 0xfffffde0
    bbd0:	e59f0154 	ldr	r0, [pc, #340]	; bd2c <LoadDrivePartition+0x364>
    bbd4:	e08f0000 	add	r0, pc, r0
    bbd8:	e12fff33 	blx	r3
    bbdc:	ea00002d 	b	bc98 <LoadDrivePartition+0x2d0>
    bbe0:	e59f3148 	ldr	r3, [pc, #328]	; bd30 <LoadDrivePartition+0x368>
    bbe4:	e08f3003 	add	r3, pc, r3
    bbe8:	e3a02002 	mov	r2, #2
    bbec:	e583204c 	str	r2, [r3, #76]	; 0x4c
    bbf0:	e59f313c 	ldr	r3, [pc, #316]	; bd34 <LoadDrivePartition+0x36c>
    bbf4:	e08f3003 	add	r3, pc, r3
    bbf8:	e5933060 	ldr	r3, [r3, #96]	; 0x60
    bbfc:	e51b2010 	ldr	r2, [fp, #-16]
    bc00:	e5d22010 	ldrb	r2, [r2, #16]
    bc04:	e1a01002 	mov	r1, r2
    bc08:	e51b2010 	ldr	r2, [fp, #-16]
    bc0c:	e1d221b6 	ldrh	r2, [r2, #22]
    bc10:	e0020192 	mul	r2, r2, r1
    bc14:	e0833002 	add	r3, r3, r2
    bc18:	e2832001 	add	r2, r3, #1
    bc1c:	e59f3114 	ldr	r3, [pc, #276]	; bd38 <LoadDrivePartition+0x370>
    bc20:	e08f3003 	add	r3, pc, r3
    bc24:	e5832058 	str	r2, [r3, #88]	; 0x58
    bc28:	e51b3010 	ldr	r3, [fp, #-16]
    bc2c:	e5933020 	ldr	r3, [r3, #32]
    bc30:	e51b2010 	ldr	r2, [fp, #-16]
    bc34:	e5d22010 	ldrb	r2, [r2, #16]
    bc38:	e1a01002 	mov	r1, r2
    bc3c:	e51b2010 	ldr	r2, [fp, #-16]
    bc40:	e1d221b6 	ldrh	r2, [r2, #22]
    bc44:	e0020192 	mul	r2, r2, r1
    bc48:	e0433002 	sub	r3, r3, r2
    bc4c:	e2432021 	sub	r2, r3, #33	; 0x21
    bc50:	e59f30e4 	ldr	r3, [pc, #228]	; bd3c <LoadDrivePartition+0x374>
    bc54:	e08f3003 	add	r3, pc, r3
    bc58:	e583205c 	str	r2, [r3, #92]	; 0x5c
    bc5c:	e51b3010 	ldr	r3, [fp, #-16]
    bc60:	e5d33026 	ldrb	r3, [r3, #38]	; 0x26
    bc64:	e3530029 	cmp	r3, #41	; 0x29
    bc68:	1a00000a 	bne	bc98 <LoadDrivePartition+0x2d0>
    bc6c:	e51b3220 	ldr	r3, [fp, #-544]	; 0xfffffde0
    bc70:	e3530000 	cmp	r3, #0
    bc74:	0a000007 	beq	bc98 <LoadDrivePartition+0x2d0>
    bc78:	e51b3010 	ldr	r3, [fp, #-16]
    bc7c:	e283102b 	add	r1, r3, #43	; 0x2b
    bc80:	e51b3010 	ldr	r3, [fp, #-16]
    bc84:	e5932027 	ldr	r2, [r3, #39]	; 0x27
    bc88:	e51b3220 	ldr	r3, [fp, #-544]	; 0xfffffde0
    bc8c:	e59f00ac 	ldr	r0, [pc, #172]	; bd40 <LoadDrivePartition+0x378>
    bc90:	e08f0000 	add	r0, pc, r0
    bc94:	e12fff33 	blx	r3
    bc98:	e59f30a4 	ldr	r3, [pc, #164]	; bd44 <LoadDrivePartition+0x37c>
    bc9c:	e08f3003 	add	r3, pc, r3
    bca0:	e593205c 	ldr	r2, [r3, #92]	; 0x5c
    bca4:	e59f309c 	ldr	r3, [pc, #156]	; bd48 <LoadDrivePartition+0x380>
    bca8:	e08f3003 	add	r3, pc, r3
    bcac:	e5933050 	ldr	r3, [r3, #80]	; 0x50
    bcb0:	e733f312 	udiv	r3, r2, r3
    bcb4:	e50b301c 	str	r3, [fp, #-28]	; 0xffffffe4
    bcb8:	e51b3220 	ldr	r3, [fp, #-544]	; 0xfffffde0
    bcbc:	e3530000 	cmp	r3, #0
    bcc0:	0a00000e 	beq	bd00 <LoadDrivePartition+0x338>
    bcc4:	e59f3080 	ldr	r3, [pc, #128]	; bd4c <LoadDrivePartition+0x384>
    bcc8:	e08f3003 	add	r3, pc, r3
    bccc:	e5931058 	ldr	r1, [r3, #88]	; 0x58
    bcd0:	e59f3078 	ldr	r3, [pc, #120]	; bd50 <LoadDrivePartition+0x388>
    bcd4:	e08f3003 	add	r3, pc, r3
    bcd8:	e593205c 	ldr	r2, [r3, #92]	; 0x5c
    bcdc:	e59f3070 	ldr	r3, [pc, #112]	; bd54 <LoadDrivePartition+0x38c>
    bce0:	e08f3003 	add	r3, pc, r3
    bce4:	e593304c 	ldr	r3, [r3, #76]	; 0x4c
    bce8:	e58d3000 	str	r3, [sp]
    bcec:	e51b4220 	ldr	r4, [fp, #-544]	; 0xfffffde0
    bcf0:	e51b301c 	ldr	r3, [fp, #-28]	; 0xffffffe4
    bcf4:	e59f005c 	ldr	r0, [pc, #92]	; bd58 <LoadDrivePartition+0x390>
    bcf8:	e08f0000 	add	r0, pc, r0
    bcfc:	e12fff34 	blx	r4
    bd00:	e3a03001 	mov	r3, #1
    bd04:	e1a00003 	mov	r0, r3
    bd08:	e24bd008 	sub	sp, fp, #8
    bd0c:	e8bd8810 	pop	{r4, fp, pc}
    bd10:	0000afb8 			; <UNDEFINED> instruction: 0x0000afb8
    bd14:	0000af5c 	andeq	sl, r0, ip, asr pc
    bd18:	0000af44 	andeq	sl, r0, r4, asr #30
    bd1c:	0000af2c 	andeq	sl, r0, ip, lsr #30
    bd20:	0000aef4 	strdeq	sl, [r0], -r4
    bd24:	0000aeb8 			; <UNDEFINED> instruction: 0x0000aeb8
    bd28:	0000ae80 	andeq	sl, r0, r0, lsl #29
    bd2c:	020bb894 	andeq	fp, fp, #148, 16	; 0x940000
    bd30:	0000ae44 	andeq	sl, r0, r4, asr #28
    bd34:	0000ae34 	andeq	sl, r0, r4, lsr lr
    bd38:	0000ae08 	andeq	sl, r0, r8, lsl #28
    bd3c:	0000add4 	ldrdeq	sl, [r0], -r4
    bd40:	020bb7fc 	andeq	fp, fp, #252, 14	; 0x3f00000
    bd44:	0000ad8c 	andeq	sl, r0, ip, lsl #27
    bd48:	0000ad80 	andeq	sl, r0, r0, lsl #27
    bd4c:	0000ad60 	andeq	sl, r0, r0, ror #26
    bd50:	0000ad54 	andeq	sl, r0, r4, asr sp
    bd54:	0000ad48 	andeq	sl, r0, r8, asr #26
    bd58:	020bb7c0 	andeq	fp, fp, #192, 14	; 0x3000000

0000bd5c <getFirstSector>:
    bd5c:	e52db004 	push	{fp}		; (str fp, [sp, #-4]!)
    bd60:	e28db000 	add	fp, sp, #0
    bd64:	e24dd014 	sub	sp, sp, #20
    bd68:	e50b0008 	str	r0, [fp, #-8]
    bd6c:	e50b100c 	str	r1, [fp, #-12]
    bd70:	e50b2010 	str	r2, [fp, #-16]
    bd74:	e51b3008 	ldr	r3, [fp, #-8]
    bd78:	e2433002 	sub	r3, r3, #2
    bd7c:	e51b200c 	ldr	r2, [fp, #-12]
    bd80:	e0020392 	mul	r2, r2, r3
    bd84:	e51b3010 	ldr	r3, [fp, #-16]
    bd88:	e0823003 	add	r3, r2, r3
    bd8c:	e1a00003 	mov	r0, r3
    bd90:	e28bd000 	add	sp, fp, #0
    bd94:	e49db004 	pop	{fp}		; (ldr fp, [sp], #4)
    bd98:	e12fff1e 	bx	lr

0000bd9c <getSetNextCluster>:
    bd9c:	e92d4800 	push	{fp, lr}
    bda0:	e28db004 	add	fp, sp, #4
    bda4:	e24dde22 	sub	sp, sp, #544	; 0x220
    bda8:	e50b0218 	str	r0, [fp, #-536]	; 0xfffffde8
    bdac:	e1a03001 	mov	r3, r1
    bdb0:	e50b2220 	str	r2, [fp, #-544]	; 0xfffffde0
    bdb4:	e54b3219 	strb	r3, [fp, #-537]	; 0xfffffde7
    bdb8:	e59f30f4 	ldr	r3, [pc, #244]	; beb4 <getSetNextCluster+0x118>
    bdbc:	e08f3003 	add	r3, pc, r3
    bdc0:	e5932060 	ldr	r2, [r3, #96]	; 0x60
    bdc4:	e59f30ec 	ldr	r3, [pc, #236]	; beb8 <getSetNextCluster+0x11c>
    bdc8:	e08f3003 	add	r3, pc, r3
    bdcc:	e5933064 	ldr	r3, [r3, #100]	; 0x64
    bdd0:	e0822003 	add	r2, r2, r3
    bdd4:	e51b3218 	ldr	r3, [fp, #-536]	; 0xfffffde8
    bdd8:	e1a01103 	lsl	r1, r3, #2
    bddc:	e59f30d8 	ldr	r3, [pc, #216]	; bebc <getSetNextCluster+0x120>
    bde0:	e08f3003 	add	r3, pc, r3
    bde4:	e5933054 	ldr	r3, [r3, #84]	; 0x54
    bde8:	e733f311 	udiv	r3, r1, r3
    bdec:	e0823003 	add	r3, r2, r3
    bdf0:	e50b3008 	str	r3, [fp, #-8]
    bdf4:	e51b3218 	ldr	r3, [fp, #-536]	; 0xfffffde8
    bdf8:	e1a03103 	lsl	r3, r3, #2
    bdfc:	e59f20bc 	ldr	r2, [pc, #188]	; bec0 <getSetNextCluster+0x124>
    be00:	e08f2002 	add	r2, pc, r2
    be04:	e5922054 	ldr	r2, [r2, #84]	; 0x54
    be08:	e731f213 	udiv	r1, r3, r2
    be0c:	e0020192 	mul	r2, r2, r1
    be10:	e0433002 	sub	r3, r3, r2
    be14:	e50b300c 	str	r3, [fp, #-12]
    be18:	e24b2e21 	sub	r2, fp, #528	; 0x210
    be1c:	e3a03000 	mov	r3, #0
    be20:	e3a01001 	mov	r1, #1
    be24:	e51b0008 	ldr	r0, [fp, #-8]
    be28:	ebfffcd1 	bl	b174 <sdTransferBlocks>
    be2c:	e1a03000 	mov	r3, r0
    be30:	e3530000 	cmp	r3, #0
    be34:	0a000001 	beq	be40 <getSetNextCluster+0xa4>
    be38:	e3e03000 	mvn	r3, #0
    be3c:	ea000019 	b	bea8 <getSetNextCluster+0x10c>
    be40:	e24b2e21 	sub	r2, fp, #528	; 0x210
    be44:	e51b300c 	ldr	r3, [fp, #-12]
    be48:	e0823003 	add	r3, r2, r3
    be4c:	e50b3010 	str	r3, [fp, #-16]
    be50:	e55b3219 	ldrb	r3, [fp, #-537]	; 0xfffffde7
    be54:	e2233001 	eor	r3, r3, #1
    be58:	e6ef3073 	uxtb	r3, r3
    be5c:	e3530000 	cmp	r3, #0
    be60:	0a000002 	beq	be70 <getSetNextCluster+0xd4>
    be64:	e51b3010 	ldr	r3, [fp, #-16]
    be68:	e5933000 	ldr	r3, [r3]
    be6c:	ea00000d 	b	bea8 <getSetNextCluster+0x10c>
    be70:	e51b3010 	ldr	r3, [fp, #-16]
    be74:	e51b2220 	ldr	r2, [fp, #-544]	; 0xfffffde0
    be78:	e5832000 	str	r2, [r3]
    be7c:	e24b2e21 	sub	r2, fp, #528	; 0x210
    be80:	e3a03001 	mov	r3, #1
    be84:	e3a01001 	mov	r1, #1
    be88:	e51b0008 	ldr	r0, [fp, #-8]
    be8c:	ebfffcb8 	bl	b174 <sdTransferBlocks>
    be90:	e1a03000 	mov	r3, r0
    be94:	e3530000 	cmp	r3, #0
    be98:	0a000001 	beq	bea4 <getSetNextCluster+0x108>
    be9c:	e3e03000 	mvn	r3, #0
    bea0:	ea000000 	b	bea8 <getSetNextCluster+0x10c>
    bea4:	e3a03000 	mov	r3, #0
    bea8:	e1a00003 	mov	r0, r3
    beac:	e24bd004 	sub	sp, fp, #4
    beb0:	e8bd8800 	pop	{fp, pc}
    beb4:	0000ac6c 	andeq	sl, r0, ip, ror #24
    beb8:	0000ac60 	andeq	sl, r0, r0, ror #24
    bebc:	0000ac48 	andeq	sl, r0, r8, asr #24
    bec0:	0000ac28 	andeq	sl, r0, r8, lsr #24

0000bec4 <SetFindDataFromFATEntry>:
    bec4:	e52db004 	push	{fp}		; (str fp, [sp, #-4]!)
    bec8:	e28db000 	add	fp, sp, #0
    becc:	e24dd014 	sub	sp, sp, #20
    bed0:	e50b0010 	str	r0, [fp, #-16]
    bed4:	e50b1014 	str	r1, [fp, #-20]	; 0xffffffec
    bed8:	e51b3010 	ldr	r3, [fp, #-16]
    bedc:	e3530000 	cmp	r3, #0
    bee0:	0a00008f 	beq	c124 <SetFindDataFromFATEntry+0x260>
    bee4:	e51b3014 	ldr	r3, [fp, #-20]	; 0xffffffec
    bee8:	e3530000 	cmp	r3, #0
    beec:	0a00008c 	beq	c124 <SetFindDataFromFATEntry+0x260>
    bef0:	e51b3010 	ldr	r3, [fp, #-16]
    bef4:	e5d3300b 	ldrb	r3, [r3, #11]
    bef8:	e1a02003 	mov	r2, r3
    befc:	e51b3014 	ldr	r3, [fp, #-20]	; 0xffffffec
    bf00:	e583206c 	str	r2, [r3, #108]	; 0x6c
    bf04:	e51b3010 	ldr	r3, [fp, #-16]
    bf08:	e1d331b8 	ldrh	r3, [r3, #24]
    bf0c:	e6ff3073 	uxth	r3, r3
    bf10:	e1a034a3 	lsr	r3, r3, #9
    bf14:	e6ff3073 	uxth	r3, r3
    bf18:	e2832050 	add	r2, r3, #80	; 0x50
    bf1c:	e51b3014 	ldr	r3, [fp, #-20]	; 0xffffffec
    bf20:	e5832014 	str	r2, [r3, #20]
    bf24:	e51b3010 	ldr	r3, [fp, #-16]
    bf28:	e1d331b8 	ldrh	r3, [r3, #24]
    bf2c:	e6ff3073 	uxth	r3, r3
    bf30:	e1a032c3 	asr	r3, r3, #5
    bf34:	e203300f 	and	r3, r3, #15
    bf38:	e2432001 	sub	r2, r3, #1
    bf3c:	e51b3014 	ldr	r3, [fp, #-20]	; 0xffffffec
    bf40:	e5832010 	str	r2, [r3, #16]
    bf44:	e51b3010 	ldr	r3, [fp, #-16]
    bf48:	e1d331b8 	ldrh	r3, [r3, #24]
    bf4c:	e6ff3073 	uxth	r3, r3
    bf50:	e203201f 	and	r2, r3, #31
    bf54:	e51b3014 	ldr	r3, [fp, #-20]	; 0xffffffec
    bf58:	e583200c 	str	r2, [r3, #12]
    bf5c:	e51b3010 	ldr	r3, [fp, #-16]
    bf60:	e1d331b6 	ldrh	r3, [r3, #22]
    bf64:	e6ff3073 	uxth	r3, r3
    bf68:	e1a035a3 	lsr	r3, r3, #11
    bf6c:	e6ff3073 	uxth	r3, r3
    bf70:	e1a02003 	mov	r2, r3
    bf74:	e51b3014 	ldr	r3, [fp, #-20]	; 0xffffffec
    bf78:	e5832008 	str	r2, [r3, #8]
    bf7c:	e51b3010 	ldr	r3, [fp, #-16]
    bf80:	e1d331b6 	ldrh	r3, [r3, #22]
    bf84:	e6ff3073 	uxth	r3, r3
    bf88:	e1a032c3 	asr	r3, r3, #5
    bf8c:	e203203f 	and	r2, r3, #63	; 0x3f
    bf90:	e51b3014 	ldr	r3, [fp, #-20]	; 0xffffffec
    bf94:	e5832004 	str	r2, [r3, #4]
    bf98:	e51b3010 	ldr	r3, [fp, #-16]
    bf9c:	e1d331b6 	ldrh	r3, [r3, #22]
    bfa0:	e6ff3073 	uxth	r3, r3
    bfa4:	e1a03083 	lsl	r3, r3, #1
    bfa8:	e203203e 	and	r2, r3, #62	; 0x3e
    bfac:	e51b3014 	ldr	r3, [fp, #-20]	; 0xffffffec
    bfb0:	e5832000 	str	r2, [r3]
    bfb4:	e51b3010 	ldr	r3, [fp, #-16]
    bfb8:	e1d331b2 	ldrh	r3, [r3, #18]
    bfbc:	e6ff3073 	uxth	r3, r3
    bfc0:	e1a034a3 	lsr	r3, r3, #9
    bfc4:	e6ff3073 	uxth	r3, r3
    bfc8:	e2832050 	add	r2, r3, #80	; 0x50
    bfcc:	e51b3014 	ldr	r3, [fp, #-20]	; 0xffffffec
    bfd0:	e5832038 	str	r2, [r3, #56]	; 0x38
    bfd4:	e51b3010 	ldr	r3, [fp, #-16]
    bfd8:	e1d331b2 	ldrh	r3, [r3, #18]
    bfdc:	e6ff3073 	uxth	r3, r3
    bfe0:	e1a032c3 	asr	r3, r3, #5
    bfe4:	e203300f 	and	r3, r3, #15
    bfe8:	e2432001 	sub	r2, r3, #1
    bfec:	e51b3014 	ldr	r3, [fp, #-20]	; 0xffffffec
    bff0:	e5832034 	str	r2, [r3, #52]	; 0x34
    bff4:	e51b3010 	ldr	r3, [fp, #-16]
    bff8:	e1d331b2 	ldrh	r3, [r3, #18]
    bffc:	e6ff3073 	uxth	r3, r3
    c000:	e203201f 	and	r2, r3, #31
    c004:	e51b3014 	ldr	r3, [fp, #-20]	; 0xffffffec
    c008:	e5832030 	str	r2, [r3, #48]	; 0x30
    c00c:	e51b3010 	ldr	r3, [fp, #-16]
    c010:	e1d331b0 	ldrh	r3, [r3, #16]
    c014:	e6ff3073 	uxth	r3, r3
    c018:	e1a034a3 	lsr	r3, r3, #9
    c01c:	e6ff3073 	uxth	r3, r3
    c020:	e2832050 	add	r2, r3, #80	; 0x50
    c024:	e51b3014 	ldr	r3, [fp, #-20]	; 0xffffffec
    c028:	e583205c 	str	r2, [r3, #92]	; 0x5c
    c02c:	e51b3010 	ldr	r3, [fp, #-16]
    c030:	e1d331b0 	ldrh	r3, [r3, #16]
    c034:	e6ff3073 	uxth	r3, r3
    c038:	e1a032c3 	asr	r3, r3, #5
    c03c:	e203300f 	and	r3, r3, #15
    c040:	e2432001 	sub	r2, r3, #1
    c044:	e51b3014 	ldr	r3, [fp, #-20]	; 0xffffffec
    c048:	e5832058 	str	r2, [r3, #88]	; 0x58
    c04c:	e51b3010 	ldr	r3, [fp, #-16]
    c050:	e1d331b0 	ldrh	r3, [r3, #16]
    c054:	e6ff3073 	uxth	r3, r3
    c058:	e203201f 	and	r2, r3, #31
    c05c:	e51b3014 	ldr	r3, [fp, #-20]	; 0xffffffec
    c060:	e5832054 	str	r2, [r3, #84]	; 0x54
    c064:	e51b3010 	ldr	r3, [fp, #-16]
    c068:	e1d330be 	ldrh	r3, [r3, #14]
    c06c:	e6ff3073 	uxth	r3, r3
    c070:	e1a035a3 	lsr	r3, r3, #11
    c074:	e6ff3073 	uxth	r3, r3
    c078:	e1a02003 	mov	r2, r3
    c07c:	e51b3014 	ldr	r3, [fp, #-20]	; 0xffffffec
    c080:	e5832050 	str	r2, [r3, #80]	; 0x50
    c084:	e51b3010 	ldr	r3, [fp, #-16]
    c088:	e1d330be 	ldrh	r3, [r3, #14]
    c08c:	e6ff3073 	uxth	r3, r3
    c090:	e1a032c3 	asr	r3, r3, #5
    c094:	e203203f 	and	r2, r3, #63	; 0x3f
    c098:	e51b3014 	ldr	r3, [fp, #-20]	; 0xffffffec
    c09c:	e583204c 	str	r2, [r3, #76]	; 0x4c
    c0a0:	e51b3010 	ldr	r3, [fp, #-16]
    c0a4:	e1d330be 	ldrh	r3, [r3, #14]
    c0a8:	e6ff3073 	uxth	r3, r3
    c0ac:	e1a03083 	lsl	r3, r3, #1
    c0b0:	e203203e 	and	r2, r3, #62	; 0x3e
    c0b4:	e51b3014 	ldr	r3, [fp, #-20]	; 0xffffffec
    c0b8:	e5832048 	str	r2, [r3, #72]	; 0x48
    c0bc:	e51b3010 	ldr	r3, [fp, #-16]
    c0c0:	e593201c 	ldr	r2, [r3, #28]
    c0c4:	e51b3014 	ldr	r3, [fp, #-20]	; 0xffffffec
    c0c8:	e5832074 	str	r2, [r3, #116]	; 0x74
    c0cc:	e51b3014 	ldr	r3, [fp, #-20]	; 0xffffffec
    c0d0:	e3a02000 	mov	r2, #0
    c0d4:	e5832070 	str	r2, [r3, #112]	; 0x70
    c0d8:	e3a03000 	mov	r3, #0
    c0dc:	e50b3008 	str	r3, [fp, #-8]
    c0e0:	ea00000c 	b	c118 <SetFindDataFromFATEntry+0x254>
    c0e4:	e51b2010 	ldr	r2, [fp, #-16]
    c0e8:	e51b3008 	ldr	r3, [fp, #-8]
    c0ec:	e0823003 	add	r3, r2, r3
    c0f0:	e5d31000 	ldrb	r1, [r3]
    c0f4:	e51b2014 	ldr	r2, [fp, #-20]	; 0xffffffec
    c0f8:	e51b3008 	ldr	r3, [fp, #-8]
    c0fc:	e0823003 	add	r3, r2, r3
    c100:	e2833f5e 	add	r3, r3, #376	; 0x178
    c104:	e1a02001 	mov	r2, r1
    c108:	e5c32000 	strb	r2, [r3]
    c10c:	e51b3008 	ldr	r3, [fp, #-8]
    c110:	e2833001 	add	r3, r3, #1
    c114:	e50b3008 	str	r3, [fp, #-8]
    c118:	e51b3008 	ldr	r3, [fp, #-8]
    c11c:	e353000a 	cmp	r3, #10
    c120:	9affffef 	bls	c0e4 <SetFindDataFromFATEntry+0x220>
    c124:	e320f000 	nop	{0}
    c128:	e28bd000 	add	sp, fp, #0
    c12c:	e49db004 	pop	{fp}		; (ldr fp, [sp], #4)
    c130:	e12fff1e 	bx	lr

0000c134 <ReadLFNEntry>:
    c134:	e92d4800 	push	{fp, lr}
    c138:	e28db004 	add	fp, sp, #4
    c13c:	e24dd010 	sub	sp, sp, #16
    c140:	e50b0010 	str	r0, [fp, #-16]
    c144:	e50b1014 	str	r1, [fp, #-20]	; 0xffffffec
    c148:	e3a03000 	mov	r3, #0
    c14c:	e54b3007 	strb	r3, [fp, #-7]
    c150:	e3a03000 	mov	r3, #0
    c154:	e54b3008 	strb	r3, [fp, #-8]
    c158:	e51b3010 	ldr	r3, [fp, #-16]
    c15c:	e3530000 	cmp	r3, #0
    c160:	0a000088 	beq	c388 <ReadLFNEntry+0x254>
    c164:	e3a03000 	mov	r3, #0
    c168:	e14b30b6 	strh	r3, [fp, #-6]
    c16c:	ea000029 	b	c218 <ReadLFNEntry+0xe4>
    c170:	e15b30b6 	ldrh	r3, [fp, #-6]
    c174:	e1a03083 	lsl	r3, r3, #1
    c178:	e51b2010 	ldr	r2, [fp, #-16]
    c17c:	e0823003 	add	r3, r2, r3
    c180:	e5d33001 	ldrb	r3, [r3, #1]
    c184:	e54b3009 	strb	r3, [fp, #-9]
    c188:	e15b30b6 	ldrh	r3, [fp, #-6]
    c18c:	e1a03083 	lsl	r3, r3, #1
    c190:	e2833001 	add	r3, r3, #1
    c194:	e51b2010 	ldr	r2, [fp, #-16]
    c198:	e0823003 	add	r3, r2, r3
    c19c:	e5d33001 	ldrb	r3, [r3, #1]
    c1a0:	e54b300a 	strb	r3, [fp, #-10]
    c1a4:	e55b300a 	ldrb	r3, [fp, #-10]
    c1a8:	e1a03403 	lsl	r3, r3, #8
    c1ac:	e6bf2073 	sxth	r2, r3
    c1b0:	e55b3009 	ldrb	r3, [fp, #-9]
    c1b4:	e6bf3073 	sxth	r3, r3
    c1b8:	e1823003 	orr	r3, r2, r3
    c1bc:	e6bf3073 	sxth	r3, r3
    c1c0:	e14b30bc 	strh	r3, [fp, #-12]
    c1c4:	e15b30bc 	ldrh	r3, [fp, #-12]
    c1c8:	e3530000 	cmp	r3, #0
    c1cc:	1a000002 	bne	c1dc <ReadLFNEntry+0xa8>
    c1d0:	e3a03001 	mov	r3, #1
    c1d4:	e54b3007 	strb	r3, [fp, #-7]
    c1d8:	ea00000b 	b	c20c <ReadLFNEntry+0xd8>
    c1dc:	e15b30bc 	ldrh	r3, [fp, #-12]
    c1e0:	e1a00003 	mov	r0, r3
    c1e4:	fa0026b2 	blx	15cb4 <wctob>
    c1e8:	e1a01000 	mov	r1, r0
    c1ec:	e55b3008 	ldrb	r3, [fp, #-8]
    c1f0:	e2832001 	add	r2, r3, #1
    c1f4:	e54b2008 	strb	r2, [fp, #-8]
    c1f8:	e1a02003 	mov	r2, r3
    c1fc:	e51b3014 	ldr	r3, [fp, #-20]	; 0xffffffec
    c200:	e0833002 	add	r3, r3, r2
    c204:	e6ef2071 	uxtb	r2, r1
    c208:	e5c32000 	strb	r2, [r3]
    c20c:	e15b30b6 	ldrh	r3, [fp, #-6]
    c210:	e2833001 	add	r3, r3, #1
    c214:	e14b30b6 	strh	r3, [fp, #-6]
    c218:	e15b30b6 	ldrh	r3, [fp, #-6]
    c21c:	e3530004 	cmp	r3, #4
    c220:	8a000004 	bhi	c238 <ReadLFNEntry+0x104>
    c224:	e55b3007 	ldrb	r3, [fp, #-7]
    c228:	e2233001 	eor	r3, r3, #1
    c22c:	e6ef3073 	uxtb	r3, r3
    c230:	e3530000 	cmp	r3, #0
    c234:	1affffcd 	bne	c170 <ReadLFNEntry+0x3c>
    c238:	e3a03000 	mov	r3, #0
    c23c:	e14b30b6 	strh	r3, [fp, #-6]
    c240:	ea00001e 	b	c2c0 <ReadLFNEntry+0x18c>
    c244:	e15b30b6 	ldrh	r3, [fp, #-6]
    c248:	e51b2010 	ldr	r2, [fp, #-16]
    c24c:	e2833004 	add	r3, r3, #4
    c250:	e1a03083 	lsl	r3, r3, #1
    c254:	e0823003 	add	r3, r2, r3
    c258:	e5d32006 	ldrb	r2, [r3, #6]
    c25c:	e5d33007 	ldrb	r3, [r3, #7]
    c260:	e1a03403 	lsl	r3, r3, #8
    c264:	e1833002 	orr	r3, r3, r2
    c268:	e14b30bc 	strh	r3, [fp, #-12]
    c26c:	e15b30bc 	ldrh	r3, [fp, #-12]
    c270:	e3530000 	cmp	r3, #0
    c274:	1a000002 	bne	c284 <ReadLFNEntry+0x150>
    c278:	e3a03001 	mov	r3, #1
    c27c:	e54b3007 	strb	r3, [fp, #-7]
    c280:	ea00000b 	b	c2b4 <ReadLFNEntry+0x180>
    c284:	e15b30bc 	ldrh	r3, [fp, #-12]
    c288:	e1a00003 	mov	r0, r3
    c28c:	fa002688 	blx	15cb4 <wctob>
    c290:	e1a01000 	mov	r1, r0
    c294:	e55b3008 	ldrb	r3, [fp, #-8]
    c298:	e2832001 	add	r2, r3, #1
    c29c:	e54b2008 	strb	r2, [fp, #-8]
    c2a0:	e1a02003 	mov	r2, r3
    c2a4:	e51b3014 	ldr	r3, [fp, #-20]	; 0xffffffec
    c2a8:	e0833002 	add	r3, r3, r2
    c2ac:	e6ef2071 	uxtb	r2, r1
    c2b0:	e5c32000 	strb	r2, [r3]
    c2b4:	e15b30b6 	ldrh	r3, [fp, #-6]
    c2b8:	e2833001 	add	r3, r3, #1
    c2bc:	e14b30b6 	strh	r3, [fp, #-6]
    c2c0:	e15b30b6 	ldrh	r3, [fp, #-6]
    c2c4:	e3530005 	cmp	r3, #5
    c2c8:	8a000004 	bhi	c2e0 <ReadLFNEntry+0x1ac>
    c2cc:	e55b3007 	ldrb	r3, [fp, #-7]
    c2d0:	e2233001 	eor	r3, r3, #1
    c2d4:	e6ef3073 	uxtb	r3, r3
    c2d8:	e3530000 	cmp	r3, #0
    c2dc:	1affffd8 	bne	c244 <ReadLFNEntry+0x110>
    c2e0:	e3a03000 	mov	r3, #0
    c2e4:	e14b30b6 	strh	r3, [fp, #-6]
    c2e8:	ea00001e 	b	c368 <ReadLFNEntry+0x234>
    c2ec:	e15b30b6 	ldrh	r3, [fp, #-6]
    c2f0:	e51b2010 	ldr	r2, [fp, #-16]
    c2f4:	e283300c 	add	r3, r3, #12
    c2f8:	e1a03083 	lsl	r3, r3, #1
    c2fc:	e0823003 	add	r3, r2, r3
    c300:	e5d32004 	ldrb	r2, [r3, #4]
    c304:	e5d33005 	ldrb	r3, [r3, #5]
    c308:	e1a03403 	lsl	r3, r3, #8
    c30c:	e1833002 	orr	r3, r3, r2
    c310:	e14b30bc 	strh	r3, [fp, #-12]
    c314:	e15b30bc 	ldrh	r3, [fp, #-12]
    c318:	e3530000 	cmp	r3, #0
    c31c:	1a000002 	bne	c32c <ReadLFNEntry+0x1f8>
    c320:	e3a03001 	mov	r3, #1
    c324:	e54b3007 	strb	r3, [fp, #-7]
    c328:	ea00000b 	b	c35c <ReadLFNEntry+0x228>
    c32c:	e15b30bc 	ldrh	r3, [fp, #-12]
    c330:	e1a00003 	mov	r0, r3
    c334:	fa00265e 	blx	15cb4 <wctob>
    c338:	e1a01000 	mov	r1, r0
    c33c:	e55b3008 	ldrb	r3, [fp, #-8]
    c340:	e2832001 	add	r2, r3, #1
    c344:	e54b2008 	strb	r2, [fp, #-8]
    c348:	e1a02003 	mov	r2, r3
    c34c:	e51b3014 	ldr	r3, [fp, #-20]	; 0xffffffec
    c350:	e0833002 	add	r3, r3, r2
    c354:	e6ef2071 	uxtb	r2, r1
    c358:	e5c32000 	strb	r2, [r3]
    c35c:	e15b30b6 	ldrh	r3, [fp, #-6]
    c360:	e2833001 	add	r3, r3, #1
    c364:	e14b30b6 	strh	r3, [fp, #-6]
    c368:	e15b30b6 	ldrh	r3, [fp, #-6]
    c36c:	e3530001 	cmp	r3, #1
    c370:	8a000004 	bhi	c388 <ReadLFNEntry+0x254>
    c374:	e55b3007 	ldrb	r3, [fp, #-7]
    c378:	e2233001 	eor	r3, r3, #1
    c37c:	e6ef3073 	uxtb	r3, r3
    c380:	e3530000 	cmp	r3, #0
    c384:	1affffd8 	bne	c2ec <ReadLFNEntry+0x1b8>
    c388:	e55b3008 	ldrb	r3, [fp, #-8]
    c38c:	e51b2014 	ldr	r2, [fp, #-20]	; 0xffffffec
    c390:	e0823003 	add	r3, r2, r3
    c394:	e3a02000 	mov	r2, #0
    c398:	e5c32000 	strb	r2, [r3]
    c39c:	e55b3008 	ldrb	r3, [fp, #-8]
    c3a0:	e1a00003 	mov	r0, r3
    c3a4:	e24bd004 	sub	sp, fp, #4
    c3a8:	e8bd8800 	pop	{fp, pc}

0000c3ac <WildcardMatch>:
    c3ac:	e52db004 	push	{fp}		; (str fp, [sp, #-4]!)
    c3b0:	e28db000 	add	fp, sp, #0
    c3b4:	e24dd024 	sub	sp, sp, #36	; 0x24
    c3b8:	e50b0020 	str	r0, [fp, #-32]	; 0xffffffe0
    c3bc:	e50b1024 	str	r1, [fp, #-36]	; 0xffffffdc
    c3c0:	e59f3318 	ldr	r3, [pc, #792]	; c6e0 <WildcardMatch+0x334>
    c3c4:	e08f3003 	add	r3, pc, r3
    c3c8:	e3a02000 	mov	r2, #0
    c3cc:	e50b2008 	str	r2, [fp, #-8]
    c3d0:	e3a02000 	mov	r2, #0
    c3d4:	e50b200c 	str	r2, [fp, #-12]
    c3d8:	ea000097 	b	c63c <WildcardMatch+0x290>
    c3dc:	e51b2020 	ldr	r2, [fp, #-32]	; 0xffffffe0
    c3e0:	e2821001 	add	r1, r2, #1
    c3e4:	e50b1020 	str	r1, [fp, #-32]	; 0xffffffe0
    c3e8:	e5d22000 	ldrb	r2, [r2]
    c3ec:	e50b2010 	str	r2, [fp, #-16]
    c3f0:	e51b2010 	ldr	r2, [fp, #-16]
    c3f4:	e352003f 	cmp	r2, #63	; 0x3f
    c3f8:	0a00003e 	beq	c4f8 <WildcardMatch+0x14c>
    c3fc:	e51b2010 	ldr	r2, [fp, #-16]
    c400:	e352003f 	cmp	r2, #63	; 0x3f
    c404:	ca000003 	bgt	c418 <WildcardMatch+0x6c>
    c408:	e51b2010 	ldr	r2, [fp, #-16]
    c40c:	e352002a 	cmp	r2, #42	; 0x2a
    c410:	0a000007 	beq	c434 <WildcardMatch+0x88>
    c414:	ea000049 	b	c540 <WildcardMatch+0x194>
    c418:	e51b2010 	ldr	r2, [fp, #-16]
    c41c:	e352005b 	cmp	r2, #91	; 0x5b
    c420:	0a000008 	beq	c448 <WildcardMatch+0x9c>
    c424:	e51b2010 	ldr	r2, [fp, #-16]
    c428:	e352005c 	cmp	r2, #92	; 0x5c
    c42c:	0a000039 	beq	c518 <WildcardMatch+0x16c>
    c430:	ea000042 	b	c540 <WildcardMatch+0x194>
    c434:	e51b2020 	ldr	r2, [fp, #-32]	; 0xffffffe0
    c438:	e50b2008 	str	r2, [fp, #-8]
    c43c:	e51b2024 	ldr	r2, [fp, #-36]	; 0xffffffdc
    c440:	e50b200c 	str	r2, [fp, #-12]
    c444:	ea000077 	b	c628 <WildcardMatch+0x27c>
    c448:	e3a02000 	mov	r2, #0
    c44c:	e54b2011 	strb	r2, [fp, #-17]	; 0xffffffef
    c450:	ea000014 	b	c4a8 <WildcardMatch+0xfc>
    c454:	e51b2010 	ldr	r2, [fp, #-16]
    c458:	e352005c 	cmp	r2, #92	; 0x5c
    c45c:	1a000004 	bne	c474 <WildcardMatch+0xc8>
    c460:	e51b2020 	ldr	r2, [fp, #-32]	; 0xffffffe0
    c464:	e2821001 	add	r1, r2, #1
    c468:	e50b1020 	str	r1, [fp, #-32]	; 0xffffffe0
    c46c:	e5d22000 	ldrb	r2, [r2]
    c470:	e50b2010 	str	r2, [fp, #-16]
    c474:	e51b2010 	ldr	r2, [fp, #-16]
    c478:	e3520000 	cmp	r2, #0
    c47c:	1a000001 	bne	c488 <WildcardMatch+0xdc>
    c480:	e3a03000 	mov	r3, #0
    c484:	ea000091 	b	c6d0 <WildcardMatch+0x324>
    c488:	e51b2024 	ldr	r2, [fp, #-36]	; 0xffffffdc
    c48c:	e5d22000 	ldrb	r2, [r2]
    c490:	e1a01002 	mov	r1, r2
    c494:	e51b2010 	ldr	r2, [fp, #-16]
    c498:	e1520001 	cmp	r2, r1
    c49c:	1a000001 	bne	c4a8 <WildcardMatch+0xfc>
    c4a0:	e3a02000 	mov	r2, #0
    c4a4:	e54b2011 	strb	r2, [fp, #-17]	; 0xffffffef
    c4a8:	e51b2020 	ldr	r2, [fp, #-32]	; 0xffffffe0
    c4ac:	e2821001 	add	r1, r2, #1
    c4b0:	e50b1020 	str	r1, [fp, #-32]	; 0xffffffe0
    c4b4:	e5d22000 	ldrb	r2, [r2]
    c4b8:	e50b2010 	str	r2, [fp, #-16]
    c4bc:	e51b2010 	ldr	r2, [fp, #-16]
    c4c0:	e352005d 	cmp	r2, #93	; 0x5d
    c4c4:	1affffe2 	bne	c454 <WildcardMatch+0xa8>
    c4c8:	e55b2011 	ldrb	r2, [fp, #-17]	; 0xffffffef
    c4cc:	e2222001 	eor	r2, r2, #1
    c4d0:	e6ef2072 	uxtb	r2, r2
    c4d4:	e3520000 	cmp	r2, #0
    c4d8:	0a000006 	beq	c4f8 <WildcardMatch+0x14c>
    c4dc:	e51b2008 	ldr	r2, [fp, #-8]
    c4e0:	e50b2020 	str	r2, [fp, #-32]	; 0xffffffe0
    c4e4:	e51b200c 	ldr	r2, [fp, #-12]
    c4e8:	e2822001 	add	r2, r2, #1
    c4ec:	e50b200c 	str	r2, [fp, #-12]
    c4f0:	e51b200c 	ldr	r2, [fp, #-12]
    c4f4:	e50b2024 	str	r2, [fp, #-36]	; 0xffffffdc
    c4f8:	e51b2024 	ldr	r2, [fp, #-36]	; 0xffffffdc
    c4fc:	e2821001 	add	r1, r2, #1
    c500:	e50b1024 	str	r1, [fp, #-36]	; 0xffffffdc
    c504:	e5d22000 	ldrb	r2, [r2]
    c508:	e3520000 	cmp	r2, #0
    c50c:	1a000042 	bne	c61c <WildcardMatch+0x270>
    c510:	e3a03000 	mov	r3, #0
    c514:	ea00006d 	b	c6d0 <WildcardMatch+0x324>
    c518:	e51b2020 	ldr	r2, [fp, #-32]	; 0xffffffe0
    c51c:	e2821001 	add	r1, r2, #1
    c520:	e50b1020 	str	r1, [fp, #-32]	; 0xffffffe0
    c524:	e5d22000 	ldrb	r2, [r2]
    c528:	e50b2010 	str	r2, [fp, #-16]
    c52c:	e51b2010 	ldr	r2, [fp, #-16]
    c530:	e3520000 	cmp	r2, #0
    c534:	1a000001 	bne	c540 <WildcardMatch+0x194>
    c538:	e3a03000 	mov	r3, #0
    c53c:	ea000063 	b	c6d0 <WildcardMatch+0x324>
    c540:	e51b2024 	ldr	r2, [fp, #-36]	; 0xffffffdc
    c544:	e5d22000 	ldrb	r2, [r2]
    c548:	e54b2013 	strb	r2, [fp, #-19]	; 0xffffffed
    c54c:	e55b2013 	ldrb	r2, [fp, #-19]	; 0xffffffed
    c550:	e2822001 	add	r2, r2, #1
    c554:	e59f1188 	ldr	r1, [pc, #392]	; c6e4 <WildcardMatch+0x338>
    c558:	e7931001 	ldr	r1, [r3, r1]
    c55c:	e0822001 	add	r2, r2, r1
    c560:	e5d22000 	ldrb	r2, [r2]
    c564:	e2022003 	and	r2, r2, #3
    c568:	e3520002 	cmp	r2, #2
    c56c:	1a000002 	bne	c57c <WildcardMatch+0x1d0>
    c570:	e55b2013 	ldrb	r2, [fp, #-19]	; 0xffffffed
    c574:	e2421020 	sub	r1, r2, #32
    c578:	ea000000 	b	c580 <WildcardMatch+0x1d4>
    c57c:	e55b1013 	ldrb	r1, [fp, #-19]	; 0xffffffed
    c580:	e51b2010 	ldr	r2, [fp, #-16]
    c584:	e50b2018 	str	r2, [fp, #-24]	; 0xffffffe8
    c588:	e51b2018 	ldr	r2, [fp, #-24]	; 0xffffffe8
    c58c:	e2822001 	add	r2, r2, #1
    c590:	e59f014c 	ldr	r0, [pc, #332]	; c6e4 <WildcardMatch+0x338>
    c594:	e7930000 	ldr	r0, [r3, r0]
    c598:	e0822000 	add	r2, r2, r0
    c59c:	e5d22000 	ldrb	r2, [r2]
    c5a0:	e2022003 	and	r2, r2, #3
    c5a4:	e3520002 	cmp	r2, #2
    c5a8:	1a000002 	bne	c5b8 <WildcardMatch+0x20c>
    c5ac:	e51b2018 	ldr	r2, [fp, #-24]	; 0xffffffe8
    c5b0:	e2422020 	sub	r2, r2, #32
    c5b4:	ea000000 	b	c5bc <WildcardMatch+0x210>
    c5b8:	e51b2018 	ldr	r2, [fp, #-24]	; 0xffffffe8
    c5bc:	e1510002 	cmp	r1, r2
    c5c0:	1a000007 	bne	c5e4 <WildcardMatch+0x238>
    c5c4:	e51b2024 	ldr	r2, [fp, #-36]	; 0xffffffdc
    c5c8:	e5d22000 	ldrb	r2, [r2]
    c5cc:	e3520000 	cmp	r2, #0
    c5d0:	0a000013 	beq	c624 <WildcardMatch+0x278>
    c5d4:	e51b2024 	ldr	r2, [fp, #-36]	; 0xffffffdc
    c5d8:	e2822001 	add	r2, r2, #1
    c5dc:	e50b2024 	str	r2, [fp, #-36]	; 0xffffffdc
    c5e0:	ea00000f 	b	c624 <WildcardMatch+0x278>
    c5e4:	e51b2024 	ldr	r2, [fp, #-36]	; 0xffffffdc
    c5e8:	e5d22000 	ldrb	r2, [r2]
    c5ec:	e3520000 	cmp	r2, #0
    c5f0:	0a000007 	beq	c614 <WildcardMatch+0x268>
    c5f4:	e51b2008 	ldr	r2, [fp, #-8]
    c5f8:	e50b2020 	str	r2, [fp, #-32]	; 0xffffffe0
    c5fc:	e51b200c 	ldr	r2, [fp, #-12]
    c600:	e2822001 	add	r2, r2, #1
    c604:	e50b200c 	str	r2, [fp, #-12]
    c608:	e51b200c 	ldr	r2, [fp, #-12]
    c60c:	e50b2024 	str	r2, [fp, #-36]	; 0xffffffdc
    c610:	ea000004 	b	c628 <WildcardMatch+0x27c>
    c614:	e3a03000 	mov	r3, #0
    c618:	ea00002c 	b	c6d0 <WildcardMatch+0x324>
    c61c:	e320f000 	nop	{0}
    c620:	ea000000 	b	c628 <WildcardMatch+0x27c>
    c624:	e320f000 	nop	{0}
    c628:	e51b2020 	ldr	r2, [fp, #-32]	; 0xffffffe0
    c62c:	e3520000 	cmp	r2, #0
    c630:	1a000001 	bne	c63c <WildcardMatch+0x290>
    c634:	e3a03000 	mov	r3, #0
    c638:	ea000024 	b	c6d0 <WildcardMatch+0x324>
    c63c:	e51b2024 	ldr	r2, [fp, #-36]	; 0xffffffdc
    c640:	e5d22000 	ldrb	r2, [r2]
    c644:	e54b2012 	strb	r2, [fp, #-18]	; 0xffffffee
    c648:	e55b2012 	ldrb	r2, [fp, #-18]	; 0xffffffee
    c64c:	e2822001 	add	r2, r2, #1
    c650:	e59f108c 	ldr	r1, [pc, #140]	; c6e4 <WildcardMatch+0x338>
    c654:	e7931001 	ldr	r1, [r3, r1]
    c658:	e0822001 	add	r2, r2, r1
    c65c:	e5d22000 	ldrb	r2, [r2]
    c660:	e2022003 	and	r2, r2, #3
    c664:	e3520002 	cmp	r2, #2
    c668:	1a000002 	bne	c678 <WildcardMatch+0x2cc>
    c66c:	e55b2012 	ldrb	r2, [fp, #-18]	; 0xffffffee
    c670:	e2422020 	sub	r2, r2, #32
    c674:	ea000000 	b	c67c <WildcardMatch+0x2d0>
    c678:	e55b2012 	ldrb	r2, [fp, #-18]	; 0xffffffee
    c67c:	e3520000 	cmp	r2, #0
    c680:	1affff55 	bne	c3dc <WildcardMatch+0x30>
    c684:	e51b2020 	ldr	r2, [fp, #-32]	; 0xffffffe0
    c688:	e5d22000 	ldrb	r2, [r2]
    c68c:	e54b2019 	strb	r2, [fp, #-25]	; 0xffffffe7
    c690:	e55b2019 	ldrb	r2, [fp, #-25]	; 0xffffffe7
    c694:	e2822001 	add	r2, r2, #1
    c698:	e59f1044 	ldr	r1, [pc, #68]	; c6e4 <WildcardMatch+0x338>
    c69c:	e7931001 	ldr	r1, [r3, r1]
    c6a0:	e0822001 	add	r2, r2, r1
    c6a4:	e5d22000 	ldrb	r2, [r2]
    c6a8:	e2022003 	and	r2, r2, #3
    c6ac:	e3520002 	cmp	r2, #2
    c6b0:	1a000002 	bne	c6c0 <WildcardMatch+0x314>
    c6b4:	e55b2019 	ldrb	r2, [fp, #-25]	; 0xffffffe7
    c6b8:	e2422020 	sub	r2, r2, #32
    c6bc:	ea000000 	b	c6c4 <WildcardMatch+0x318>
    c6c0:	e55b2019 	ldrb	r2, [fp, #-25]	; 0xffffffe7
    c6c4:	e3520000 	cmp	r2, #0
    c6c8:	1affff43 	bne	c3dc <WildcardMatch+0x30>
    c6cc:	e3a03001 	mov	r3, #1
    c6d0:	e1a00003 	mov	r0, r3
    c6d4:	e28bd000 	add	sp, fp, #0
    c6d8:	e49db004 	pop	{fp}		; (ldr fp, [sp], #4)
    c6dc:	e12fff1e 	bx	lr
    c6e0:	00009fc8 	andeq	r9, r0, r8, asr #31
    c6e4:	00000040 	andeq	r0, r0, r0, asr #32

0000c6e8 <LocateFATEntry>:
    c6e8:	e92d4800 	push	{fp, lr}
    c6ec:	e28db004 	add	fp, sp, #4
    c6f0:	e24dd040 	sub	sp, sp, #64	; 0x40
    c6f4:	e50b0038 	str	r0, [fp, #-56]	; 0xffffffc8
    c6f8:	e50b103c 	str	r1, [fp, #-60]	; 0xffffffc4
    c6fc:	e50b3044 	str	r3, [fp, #-68]	; 0xffffffbc
    c700:	e1a03002 	mov	r3, r2
    c704:	e54b303d 	strb	r3, [fp, #-61]	; 0xffffffc3
    c708:	e3a03000 	mov	r3, #0
    c70c:	e50b3008 	str	r3, [fp, #-8]
    c710:	ea000164 	b	cca8 <LocateFATEntry+0x5c0>
    c714:	e51b303c 	ldr	r3, [fp, #-60]	; 0xffffffc4
    c718:	e593300c 	ldr	r3, [r3, #12]
    c71c:	e2833010 	add	r3, r3, #16
    c720:	e51b203c 	ldr	r2, [fp, #-60]	; 0xffffffc4
    c724:	e0823003 	add	r3, r2, r3
    c728:	e50b3024 	str	r3, [fp, #-36]	; 0xffffffdc
    c72c:	e51b3024 	ldr	r3, [fp, #-36]	; 0xffffffdc
    c730:	e5d33000 	ldrb	r3, [r3]
    c734:	e3530000 	cmp	r3, #0
    c738:	1a000007 	bne	c75c <LocateFATEntry+0x74>
    c73c:	e59b3004 	ldr	r3, [fp, #4]
    c740:	e3530000 	cmp	r3, #0
    c744:	0a000002 	beq	c754 <LocateFATEntry+0x6c>
    c748:	e59b3004 	ldr	r3, [fp, #4]
    c74c:	e3a02001 	mov	r2, #1
    c750:	e5832000 	str	r2, [r3]
    c754:	e3a03000 	mov	r3, #0
    c758:	ea000161 	b	cce4 <LocateFATEntry+0x5fc>
    c75c:	e51b3024 	ldr	r3, [fp, #-36]	; 0xffffffdc
    c760:	e5d33000 	ldrb	r3, [r3]
    c764:	e35300e5 	cmp	r3, #229	; 0xe5
    c768:	0a0000e9 	beq	cb14 <LocateFATEntry+0x42c>
    c76c:	e51b3024 	ldr	r3, [fp, #-36]	; 0xffffffdc
    c770:	e5d3300b 	ldrb	r3, [r3, #11]
    c774:	e3530008 	cmp	r3, #8
    c778:	0a0000e5 	beq	cb14 <LocateFATEntry+0x42c>
    c77c:	e51b3024 	ldr	r3, [fp, #-36]	; 0xffffffdc
    c780:	e5d3300b 	ldrb	r3, [r3, #11]
    c784:	e353000f 	cmp	r3, #15
    c788:	1a00002c 	bne	c840 <LocateFATEntry+0x158>
    c78c:	e24b3034 	sub	r3, fp, #52	; 0x34
    c790:	e3a02000 	mov	r2, #0
    c794:	e5832000 	str	r2, [r3]
    c798:	e5832004 	str	r2, [r3, #4]
    c79c:	e5832008 	str	r2, [r3, #8]
    c7a0:	e1c320bc 	strh	r2, [r3, #12]
    c7a4:	e51b303c 	ldr	r3, [fp, #-60]	; 0xffffffc4
    c7a8:	e593300c 	ldr	r3, [r3, #12]
    c7ac:	e2833010 	add	r3, r3, #16
    c7b0:	e51b203c 	ldr	r2, [fp, #-60]	; 0xffffffc4
    c7b4:	e0823003 	add	r3, r2, r3
    c7b8:	e24b2034 	sub	r2, fp, #52	; 0x34
    c7bc:	e1a01002 	mov	r1, r2
    c7c0:	e1a00003 	mov	r0, r3
    c7c4:	ebfffe5a 	bl	c134 <ReadLFNEntry>
    c7c8:	e1a03000 	mov	r3, r0
    c7cc:	e54b3025 	strb	r3, [fp, #-37]	; 0xffffffdb
    c7d0:	e3a03000 	mov	r3, #0
    c7d4:	e50b300c 	str	r3, [fp, #-12]
    c7d8:	ea00000f 	b	c81c <LocateFATEntry+0x134>
    c7dc:	e51b200c 	ldr	r2, [fp, #-12]
    c7e0:	e55b1025 	ldrb	r1, [fp, #-37]	; 0xffffffdb
    c7e4:	e51b3008 	ldr	r3, [fp, #-8]
    c7e8:	e0813003 	add	r3, r1, r3
    c7ec:	e0423003 	sub	r3, r2, r3
    c7f0:	e28330ff 	add	r3, r3, #255	; 0xff
    c7f4:	e51b2044 	ldr	r2, [fp, #-68]	; 0xffffffbc
    c7f8:	e0823003 	add	r3, r2, r3
    c7fc:	e24b1034 	sub	r1, fp, #52	; 0x34
    c800:	e51b200c 	ldr	r2, [fp, #-12]
    c804:	e0812002 	add	r2, r1, r2
    c808:	e5d22000 	ldrb	r2, [r2]
    c80c:	e5c32000 	strb	r2, [r3]
    c810:	e51b300c 	ldr	r3, [fp, #-12]
    c814:	e2833001 	add	r3, r3, #1
    c818:	e50b300c 	str	r3, [fp, #-12]
    c81c:	e55b3025 	ldrb	r3, [fp, #-37]	; 0xffffffdb
    c820:	e51b200c 	ldr	r2, [fp, #-12]
    c824:	e1520003 	cmp	r2, r3
    c828:	baffffeb 	blt	c7dc <LocateFATEntry+0xf4>
    c82c:	e55b3025 	ldrb	r3, [fp, #-37]	; 0xffffffdb
    c830:	e51b2008 	ldr	r2, [fp, #-8]
    c834:	e0823003 	add	r3, r2, r3
    c838:	e50b3008 	str	r3, [fp, #-8]
    c83c:	ea0000b4 	b	cb14 <LocateFATEntry+0x42c>
    c840:	e3a03000 	mov	r3, #0
    c844:	e50b3010 	str	r3, [fp, #-16]
    c848:	e51b3008 	ldr	r3, [fp, #-8]
    c84c:	e3530000 	cmp	r3, #0
    c850:	0a000039 	beq	c93c <LocateFATEntry+0x254>
    c854:	e3a03000 	mov	r3, #0
    c858:	e54b3011 	strb	r3, [fp, #-17]	; 0xffffffef
    c85c:	e3a03000 	mov	r3, #0
    c860:	e50b3018 	str	r3, [fp, #-24]	; 0xffffffe8
    c864:	ea000015 	b	c8c0 <LocateFATEntry+0x1d8>
    c868:	e51b2018 	ldr	r2, [fp, #-24]	; 0xffffffe8
    c86c:	e51b3008 	ldr	r3, [fp, #-8]
    c870:	e0423003 	sub	r3, r2, r3
    c874:	e28330ff 	add	r3, r3, #255	; 0xff
    c878:	e51b2044 	ldr	r2, [fp, #-68]	; 0xffffffbc
    c87c:	e0822003 	add	r2, r2, r3
    c880:	e51b3018 	ldr	r3, [fp, #-24]	; 0xffffffe8
    c884:	e51b1044 	ldr	r1, [fp, #-68]	; 0xffffffbc
    c888:	e0813003 	add	r3, r1, r3
    c88c:	e5d22000 	ldrb	r2, [r2]
    c890:	e5c32000 	strb	r2, [r3]
    c894:	e51b3018 	ldr	r3, [fp, #-24]	; 0xffffffe8
    c898:	e51b2044 	ldr	r2, [fp, #-68]	; 0xffffffbc
    c89c:	e0823003 	add	r3, r2, r3
    c8a0:	e5d33000 	ldrb	r3, [r3]
    c8a4:	e353002e 	cmp	r3, #46	; 0x2e
    c8a8:	1a000001 	bne	c8b4 <LocateFATEntry+0x1cc>
    c8ac:	e3a03001 	mov	r3, #1
    c8b0:	e54b3011 	strb	r3, [fp, #-17]	; 0xffffffef
    c8b4:	e51b3018 	ldr	r3, [fp, #-24]	; 0xffffffe8
    c8b8:	e2833001 	add	r3, r3, #1
    c8bc:	e50b3018 	str	r3, [fp, #-24]	; 0xffffffe8
    c8c0:	e51b3018 	ldr	r3, [fp, #-24]	; 0xffffffe8
    c8c4:	e51b2008 	ldr	r2, [fp, #-8]
    c8c8:	e1520003 	cmp	r2, r3
    c8cc:	8affffe5 	bhi	c868 <LocateFATEntry+0x180>
    c8d0:	e55b3011 	ldrb	r3, [fp, #-17]	; 0xffffffef
    c8d4:	e2233001 	eor	r3, r3, #1
    c8d8:	e6ef3073 	uxtb	r3, r3
    c8dc:	e3530000 	cmp	r3, #0
    c8e0:	0a00000d 	beq	c91c <LocateFATEntry+0x234>
    c8e4:	e55b303d 	ldrb	r3, [fp, #-61]	; 0xffffffc3
    c8e8:	e2233001 	eor	r3, r3, #1
    c8ec:	e6ef3073 	uxtb	r3, r3
    c8f0:	e3530000 	cmp	r3, #0
    c8f4:	0a000008 	beq	c91c <LocateFATEntry+0x234>
    c8f8:	e51b3008 	ldr	r3, [fp, #-8]
    c8fc:	e50b3010 	str	r3, [fp, #-16]
    c900:	e51b3008 	ldr	r3, [fp, #-8]
    c904:	e2832001 	add	r2, r3, #1
    c908:	e50b2008 	str	r2, [fp, #-8]
    c90c:	e51b2044 	ldr	r2, [fp, #-68]	; 0xffffffbc
    c910:	e0823003 	add	r3, r2, r3
    c914:	e3a0202e 	mov	r2, #46	; 0x2e
    c918:	e5c32000 	strb	r2, [r3]
    c91c:	e51b2044 	ldr	r2, [fp, #-68]	; 0xffffffbc
    c920:	e51b3008 	ldr	r3, [fp, #-8]
    c924:	e0823003 	add	r3, r2, r3
    c928:	e3a02000 	mov	r2, #0
    c92c:	e5c32000 	strb	r2, [r3]
    c930:	e3a03000 	mov	r3, #0
    c934:	e50b3008 	str	r3, [fp, #-8]
    c938:	ea000056 	b	ca98 <LocateFATEntry+0x3b0>
    c93c:	e3a03000 	mov	r3, #0
    c940:	e50b301c 	str	r3, [fp, #-28]	; 0xffffffe4
    c944:	ea00000a 	b	c974 <LocateFATEntry+0x28c>
    c948:	e51b301c 	ldr	r3, [fp, #-28]	; 0xffffffe4
    c94c:	e51b2044 	ldr	r2, [fp, #-68]	; 0xffffffbc
    c950:	e0823003 	add	r3, r2, r3
    c954:	e51b1024 	ldr	r1, [fp, #-36]	; 0xffffffdc
    c958:	e51b201c 	ldr	r2, [fp, #-28]	; 0xffffffe4
    c95c:	e0812002 	add	r2, r1, r2
    c960:	e5d22000 	ldrb	r2, [r2]
    c964:	e5c32000 	strb	r2, [r3]
    c968:	e51b301c 	ldr	r3, [fp, #-28]	; 0xffffffe4
    c96c:	e2833001 	add	r3, r3, #1
    c970:	e50b301c 	str	r3, [fp, #-28]	; 0xffffffe4
    c974:	e51b301c 	ldr	r3, [fp, #-28]	; 0xffffffe4
    c978:	e3530007 	cmp	r3, #7
    c97c:	ca00000b 	bgt	c9b0 <LocateFATEntry+0x2c8>
    c980:	e51b2024 	ldr	r2, [fp, #-36]	; 0xffffffdc
    c984:	e51b301c 	ldr	r3, [fp, #-28]	; 0xffffffe4
    c988:	e0823003 	add	r3, r2, r3
    c98c:	e5d33000 	ldrb	r3, [r3]
    c990:	e3530000 	cmp	r3, #0
    c994:	0a000005 	beq	c9b0 <LocateFATEntry+0x2c8>
    c998:	e51b2024 	ldr	r2, [fp, #-36]	; 0xffffffdc
    c99c:	e51b301c 	ldr	r3, [fp, #-28]	; 0xffffffe4
    c9a0:	e0823003 	add	r3, r2, r3
    c9a4:	e5d33000 	ldrb	r3, [r3]
    c9a8:	e3530020 	cmp	r3, #32
    c9ac:	1affffe5 	bne	c948 <LocateFATEntry+0x260>
    c9b0:	e55b303d 	ldrb	r3, [fp, #-61]	; 0xffffffc3
    c9b4:	e2233001 	eor	r3, r3, #1
    c9b8:	e6ef3073 	uxtb	r3, r3
    c9bc:	e3530000 	cmp	r3, #0
    c9c0:	0a00002f 	beq	ca84 <LocateFATEntry+0x39c>
    c9c4:	e51b301c 	ldr	r3, [fp, #-28]	; 0xffffffe4
    c9c8:	e2832001 	add	r2, r3, #1
    c9cc:	e50b201c 	str	r2, [fp, #-28]	; 0xffffffe4
    c9d0:	e1a02003 	mov	r2, r3
    c9d4:	e51b3044 	ldr	r3, [fp, #-68]	; 0xffffffbc
    c9d8:	e0833002 	add	r3, r3, r2
    c9dc:	e3a0202e 	mov	r2, #46	; 0x2e
    c9e0:	e5c32000 	strb	r2, [r3]
    c9e4:	e51b3024 	ldr	r3, [fp, #-36]	; 0xffffffdc
    c9e8:	e5d3300b 	ldrb	r3, [r3, #11]
    c9ec:	e3530010 	cmp	r3, #16
    c9f0:	0a000020 	beq	ca78 <LocateFATEntry+0x390>
    c9f4:	e3a03000 	mov	r3, #0
    c9f8:	e50b3020 	str	r3, [fp, #-32]	; 0xffffffe0
    c9fc:	ea00000d 	b	ca38 <LocateFATEntry+0x350>
    ca00:	e51b3020 	ldr	r3, [fp, #-32]	; 0xffffffe0
    ca04:	e2832008 	add	r2, r3, #8
    ca08:	e51b301c 	ldr	r3, [fp, #-28]	; 0xffffffe4
    ca0c:	e2831001 	add	r1, r3, #1
    ca10:	e50b101c 	str	r1, [fp, #-28]	; 0xffffffe4
    ca14:	e1a01003 	mov	r1, r3
    ca18:	e51b3044 	ldr	r3, [fp, #-68]	; 0xffffffbc
    ca1c:	e0833001 	add	r3, r3, r1
    ca20:	e51b1024 	ldr	r1, [fp, #-36]	; 0xffffffdc
    ca24:	e7d12002 	ldrb	r2, [r1, r2]
    ca28:	e5c32000 	strb	r2, [r3]
    ca2c:	e51b3020 	ldr	r3, [fp, #-32]	; 0xffffffe0
    ca30:	e2833001 	add	r3, r3, #1
    ca34:	e50b3020 	str	r3, [fp, #-32]	; 0xffffffe0
    ca38:	e51b3020 	ldr	r3, [fp, #-32]	; 0xffffffe0
    ca3c:	e3530002 	cmp	r3, #2
    ca40:	ca00000f 	bgt	ca84 <LocateFATEntry+0x39c>
    ca44:	e51b3020 	ldr	r3, [fp, #-32]	; 0xffffffe0
    ca48:	e2833008 	add	r3, r3, #8
    ca4c:	e51b2024 	ldr	r2, [fp, #-36]	; 0xffffffdc
    ca50:	e7d23003 	ldrb	r3, [r2, r3]
    ca54:	e3530000 	cmp	r3, #0
    ca58:	0a000009 	beq	ca84 <LocateFATEntry+0x39c>
    ca5c:	e51b3020 	ldr	r3, [fp, #-32]	; 0xffffffe0
    ca60:	e2833008 	add	r3, r3, #8
    ca64:	e51b2024 	ldr	r2, [fp, #-36]	; 0xffffffdc
    ca68:	e7d23003 	ldrb	r3, [r2, r3]
    ca6c:	e3530020 	cmp	r3, #32
    ca70:	1affffe2 	bne	ca00 <LocateFATEntry+0x318>
    ca74:	ea000002 	b	ca84 <LocateFATEntry+0x39c>
    ca78:	e51b301c 	ldr	r3, [fp, #-28]	; 0xffffffe4
    ca7c:	e2433001 	sub	r3, r3, #1
    ca80:	e50b3010 	str	r3, [fp, #-16]
    ca84:	e51b301c 	ldr	r3, [fp, #-28]	; 0xffffffe4
    ca88:	e51b2044 	ldr	r2, [fp, #-68]	; 0xffffffbc
    ca8c:	e0823003 	add	r3, r2, r3
    ca90:	e3a02000 	mov	r2, #0
    ca94:	e5c32000 	strb	r2, [r3]
    ca98:	e51b3024 	ldr	r3, [fp, #-36]	; 0xffffffdc
    ca9c:	e5d3300b 	ldrb	r3, [r3, #11]
    caa0:	e3530008 	cmp	r3, #8
    caa4:	0a00001a 	beq	cb14 <LocateFATEntry+0x42c>
    caa8:	e51b1044 	ldr	r1, [fp, #-68]	; 0xffffffbc
    caac:	e51b0038 	ldr	r0, [fp, #-56]	; 0xffffffc8
    cab0:	ebfffe3d 	bl	c3ac <WildcardMatch>
    cab4:	e1a03000 	mov	r3, r0
    cab8:	e3530000 	cmp	r3, #0
    cabc:	0a000014 	beq	cb14 <LocateFATEntry+0x42c>
    cac0:	e51b3010 	ldr	r3, [fp, #-16]
    cac4:	e3530000 	cmp	r3, #0
    cac8:	0a000004 	beq	cae0 <LocateFATEntry+0x3f8>
    cacc:	e51b2044 	ldr	r2, [fp, #-68]	; 0xffffffbc
    cad0:	e51b3010 	ldr	r3, [fp, #-16]
    cad4:	e0823003 	add	r3, r2, r3
    cad8:	e3a02000 	mov	r2, #0
    cadc:	e5c32000 	strb	r2, [r3]
    cae0:	e51b303c 	ldr	r3, [fp, #-60]	; 0xffffffc4
    cae4:	e593300c 	ldr	r3, [r3, #12]
    cae8:	e2832020 	add	r2, r3, #32
    caec:	e51b303c 	ldr	r3, [fp, #-60]	; 0xffffffc4
    caf0:	e583200c 	str	r2, [r3, #12]
    caf4:	e59b3004 	ldr	r3, [fp, #4]
    caf8:	e3530000 	cmp	r3, #0
    cafc:	0a000002 	beq	cb0c <LocateFATEntry+0x424>
    cb00:	e59b3004 	ldr	r3, [fp, #4]
    cb04:	e3a02000 	mov	r2, #0
    cb08:	e5832000 	str	r2, [r3]
    cb0c:	e51b3024 	ldr	r3, [fp, #-36]	; 0xffffffdc
    cb10:	ea000073 	b	cce4 <LocateFATEntry+0x5fc>
    cb14:	e51b303c 	ldr	r3, [fp, #-60]	; 0xffffffc4
    cb18:	e593300c 	ldr	r3, [r3, #12]
    cb1c:	e2832020 	add	r2, r3, #32
    cb20:	e51b303c 	ldr	r3, [fp, #-60]	; 0xffffffc4
    cb24:	e583200c 	str	r2, [r3, #12]
    cb28:	e51b303c 	ldr	r3, [fp, #-60]	; 0xffffffc4
    cb2c:	e593300c 	ldr	r3, [r3, #12]
    cb30:	e3530c02 	cmp	r3, #512	; 0x200
    cb34:	3afffef6 	bcc	c714 <LocateFATEntry+0x2c>
    cb38:	e51b303c 	ldr	r3, [fp, #-60]	; 0xffffffc4
    cb3c:	e5933008 	ldr	r3, [r3, #8]
    cb40:	e2832001 	add	r2, r3, #1
    cb44:	e51b303c 	ldr	r3, [fp, #-60]	; 0xffffffc4
    cb48:	e5832008 	str	r2, [r3, #8]
    cb4c:	e51b303c 	ldr	r3, [fp, #-60]	; 0xffffffc4
    cb50:	e5932008 	ldr	r2, [r3, #8]
    cb54:	e59f3194 	ldr	r3, [pc, #404]	; ccf0 <LocateFATEntry+0x608>
    cb58:	e08f3003 	add	r3, pc, r3
    cb5c:	e5933050 	ldr	r3, [r3, #80]	; 0x50
    cb60:	e1520003 	cmp	r2, r3
    cb64:	2a000017 	bcs	cbc8 <LocateFATEntry+0x4e0>
    cb68:	e51b303c 	ldr	r3, [fp, #-60]	; 0xffffffc4
    cb6c:	e3a02000 	mov	r2, #0
    cb70:	e583200c 	str	r2, [r3, #12]
    cb74:	e51b303c 	ldr	r3, [fp, #-60]	; 0xffffffc4
    cb78:	e5932004 	ldr	r2, [r3, #4]
    cb7c:	e51b303c 	ldr	r3, [fp, #-60]	; 0xffffffc4
    cb80:	e5933008 	ldr	r3, [r3, #8]
    cb84:	e0820003 	add	r0, r2, r3
    cb88:	e51b303c 	ldr	r3, [fp, #-60]	; 0xffffffc4
    cb8c:	e2832010 	add	r2, r3, #16
    cb90:	e3a03000 	mov	r3, #0
    cb94:	e3a01001 	mov	r1, #1
    cb98:	ebfff975 	bl	b174 <sdTransferBlocks>
    cb9c:	e1a03000 	mov	r3, r0
    cba0:	e3530000 	cmp	r3, #0
    cba4:	0a000007 	beq	cbc8 <LocateFATEntry+0x4e0>
    cba8:	e59b3004 	ldr	r3, [fp, #4]
    cbac:	e3530000 	cmp	r3, #0
    cbb0:	0a000002 	beq	cbc0 <LocateFATEntry+0x4d8>
    cbb4:	e59b3004 	ldr	r3, [fp, #4]
    cbb8:	e3a02003 	mov	r2, #3
    cbbc:	e5832000 	str	r2, [r3]
    cbc0:	e3a03000 	mov	r3, #0
    cbc4:	ea000046 	b	cce4 <LocateFATEntry+0x5fc>
    cbc8:	e51b303c 	ldr	r3, [fp, #-60]	; 0xffffffc4
    cbcc:	e5932008 	ldr	r2, [r3, #8]
    cbd0:	e59f311c 	ldr	r3, [pc, #284]	; ccf4 <LocateFATEntry+0x60c>
    cbd4:	e08f3003 	add	r3, pc, r3
    cbd8:	e5933050 	ldr	r3, [r3, #80]	; 0x50
    cbdc:	e1520003 	cmp	r2, r3
    cbe0:	3affffd0 	bcc	cb28 <LocateFATEntry+0x440>
    cbe4:	e51b303c 	ldr	r3, [fp, #-60]	; 0xffffffc4
    cbe8:	e5933000 	ldr	r3, [r3]
    cbec:	e3a02000 	mov	r2, #0
    cbf0:	e3a01000 	mov	r1, #0
    cbf4:	e1a00003 	mov	r0, r3
    cbf8:	ebfffc67 	bl	bd9c <getSetNextCluster>
    cbfc:	e1a02000 	mov	r2, r0
    cc00:	e51b303c 	ldr	r3, [fp, #-60]	; 0xffffffc4
    cc04:	e5832000 	str	r2, [r3]
    cc08:	e51b303c 	ldr	r3, [fp, #-60]	; 0xffffffc4
    cc0c:	e5930000 	ldr	r0, [r3]
    cc10:	e59f30e0 	ldr	r3, [pc, #224]	; ccf8 <LocateFATEntry+0x610>
    cc14:	e08f3003 	add	r3, pc, r3
    cc18:	e5931050 	ldr	r1, [r3, #80]	; 0x50
    cc1c:	e59f30d8 	ldr	r3, [pc, #216]	; ccfc <LocateFATEntry+0x614>
    cc20:	e08f3003 	add	r3, pc, r3
    cc24:	e5933058 	ldr	r3, [r3, #88]	; 0x58
    cc28:	e1a02003 	mov	r2, r3
    cc2c:	ebfffc4a 	bl	bd5c <getFirstSector>
    cc30:	e1a02000 	mov	r2, r0
    cc34:	e51b303c 	ldr	r3, [fp, #-60]	; 0xffffffc4
    cc38:	e5832004 	str	r2, [r3, #4]
    cc3c:	e51b303c 	ldr	r3, [fp, #-60]	; 0xffffffc4
    cc40:	e3a02000 	mov	r2, #0
    cc44:	e5832008 	str	r2, [r3, #8]
    cc48:	e51b303c 	ldr	r3, [fp, #-60]	; 0xffffffc4
    cc4c:	e3a02000 	mov	r2, #0
    cc50:	e583200c 	str	r2, [r3, #12]
    cc54:	e51b303c 	ldr	r3, [fp, #-60]	; 0xffffffc4
    cc58:	e5932004 	ldr	r2, [r3, #4]
    cc5c:	e51b303c 	ldr	r3, [fp, #-60]	; 0xffffffc4
    cc60:	e5933008 	ldr	r3, [r3, #8]
    cc64:	e0820003 	add	r0, r2, r3
    cc68:	e51b303c 	ldr	r3, [fp, #-60]	; 0xffffffc4
    cc6c:	e2832010 	add	r2, r3, #16
    cc70:	e3a03000 	mov	r3, #0
    cc74:	e3a01001 	mov	r1, #1
    cc78:	ebfff93d 	bl	b174 <sdTransferBlocks>
    cc7c:	e1a03000 	mov	r3, r0
    cc80:	e3530000 	cmp	r3, #0
    cc84:	0a000007 	beq	cca8 <LocateFATEntry+0x5c0>
    cc88:	e59b3004 	ldr	r3, [fp, #4]
    cc8c:	e3530000 	cmp	r3, #0
    cc90:	0a000002 	beq	cca0 <LocateFATEntry+0x5b8>
    cc94:	e59b3004 	ldr	r3, [fp, #4]
    cc98:	e3a02003 	mov	r2, #3
    cc9c:	e5832000 	str	r2, [r3]
    cca0:	e3a03000 	mov	r3, #0
    cca4:	ea00000e 	b	cce4 <LocateFATEntry+0x5fc>
    cca8:	e51b303c 	ldr	r3, [fp, #-60]	; 0xffffffc4
    ccac:	e5933000 	ldr	r3, [r3]
    ccb0:	e37302bf 	cmn	r3, #-268435445	; 0xf000000b
    ccb4:	8a000003 	bhi	ccc8 <LocateFATEntry+0x5e0>
    ccb8:	e51b303c 	ldr	r3, [fp, #-60]	; 0xffffffc4
    ccbc:	e5933000 	ldr	r3, [r3]
    ccc0:	e3530000 	cmp	r3, #0
    ccc4:	1affffbf 	bne	cbc8 <LocateFATEntry+0x4e0>
    ccc8:	e59b3004 	ldr	r3, [fp, #4]
    cccc:	e3530000 	cmp	r3, #0
    ccd0:	0a000002 	beq	cce0 <LocateFATEntry+0x5f8>
    ccd4:	e59b3004 	ldr	r3, [fp, #4]
    ccd8:	e3a02002 	mov	r2, #2
    ccdc:	e5832000 	str	r2, [r3]
    cce0:	e3a03000 	mov	r3, #0
    cce4:	e1a00003 	mov	r0, r3
    cce8:	e24bd004 	sub	sp, fp, #4
    ccec:	e8bd8800 	pop	{fp, pc}
    ccf0:	00009ed0 	ldrdeq	r9, [r0], -r0
    ccf4:	00009e54 	andeq	r9, r0, r4, asr lr
    ccf8:	00009e14 	andeq	r9, r0, r4, lsl lr
    ccfc:	00009e08 	andeq	r9, r0, r8, lsl #28

0000cd00 <CopyUnAlignedString>:
    cd00:	e52db004 	push	{fp}		; (str fp, [sp, #-4]!)
    cd04:	e28db000 	add	fp, sp, #0
    cd08:	e24dd00c 	sub	sp, sp, #12
    cd0c:	e50b0008 	str	r0, [fp, #-8]
    cd10:	e50b100c 	str	r1, [fp, #-12]
    cd14:	e51b300c 	ldr	r3, [fp, #-12]
    cd18:	e3530000 	cmp	r3, #0
    cd1c:	0a000014 	beq	cd74 <CopyUnAlignedString+0x74>
    cd20:	e51b3008 	ldr	r3, [fp, #-8]
    cd24:	e3530000 	cmp	r3, #0
    cd28:	0a000011 	beq	cd74 <CopyUnAlignedString+0x74>
    cd2c:	ea000007 	b	cd50 <CopyUnAlignedString+0x50>
    cd30:	e51b200c 	ldr	r2, [fp, #-12]
    cd34:	e2823001 	add	r3, r2, #1
    cd38:	e50b300c 	str	r3, [fp, #-12]
    cd3c:	e51b3008 	ldr	r3, [fp, #-8]
    cd40:	e2831001 	add	r1, r3, #1
    cd44:	e50b1008 	str	r1, [fp, #-8]
    cd48:	e5d22000 	ldrb	r2, [r2]
    cd4c:	e5c32000 	strb	r2, [r3]
    cd50:	e51b300c 	ldr	r3, [fp, #-12]
    cd54:	e5d33000 	ldrb	r3, [r3]
    cd58:	e3530000 	cmp	r3, #0
    cd5c:	1afffff3 	bne	cd30 <CopyUnAlignedString+0x30>
    cd60:	e51b3008 	ldr	r3, [fp, #-8]
    cd64:	e3a02000 	mov	r2, #0
    cd68:	e5c32000 	strb	r2, [r3]
    cd6c:	e3a03001 	mov	r3, #1
    cd70:	ea000000 	b	cd78 <CopyUnAlignedString+0x78>
    cd74:	e3a03000 	mov	r3, #0
    cd78:	e1a00003 	mov	r0, r3
    cd7c:	e28bd000 	add	sp, fp, #0
    cd80:	e49db004 	pop	{fp}		; (ldr fp, [sp], #4)
    cd84:	e12fff1e 	bx	lr

0000cd88 <sdFindFirstFile>:
    cd88:	e92d4800 	push	{fp, lr}
    cd8c:	e28db004 	add	fp, sp, #4
    cd90:	e24ddf4a 	sub	sp, sp, #296	; 0x128
    cd94:	e50b0120 	str	r0, [fp, #-288]	; 0xfffffee0
    cd98:	e50b1124 	str	r1, [fp, #-292]	; 0xfffffedc
    cd9c:	e3a03000 	mov	r3, #0
    cda0:	e50b301c 	str	r3, [fp, #-28]	; 0xffffffe4
    cda4:	e3a03000 	mov	r3, #0
    cda8:	e50b3008 	str	r3, [fp, #-8]
    cdac:	e51b3120 	ldr	r3, [fp, #-288]	; 0xfffffee0
    cdb0:	e3530000 	cmp	r3, #0
    cdb4:	0a000002 	beq	cdc4 <sdFindFirstFile+0x3c>
    cdb8:	e51b3124 	ldr	r3, [fp, #-292]	; 0xfffffedc
    cdbc:	e3530000 	cmp	r3, #0
    cdc0:	1a000001 	bne	cdcc <sdFindFirstFile+0x44>
    cdc4:	e3a03000 	mov	r3, #0
    cdc8:	ea000117 	b	d22c <sdFindFirstFile+0x4a4>
    cdcc:	e24b3f47 	sub	r3, fp, #284	; 0x11c
    cdd0:	e51b1120 	ldr	r1, [fp, #-288]	; 0xfffffee0
    cdd4:	e1a00003 	mov	r0, r3
    cdd8:	ebffffc8 	bl	cd00 <CopyUnAlignedString>
    cddc:	e24b3f47 	sub	r3, fp, #284	; 0x11c
    cde0:	e50b300c 	str	r3, [fp, #-12]
    cde4:	e51b300c 	ldr	r3, [fp, #-12]
    cde8:	e5d33000 	ldrb	r3, [r3]
    cdec:	e353005c 	cmp	r3, #92	; 0x5c
    cdf0:	1a000006 	bne	ce10 <sdFindFirstFile+0x88>
    cdf4:	e51b300c 	ldr	r3, [fp, #-12]
    cdf8:	e2833001 	add	r3, r3, #1
    cdfc:	e50b300c 	str	r3, [fp, #-12]
    ce00:	ea000002 	b	ce10 <sdFindFirstFile+0x88>
    ce04:	e51b3008 	ldr	r3, [fp, #-8]
    ce08:	e2833001 	add	r3, r3, #1
    ce0c:	e50b3008 	str	r3, [fp, #-8]
    ce10:	e59f2420 	ldr	r2, [pc, #1056]	; d238 <sdFindFirstFile+0x4b0>
    ce14:	e08f2002 	add	r2, pc, r2
    ce18:	e51b3008 	ldr	r3, [fp, #-8]
    ce1c:	e3a01e31 	mov	r1, #784	; 0x310
    ce20:	e0030391 	mul	r3, r1, r3
    ce24:	e0823003 	add	r3, r2, r3
    ce28:	e2833004 	add	r3, r3, #4
    ce2c:	e5933000 	ldr	r3, [r3]
    ce30:	e3530000 	cmp	r3, #0
    ce34:	0a000002 	beq	ce44 <sdFindFirstFile+0xbc>
    ce38:	e51b3008 	ldr	r3, [fp, #-8]
    ce3c:	e3530003 	cmp	r3, #3
    ce40:	daffffef 	ble	ce04 <sdFindFirstFile+0x7c>
    ce44:	e51b3008 	ldr	r3, [fp, #-8]
    ce48:	e3530004 	cmp	r3, #4
    ce4c:	0a0000f5 	beq	d228 <sdFindFirstFile+0x4a0>
    ce50:	e59f33e4 	ldr	r3, [pc, #996]	; d23c <sdFindFirstFile+0x4b4>
    ce54:	e08f3003 	add	r3, pc, r3
    ce58:	e593204c 	ldr	r2, [r3, #76]	; 0x4c
    ce5c:	e59f13dc 	ldr	r1, [pc, #988]	; d240 <sdFindFirstFile+0x4b8>
    ce60:	e08f1001 	add	r1, pc, r1
    ce64:	e51b3008 	ldr	r3, [fp, #-8]
    ce68:	e3a00e31 	mov	r0, #784	; 0x310
    ce6c:	e0030390 	mul	r3, r0, r3
    ce70:	e0813003 	add	r3, r1, r3
    ce74:	e5832000 	str	r2, [r3]
    ce78:	e59f33c4 	ldr	r3, [pc, #964]	; d244 <sdFindFirstFile+0x4bc>
    ce7c:	e08f3003 	add	r3, pc, r3
    ce80:	e593004c 	ldr	r0, [r3, #76]	; 0x4c
    ce84:	e59f33bc 	ldr	r3, [pc, #956]	; d248 <sdFindFirstFile+0x4c0>
    ce88:	e08f3003 	add	r3, pc, r3
    ce8c:	e5931050 	ldr	r1, [r3, #80]	; 0x50
    ce90:	e59f33b4 	ldr	r3, [pc, #948]	; d24c <sdFindFirstFile+0x4c4>
    ce94:	e08f3003 	add	r3, pc, r3
    ce98:	e5933058 	ldr	r3, [r3, #88]	; 0x58
    ce9c:	e1a02003 	mov	r2, r3
    cea0:	ebfffbad 	bl	bd5c <getFirstSector>
    cea4:	e59f23a4 	ldr	r2, [pc, #932]	; d250 <sdFindFirstFile+0x4c8>
    cea8:	e08f2002 	add	r2, pc, r2
    ceac:	e51b3008 	ldr	r3, [fp, #-8]
    ceb0:	e3a01e31 	mov	r1, #784	; 0x310
    ceb4:	e0030391 	mul	r3, r1, r3
    ceb8:	e0823003 	add	r3, r2, r3
    cebc:	e2833004 	add	r3, r3, #4
    cec0:	e5830000 	str	r0, [r3]
    cec4:	e59f2388 	ldr	r2, [pc, #904]	; d254 <sdFindFirstFile+0x4cc>
    cec8:	e08f2002 	add	r2, pc, r2
    cecc:	e51b3008 	ldr	r3, [fp, #-8]
    ced0:	e3a01e31 	mov	r1, #784	; 0x310
    ced4:	e0030391 	mul	r3, r1, r3
    ced8:	e0823003 	add	r3, r2, r3
    cedc:	e2833008 	add	r3, r3, #8
    cee0:	e3a02000 	mov	r2, #0
    cee4:	e5832000 	str	r2, [r3]
    cee8:	e59f2368 	ldr	r2, [pc, #872]	; d258 <sdFindFirstFile+0x4d0>
    ceec:	e08f2002 	add	r2, pc, r2
    cef0:	e51b3008 	ldr	r3, [fp, #-8]
    cef4:	e3a01e31 	mov	r1, #784	; 0x310
    cef8:	e0030391 	mul	r3, r1, r3
    cefc:	e0823003 	add	r3, r2, r3
    cf00:	e283300c 	add	r3, r3, #12
    cf04:	e3a02000 	mov	r2, #0
    cf08:	e5832000 	str	r2, [r3]
    cf0c:	e59f2348 	ldr	r2, [pc, #840]	; d25c <sdFindFirstFile+0x4d4>
    cf10:	e08f2002 	add	r2, pc, r2
    cf14:	e51b3008 	ldr	r3, [fp, #-8]
    cf18:	e3a01e31 	mov	r1, #784	; 0x310
    cf1c:	e0030391 	mul	r3, r1, r3
    cf20:	e0823003 	add	r3, r2, r3
    cf24:	e2833004 	add	r3, r3, #4
    cf28:	e5930000 	ldr	r0, [r3]
    cf2c:	e51b3008 	ldr	r3, [fp, #-8]
    cf30:	e3a02e31 	mov	r2, #784	; 0x310
    cf34:	e0030392 	mul	r3, r2, r3
    cf38:	e2833010 	add	r3, r3, #16
    cf3c:	e59f231c 	ldr	r2, [pc, #796]	; d260 <sdFindFirstFile+0x4d8>
    cf40:	e08f2002 	add	r2, pc, r2
    cf44:	e0832002 	add	r2, r3, r2
    cf48:	e3a03000 	mov	r3, #0
    cf4c:	e3a01001 	mov	r1, #1
    cf50:	ebfff887 	bl	b174 <sdTransferBlocks>
    cf54:	e1a03000 	mov	r3, r0
    cf58:	e3530000 	cmp	r3, #0
    cf5c:	1a0000a8 	bne	d204 <sdFindFirstFile+0x47c>
    cf60:	e3a0105c 	mov	r1, #92	; 0x5c
    cf64:	e51b000c 	ldr	r0, [fp, #-12]
    cf68:	fa0022f0 	blx	15b30 <strchr>
    cf6c:	e50b0014 	str	r0, [fp, #-20]	; 0xffffffec
    cf70:	e51b3014 	ldr	r3, [fp, #-20]	; 0xffffffec
    cf74:	e3530000 	cmp	r3, #0
    cf78:	0a000068 	beq	d120 <sdFindFirstFile+0x398>
    cf7c:	e51b3014 	ldr	r3, [fp, #-20]	; 0xffffffec
    cf80:	e3a02000 	mov	r2, #0
    cf84:	e5c32000 	strb	r2, [r3]
    cf88:	e51b3008 	ldr	r3, [fp, #-8]
    cf8c:	e3a02e31 	mov	r2, #784	; 0x310
    cf90:	e0030392 	mul	r3, r2, r3
    cf94:	e59f22c8 	ldr	r2, [pc, #712]	; d264 <sdFindFirstFile+0x4dc>
    cf98:	e08f2002 	add	r2, pc, r2
    cf9c:	e0831002 	add	r1, r3, r2
    cfa0:	e51b3124 	ldr	r3, [fp, #-292]	; 0xfffffedc
    cfa4:	e2832078 	add	r2, r3, #120	; 0x78
    cfa8:	e24b301c 	sub	r3, fp, #28
    cfac:	e58d3000 	str	r3, [sp]
    cfb0:	e1a03002 	mov	r3, r2
    cfb4:	e3a02001 	mov	r2, #1
    cfb8:	e51b000c 	ldr	r0, [fp, #-12]
    cfbc:	ebfffdc9 	bl	c6e8 <LocateFATEntry>
    cfc0:	e50b0018 	str	r0, [fp, #-24]	; 0xffffffe8
    cfc4:	e51b3018 	ldr	r3, [fp, #-24]	; 0xffffffe8
    cfc8:	e3530000 	cmp	r3, #0
    cfcc:	1a000001 	bne	cfd8 <sdFindFirstFile+0x250>
    cfd0:	e3a03000 	mov	r3, #0
    cfd4:	ea000094 	b	d22c <sdFindFirstFile+0x4a4>
    cfd8:	e51b3018 	ldr	r3, [fp, #-24]	; 0xffffffe8
    cfdc:	e1d331b4 	ldrh	r3, [r3, #20]
    cfe0:	e6ff3073 	uxth	r3, r3
    cfe4:	e1a03803 	lsl	r3, r3, #16
    cfe8:	e51b2018 	ldr	r2, [fp, #-24]	; 0xffffffe8
    cfec:	e1d221ba 	ldrh	r2, [r2, #26]
    cff0:	e6ff2072 	uxth	r2, r2
    cff4:	e1832002 	orr	r2, r3, r2
    cff8:	e59f1268 	ldr	r1, [pc, #616]	; d268 <sdFindFirstFile+0x4e0>
    cffc:	e08f1001 	add	r1, pc, r1
    d000:	e51b3008 	ldr	r3, [fp, #-8]
    d004:	e3a00e31 	mov	r0, #784	; 0x310
    d008:	e0030390 	mul	r3, r0, r3
    d00c:	e0813003 	add	r3, r1, r3
    d010:	e5832000 	str	r2, [r3]
    d014:	e59f2250 	ldr	r2, [pc, #592]	; d26c <sdFindFirstFile+0x4e4>
    d018:	e08f2002 	add	r2, pc, r2
    d01c:	e51b3008 	ldr	r3, [fp, #-8]
    d020:	e3a01e31 	mov	r1, #784	; 0x310
    d024:	e0030391 	mul	r3, r1, r3
    d028:	e0823003 	add	r3, r2, r3
    d02c:	e5930000 	ldr	r0, [r3]
    d030:	e59f3238 	ldr	r3, [pc, #568]	; d270 <sdFindFirstFile+0x4e8>
    d034:	e08f3003 	add	r3, pc, r3
    d038:	e5931050 	ldr	r1, [r3, #80]	; 0x50
    d03c:	e59f3230 	ldr	r3, [pc, #560]	; d274 <sdFindFirstFile+0x4ec>
    d040:	e08f3003 	add	r3, pc, r3
    d044:	e5933058 	ldr	r3, [r3, #88]	; 0x58
    d048:	e1a02003 	mov	r2, r3
    d04c:	ebfffb42 	bl	bd5c <getFirstSector>
    d050:	e59f2220 	ldr	r2, [pc, #544]	; d278 <sdFindFirstFile+0x4f0>
    d054:	e08f2002 	add	r2, pc, r2
    d058:	e51b3008 	ldr	r3, [fp, #-8]
    d05c:	e3a01e31 	mov	r1, #784	; 0x310
    d060:	e0030391 	mul	r3, r1, r3
    d064:	e0823003 	add	r3, r2, r3
    d068:	e2833004 	add	r3, r3, #4
    d06c:	e5830000 	str	r0, [r3]
    d070:	e59f2204 	ldr	r2, [pc, #516]	; d27c <sdFindFirstFile+0x4f4>
    d074:	e08f2002 	add	r2, pc, r2
    d078:	e51b3008 	ldr	r3, [fp, #-8]
    d07c:	e3a01e31 	mov	r1, #784	; 0x310
    d080:	e0030391 	mul	r3, r1, r3
    d084:	e0823003 	add	r3, r2, r3
    d088:	e2833008 	add	r3, r3, #8
    d08c:	e3a02000 	mov	r2, #0
    d090:	e5832000 	str	r2, [r3]
    d094:	e59f21e4 	ldr	r2, [pc, #484]	; d280 <sdFindFirstFile+0x4f8>
    d098:	e08f2002 	add	r2, pc, r2
    d09c:	e51b3008 	ldr	r3, [fp, #-8]
    d0a0:	e3a01e31 	mov	r1, #784	; 0x310
    d0a4:	e0030391 	mul	r3, r1, r3
    d0a8:	e0823003 	add	r3, r2, r3
    d0ac:	e283300c 	add	r3, r3, #12
    d0b0:	e3a02000 	mov	r2, #0
    d0b4:	e5832000 	str	r2, [r3]
    d0b8:	e59f21c4 	ldr	r2, [pc, #452]	; d284 <sdFindFirstFile+0x4fc>
    d0bc:	e08f2002 	add	r2, pc, r2
    d0c0:	e51b3008 	ldr	r3, [fp, #-8]
    d0c4:	e3a01e31 	mov	r1, #784	; 0x310
    d0c8:	e0030391 	mul	r3, r1, r3
    d0cc:	e0823003 	add	r3, r2, r3
    d0d0:	e2833004 	add	r3, r3, #4
    d0d4:	e5930000 	ldr	r0, [r3]
    d0d8:	e51b3008 	ldr	r3, [fp, #-8]
    d0dc:	e3a02e31 	mov	r2, #784	; 0x310
    d0e0:	e0030392 	mul	r3, r2, r3
    d0e4:	e2833010 	add	r3, r3, #16
    d0e8:	e59f2198 	ldr	r2, [pc, #408]	; d288 <sdFindFirstFile+0x500>
    d0ec:	e08f2002 	add	r2, pc, r2
    d0f0:	e0832002 	add	r2, r3, r2
    d0f4:	e3a03000 	mov	r3, #0
    d0f8:	e3a01001 	mov	r1, #1
    d0fc:	ebfff81c 	bl	b174 <sdTransferBlocks>
    d100:	e1a03000 	mov	r3, r0
    d104:	e3530000 	cmp	r3, #0
    d108:	0a000001 	beq	d114 <sdFindFirstFile+0x38c>
    d10c:	e3a03000 	mov	r3, #0
    d110:	ea000045 	b	d22c <sdFindFirstFile+0x4a4>
    d114:	e51b3014 	ldr	r3, [fp, #-20]	; 0xffffffec
    d118:	e2833001 	add	r3, r3, #1
    d11c:	e50b300c 	str	r3, [fp, #-12]
    d120:	e51b3014 	ldr	r3, [fp, #-20]	; 0xffffffec
    d124:	e3530000 	cmp	r3, #0
    d128:	1affff8c 	bne	cf60 <sdFindFirstFile+0x1d8>
    d12c:	e51b3008 	ldr	r3, [fp, #-8]
    d130:	e3a02e31 	mov	r2, #784	; 0x310
    d134:	e0030392 	mul	r3, r2, r3
    d138:	e59f214c 	ldr	r2, [pc, #332]	; d28c <sdFindFirstFile+0x504>
    d13c:	e08f2002 	add	r2, pc, r2
    d140:	e0831002 	add	r1, r3, r2
    d144:	e51b3124 	ldr	r3, [fp, #-292]	; 0xfffffedc
    d148:	e2832078 	add	r2, r3, #120	; 0x78
    d14c:	e24b301c 	sub	r3, fp, #28
    d150:	e58d3000 	str	r3, [sp]
    d154:	e1a03002 	mov	r3, r2
    d158:	e3a02000 	mov	r2, #0
    d15c:	e51b000c 	ldr	r0, [fp, #-12]
    d160:	ebfffd60 	bl	c6e8 <LocateFATEntry>
    d164:	e50b0018 	str	r0, [fp, #-24]	; 0xffffffe8
    d168:	e51b301c 	ldr	r3, [fp, #-28]	; 0xffffffe4
    d16c:	e3530000 	cmp	r3, #0
    d170:	1a000023 	bne	d204 <sdFindFirstFile+0x47c>
    d174:	e51b3018 	ldr	r3, [fp, #-24]	; 0xffffffe8
    d178:	e3530000 	cmp	r3, #0
    d17c:	0a000020 	beq	d204 <sdFindFirstFile+0x47c>
    d180:	e3a03000 	mov	r3, #0
    d184:	e50b3010 	str	r3, [fp, #-16]
    d188:	ea000011 	b	d1d4 <sdFindFirstFile+0x44c>
    d18c:	e51b3010 	ldr	r3, [fp, #-16]
    d190:	e51b200c 	ldr	r2, [fp, #-12]
    d194:	e0823003 	add	r3, r2, r3
    d198:	e5d30000 	ldrb	r0, [r3]
    d19c:	e59f20ec 	ldr	r2, [pc, #236]	; d290 <sdFindFirstFile+0x508>
    d1a0:	e08f2002 	add	r2, pc, r2
    d1a4:	e51b3008 	ldr	r3, [fp, #-8]
    d1a8:	e3a01e31 	mov	r1, #784	; 0x310
    d1ac:	e0030391 	mul	r3, r1, r3
    d1b0:	e0822003 	add	r2, r2, r3
    d1b4:	e51b3010 	ldr	r3, [fp, #-16]
    d1b8:	e0823003 	add	r3, r2, r3
    d1bc:	e2833e21 	add	r3, r3, #528	; 0x210
    d1c0:	e1a02000 	mov	r2, r0
    d1c4:	e5c32000 	strb	r2, [r3]
    d1c8:	e51b3010 	ldr	r3, [fp, #-16]
    d1cc:	e2833001 	add	r3, r3, #1
    d1d0:	e50b3010 	str	r3, [fp, #-16]
    d1d4:	e51b3010 	ldr	r3, [fp, #-16]
    d1d8:	e51b200c 	ldr	r2, [fp, #-12]
    d1dc:	e0823003 	add	r3, r2, r3
    d1e0:	e5d33000 	ldrb	r3, [r3]
    d1e4:	e3530000 	cmp	r3, #0
    d1e8:	1affffe7 	bne	d18c <sdFindFirstFile+0x404>
    d1ec:	e51b1124 	ldr	r1, [fp, #-292]	; 0xfffffedc
    d1f0:	e51b0018 	ldr	r0, [fp, #-24]	; 0xffffffe8
    d1f4:	ebfffb32 	bl	bec4 <SetFindDataFromFATEntry>
    d1f8:	e51b3008 	ldr	r3, [fp, #-8]
    d1fc:	e2833001 	add	r3, r3, #1
    d200:	ea000009 	b	d22c <sdFindFirstFile+0x4a4>
    d204:	e59f2088 	ldr	r2, [pc, #136]	; d294 <sdFindFirstFile+0x50c>
    d208:	e08f2002 	add	r2, pc, r2
    d20c:	e51b3008 	ldr	r3, [fp, #-8]
    d210:	e3a01e31 	mov	r1, #784	; 0x310
    d214:	e0030391 	mul	r3, r1, r3
    d218:	e0823003 	add	r3, r2, r3
    d21c:	e2833004 	add	r3, r3, #4
    d220:	e3a02000 	mov	r2, #0
    d224:	e5832000 	str	r2, [r3]
    d228:	e3a03000 	mov	r3, #0
    d22c:	e1a00003 	mov	r0, r3
    d230:	e24bd004 	sub	sp, fp, #4
    d234:	e8bd8800 	pop	{fp, pc}
    d238:	00009c8c 	andeq	r9, r0, ip, lsl #25
    d23c:	00009bd4 	ldrdeq	r9, [r0], -r4
    d240:	00009c40 	andeq	r9, r0, r0, asr #24
    d244:	00009bac 	andeq	r9, r0, ip, lsr #23
    d248:	00009ba0 	andeq	r9, r0, r0, lsr #23
    d24c:	00009b94 	muleq	r0, r4, fp
    d250:	00009bf8 	strdeq	r9, [r0], -r8
    d254:	00009bd8 	ldrdeq	r9, [r0], -r8
    d258:	00009bb4 			; <UNDEFINED> instruction: 0x00009bb4
    d25c:	00009b90 	muleq	r0, r0, fp
    d260:	00009b60 	andeq	r9, r0, r0, ror #22
    d264:	00009b08 	andeq	r9, r0, r8, lsl #22
    d268:	00009aa4 	andeq	r9, r0, r4, lsr #21
    d26c:	00009a88 	andeq	r9, r0, r8, lsl #21
    d270:	000099f4 	strdeq	r9, [r0], -r4
    d274:	000099e8 	andeq	r9, r0, r8, ror #19
    d278:	00009a4c 	andeq	r9, r0, ip, asr #20
    d27c:	00009a2c 	andeq	r9, r0, ip, lsr #20
    d280:	00009a08 	andeq	r9, r0, r8, lsl #20
    d284:	000099e4 	andeq	r9, r0, r4, ror #19
    d288:	000099b4 			; <UNDEFINED> instruction: 0x000099b4
    d28c:	00009964 	andeq	r9, r0, r4, ror #18
    d290:	00009900 	andeq	r9, r0, r0, lsl #18
    d294:	00009898 	muleq	r0, r8, r8

0000d298 <sdFindNextFile>:
    d298:	e92d4800 	push	{fp, lr}
    d29c:	e28db004 	add	fp, sp, #4
    d2a0:	e24dd018 	sub	sp, sp, #24
    d2a4:	e50b0010 	str	r0, [fp, #-16]
    d2a8:	e50b1014 	str	r1, [fp, #-20]	; 0xffffffec
    d2ac:	e3a03000 	mov	r3, #0
    d2b0:	e50b300c 	str	r3, [fp, #-12]
    d2b4:	e51b3010 	ldr	r3, [fp, #-16]
    d2b8:	e3530000 	cmp	r3, #0
    d2bc:	0a000039 	beq	d3a8 <sdFindNextFile+0x110>
    d2c0:	e51b3010 	ldr	r3, [fp, #-16]
    d2c4:	e3530004 	cmp	r3, #4
    d2c8:	8a000036 	bhi	d3a8 <sdFindNextFile+0x110>
    d2cc:	e51b3010 	ldr	r3, [fp, #-16]
    d2d0:	e2433001 	sub	r3, r3, #1
    d2d4:	e59f20dc 	ldr	r2, [pc, #220]	; d3b8 <sdFindNextFile+0x120>
    d2d8:	e08f2002 	add	r2, pc, r2
    d2dc:	e3a01e31 	mov	r1, #784	; 0x310
    d2e0:	e0030391 	mul	r3, r1, r3
    d2e4:	e0823003 	add	r3, r2, r3
    d2e8:	e2833004 	add	r3, r3, #4
    d2ec:	e5933000 	ldr	r3, [r3]
    d2f0:	e3530000 	cmp	r3, #0
    d2f4:	0a00002b 	beq	d3a8 <sdFindNextFile+0x110>
    d2f8:	e51b3010 	ldr	r3, [fp, #-16]
    d2fc:	e2433001 	sub	r3, r3, #1
    d300:	e3a02e31 	mov	r2, #784	; 0x310
    d304:	e0030392 	mul	r3, r2, r3
    d308:	e2833e21 	add	r3, r3, #528	; 0x210
    d30c:	e59f20a8 	ldr	r2, [pc, #168]	; d3bc <sdFindNextFile+0x124>
    d310:	e08f2002 	add	r2, pc, r2
    d314:	e0830002 	add	r0, r3, r2
    d318:	e51b3010 	ldr	r3, [fp, #-16]
    d31c:	e2433001 	sub	r3, r3, #1
    d320:	e3a02e31 	mov	r2, #784	; 0x310
    d324:	e0030392 	mul	r3, r2, r3
    d328:	e59f2090 	ldr	r2, [pc, #144]	; d3c0 <sdFindNextFile+0x128>
    d32c:	e08f2002 	add	r2, pc, r2
    d330:	e0831002 	add	r1, r3, r2
    d334:	e51b3014 	ldr	r3, [fp, #-20]	; 0xffffffec
    d338:	e2832078 	add	r2, r3, #120	; 0x78
    d33c:	e24b300c 	sub	r3, fp, #12
    d340:	e58d3000 	str	r3, [sp]
    d344:	e1a03002 	mov	r3, r2
    d348:	e3a02000 	mov	r2, #0
    d34c:	ebfffce5 	bl	c6e8 <LocateFATEntry>
    d350:	e50b0008 	str	r0, [fp, #-8]
    d354:	e51b300c 	ldr	r3, [fp, #-12]
    d358:	e3530000 	cmp	r3, #0
    d35c:	1a000007 	bne	d380 <sdFindNextFile+0xe8>
    d360:	e51b3008 	ldr	r3, [fp, #-8]
    d364:	e3530000 	cmp	r3, #0
    d368:	0a000004 	beq	d380 <sdFindNextFile+0xe8>
    d36c:	e51b1014 	ldr	r1, [fp, #-20]	; 0xffffffec
    d370:	e51b0008 	ldr	r0, [fp, #-8]
    d374:	ebfffad2 	bl	bec4 <SetFindDataFromFATEntry>
    d378:	e51b3010 	ldr	r3, [fp, #-16]
    d37c:	ea00000a 	b	d3ac <sdFindNextFile+0x114>
    d380:	e51b3010 	ldr	r3, [fp, #-16]
    d384:	e2433001 	sub	r3, r3, #1
    d388:	e59f2034 	ldr	r2, [pc, #52]	; d3c4 <sdFindNextFile+0x12c>
    d38c:	e08f2002 	add	r2, pc, r2
    d390:	e3a01e31 	mov	r1, #784	; 0x310
    d394:	e0030391 	mul	r3, r1, r3
    d398:	e0823003 	add	r3, r2, r3
    d39c:	e2833004 	add	r3, r3, #4
    d3a0:	e3a02000 	mov	r2, #0
    d3a4:	e5832000 	str	r2, [r3]
    d3a8:	e3a03000 	mov	r3, #0
    d3ac:	e1a00003 	mov	r0, r3
    d3b0:	e24bd004 	sub	sp, fp, #4
    d3b4:	e8bd8800 	pop	{fp, pc}
    d3b8:	000097c8 	andeq	r9, r0, r8, asr #15
    d3bc:	00009790 	muleq	r0, r0, r7
    d3c0:	00009774 	andeq	r9, r0, r4, ror r7
    d3c4:	00009714 	andeq	r9, r0, r4, lsl r7

0000d3c8 <sdFindClose>:
    d3c8:	e52db004 	push	{fp}		; (str fp, [sp, #-4]!)
    d3cc:	e28db000 	add	fp, sp, #0
    d3d0:	e24dd00c 	sub	sp, sp, #12
    d3d4:	e50b0008 	str	r0, [fp, #-8]
    d3d8:	e51b3008 	ldr	r3, [fp, #-8]
    d3dc:	e3530000 	cmp	r3, #0
    d3e0:	0a000019 	beq	d44c <sdFindClose+0x84>
    d3e4:	e51b3008 	ldr	r3, [fp, #-8]
    d3e8:	e3530004 	cmp	r3, #4
    d3ec:	8a000016 	bhi	d44c <sdFindClose+0x84>
    d3f0:	e51b3008 	ldr	r3, [fp, #-8]
    d3f4:	e2433001 	sub	r3, r3, #1
    d3f8:	e59f2060 	ldr	r2, [pc, #96]	; d460 <sdFindClose+0x98>
    d3fc:	e08f2002 	add	r2, pc, r2
    d400:	e3a01e31 	mov	r1, #784	; 0x310
    d404:	e0030391 	mul	r3, r1, r3
    d408:	e0823003 	add	r3, r2, r3
    d40c:	e2833004 	add	r3, r3, #4
    d410:	e5933000 	ldr	r3, [r3]
    d414:	e3530000 	cmp	r3, #0
    d418:	0a00000b 	beq	d44c <sdFindClose+0x84>
    d41c:	e51b3008 	ldr	r3, [fp, #-8]
    d420:	e2433001 	sub	r3, r3, #1
    d424:	e59f2038 	ldr	r2, [pc, #56]	; d464 <sdFindClose+0x9c>
    d428:	e08f2002 	add	r2, pc, r2
    d42c:	e3a01e31 	mov	r1, #784	; 0x310
    d430:	e0030391 	mul	r3, r1, r3
    d434:	e0823003 	add	r3, r2, r3
    d438:	e2833004 	add	r3, r3, #4
    d43c:	e3a02000 	mov	r2, #0
    d440:	e5832000 	str	r2, [r3]
    d444:	e3a03001 	mov	r3, #1
    d448:	ea000000 	b	d450 <sdFindClose+0x88>
    d44c:	e3a03000 	mov	r3, #0
    d450:	e1a00003 	mov	r0, r3
    d454:	e28bd000 	add	sp, fp, #0
    d458:	e49db004 	pop	{fp}		; (ldr fp, [sp], #4)
    d45c:	e12fff1e 	bx	lr
    d460:	000096a4 	andeq	r9, r0, r4, lsr #13
    d464:	00009678 	andeq	r9, r0, r8, ror r6

0000d468 <sdCreateFile>:
    d468:	e92d4800 	push	{fp, lr}
    d46c:	e28db004 	add	fp, sp, #4
    d470:	e24dde23 	sub	sp, sp, #560	; 0x230
    d474:	e50b0220 	str	r0, [fp, #-544]	; 0xfffffde0
    d478:	e50b1224 	str	r1, [fp, #-548]	; 0xfffffddc
    d47c:	e50b2228 	str	r2, [fp, #-552]	; 0xfffffdd8
    d480:	e50b322c 	str	r3, [fp, #-556]	; 0xfffffdd4
    d484:	e3a03000 	mov	r3, #0
    d488:	e50b3018 	str	r3, [fp, #-24]	; 0xffffffe8
    d48c:	e3a03000 	mov	r3, #0
    d490:	e50b3008 	str	r3, [fp, #-8]
    d494:	e51b3220 	ldr	r3, [fp, #-544]	; 0xfffffde0
    d498:	e3530000 	cmp	r3, #0
    d49c:	1a000001 	bne	d4a8 <sdCreateFile+0x40>
    d4a0:	e3a03000 	mov	r3, #0
    d4a4:	ea00015e 	b	da24 <sdCreateFile+0x5bc>
    d4a8:	e24b3f86 	sub	r3, fp, #536	; 0x218
    d4ac:	e51b1220 	ldr	r1, [fp, #-544]	; 0xfffffde0
    d4b0:	e1a00003 	mov	r0, r3
    d4b4:	ebfffe11 	bl	cd00 <CopyUnAlignedString>
    d4b8:	e24b3f86 	sub	r3, fp, #536	; 0x218
    d4bc:	e50b300c 	str	r3, [fp, #-12]
    d4c0:	e51b300c 	ldr	r3, [fp, #-12]
    d4c4:	e5d33000 	ldrb	r3, [r3]
    d4c8:	e353005c 	cmp	r3, #92	; 0x5c
    d4cc:	1a000006 	bne	d4ec <sdCreateFile+0x84>
    d4d0:	e51b300c 	ldr	r3, [fp, #-12]
    d4d4:	e2833001 	add	r3, r3, #1
    d4d8:	e50b300c 	str	r3, [fp, #-12]
    d4dc:	ea000002 	b	d4ec <sdCreateFile+0x84>
    d4e0:	e51b3008 	ldr	r3, [fp, #-8]
    d4e4:	e2833001 	add	r3, r3, #1
    d4e8:	e50b3008 	str	r3, [fp, #-8]
    d4ec:	e59f253c 	ldr	r2, [pc, #1340]	; da30 <sdCreateFile+0x5c8>
    d4f0:	e08f2002 	add	r2, pc, r2
    d4f4:	e51b3008 	ldr	r3, [fp, #-8]
    d4f8:	e3a01fc7 	mov	r1, #796	; 0x31c
    d4fc:	e0030391 	mul	r3, r1, r3
    d500:	e0823003 	add	r3, r2, r3
    d504:	e2833004 	add	r3, r3, #4
    d508:	e5933000 	ldr	r3, [r3]
    d50c:	e3530000 	cmp	r3, #0
    d510:	0a000002 	beq	d520 <sdCreateFile+0xb8>
    d514:	e51b3008 	ldr	r3, [fp, #-8]
    d518:	e3530007 	cmp	r3, #7
    d51c:	daffffef 	ble	d4e0 <sdCreateFile+0x78>
    d520:	e51b3008 	ldr	r3, [fp, #-8]
    d524:	e3530008 	cmp	r3, #8
    d528:	0a00013c 	beq	da20 <sdCreateFile+0x5b8>
    d52c:	e59f3500 	ldr	r3, [pc, #1280]	; da34 <sdCreateFile+0x5cc>
    d530:	e08f3003 	add	r3, pc, r3
    d534:	e593204c 	ldr	r2, [r3, #76]	; 0x4c
    d538:	e59f14f8 	ldr	r1, [pc, #1272]	; da38 <sdCreateFile+0x5d0>
    d53c:	e08f1001 	add	r1, pc, r1
    d540:	e51b3008 	ldr	r3, [fp, #-8]
    d544:	e3a00fc7 	mov	r0, #796	; 0x31c
    d548:	e0030390 	mul	r3, r0, r3
    d54c:	e0813003 	add	r3, r1, r3
    d550:	e5832000 	str	r2, [r3]
    d554:	e59f34e0 	ldr	r3, [pc, #1248]	; da3c <sdCreateFile+0x5d4>
    d558:	e08f3003 	add	r3, pc, r3
    d55c:	e593004c 	ldr	r0, [r3, #76]	; 0x4c
    d560:	e59f34d8 	ldr	r3, [pc, #1240]	; da40 <sdCreateFile+0x5d8>
    d564:	e08f3003 	add	r3, pc, r3
    d568:	e5931050 	ldr	r1, [r3, #80]	; 0x50
    d56c:	e59f34d0 	ldr	r3, [pc, #1232]	; da44 <sdCreateFile+0x5dc>
    d570:	e08f3003 	add	r3, pc, r3
    d574:	e5933058 	ldr	r3, [r3, #88]	; 0x58
    d578:	e1a02003 	mov	r2, r3
    d57c:	ebfff9f6 	bl	bd5c <getFirstSector>
    d580:	e59f24c0 	ldr	r2, [pc, #1216]	; da48 <sdCreateFile+0x5e0>
    d584:	e08f2002 	add	r2, pc, r2
    d588:	e51b3008 	ldr	r3, [fp, #-8]
    d58c:	e3a01fc7 	mov	r1, #796	; 0x31c
    d590:	e0030391 	mul	r3, r1, r3
    d594:	e0823003 	add	r3, r2, r3
    d598:	e2833004 	add	r3, r3, #4
    d59c:	e5830000 	str	r0, [r3]
    d5a0:	e59f24a4 	ldr	r2, [pc, #1188]	; da4c <sdCreateFile+0x5e4>
    d5a4:	e08f2002 	add	r2, pc, r2
    d5a8:	e51b3008 	ldr	r3, [fp, #-8]
    d5ac:	e3a01fc7 	mov	r1, #796	; 0x31c
    d5b0:	e0030391 	mul	r3, r1, r3
    d5b4:	e0823003 	add	r3, r2, r3
    d5b8:	e2833008 	add	r3, r3, #8
    d5bc:	e3a02000 	mov	r2, #0
    d5c0:	e5832000 	str	r2, [r3]
    d5c4:	e59f2484 	ldr	r2, [pc, #1156]	; da50 <sdCreateFile+0x5e8>
    d5c8:	e08f2002 	add	r2, pc, r2
    d5cc:	e51b3008 	ldr	r3, [fp, #-8]
    d5d0:	e3a01fc7 	mov	r1, #796	; 0x31c
    d5d4:	e0030391 	mul	r3, r1, r3
    d5d8:	e0823003 	add	r3, r2, r3
    d5dc:	e283300c 	add	r3, r3, #12
    d5e0:	e3a02000 	mov	r2, #0
    d5e4:	e5832000 	str	r2, [r3]
    d5e8:	e59f2464 	ldr	r2, [pc, #1124]	; da54 <sdCreateFile+0x5ec>
    d5ec:	e08f2002 	add	r2, pc, r2
    d5f0:	e51b3008 	ldr	r3, [fp, #-8]
    d5f4:	e3a01fc7 	mov	r1, #796	; 0x31c
    d5f8:	e0030391 	mul	r3, r1, r3
    d5fc:	e0823003 	add	r3, r2, r3
    d600:	e2833004 	add	r3, r3, #4
    d604:	e5930000 	ldr	r0, [r3]
    d608:	e51b3008 	ldr	r3, [fp, #-8]
    d60c:	e3a02fc7 	mov	r2, #796	; 0x31c
    d610:	e0030392 	mul	r3, r2, r3
    d614:	e2833010 	add	r3, r3, #16
    d618:	e59f2438 	ldr	r2, [pc, #1080]	; da58 <sdCreateFile+0x5f0>
    d61c:	e08f2002 	add	r2, pc, r2
    d620:	e0832002 	add	r2, r3, r2
    d624:	e3a03000 	mov	r3, #0
    d628:	e3a01001 	mov	r1, #1
    d62c:	ebfff6d0 	bl	b174 <sdTransferBlocks>
    d630:	e1a03000 	mov	r3, r0
    d634:	e3530000 	cmp	r3, #0
    d638:	1a0000f8 	bne	da20 <sdCreateFile+0x5b8>
    d63c:	e3a0105c 	mov	r1, #92	; 0x5c
    d640:	e51b000c 	ldr	r0, [fp, #-12]
    d644:	fa002139 	blx	15b30 <strchr>
    d648:	e50b0010 	str	r0, [fp, #-16]
    d64c:	e51b3010 	ldr	r3, [fp, #-16]
    d650:	e3530000 	cmp	r3, #0
    d654:	0a000067 	beq	d7f8 <sdCreateFile+0x390>
    d658:	e51b3010 	ldr	r3, [fp, #-16]
    d65c:	e3a02000 	mov	r2, #0
    d660:	e5c32000 	strb	r2, [r3]
    d664:	e51b3008 	ldr	r3, [fp, #-8]
    d668:	e3a02fc7 	mov	r2, #796	; 0x31c
    d66c:	e0030392 	mul	r3, r2, r3
    d670:	e59f23e4 	ldr	r2, [pc, #996]	; da5c <sdCreateFile+0x5f4>
    d674:	e08f2002 	add	r2, pc, r2
    d678:	e0831002 	add	r1, r3, r2
    d67c:	e24b2f46 	sub	r2, fp, #280	; 0x118
    d680:	e24b3018 	sub	r3, fp, #24
    d684:	e58d3000 	str	r3, [sp]
    d688:	e1a03002 	mov	r3, r2
    d68c:	e3a02001 	mov	r2, #1
    d690:	e51b000c 	ldr	r0, [fp, #-12]
    d694:	ebfffc13 	bl	c6e8 <LocateFATEntry>
    d698:	e50b0014 	str	r0, [fp, #-20]	; 0xffffffec
    d69c:	e51b3014 	ldr	r3, [fp, #-20]	; 0xffffffec
    d6a0:	e3530000 	cmp	r3, #0
    d6a4:	1a000001 	bne	d6b0 <sdCreateFile+0x248>
    d6a8:	e3a03000 	mov	r3, #0
    d6ac:	ea0000dc 	b	da24 <sdCreateFile+0x5bc>
    d6b0:	e51b3014 	ldr	r3, [fp, #-20]	; 0xffffffec
    d6b4:	e1d331b4 	ldrh	r3, [r3, #20]
    d6b8:	e6ff3073 	uxth	r3, r3
    d6bc:	e1a03803 	lsl	r3, r3, #16
    d6c0:	e51b2014 	ldr	r2, [fp, #-20]	; 0xffffffec
    d6c4:	e1d221ba 	ldrh	r2, [r2, #26]
    d6c8:	e6ff2072 	uxth	r2, r2
    d6cc:	e1832002 	orr	r2, r3, r2
    d6d0:	e59f1388 	ldr	r1, [pc, #904]	; da60 <sdCreateFile+0x5f8>
    d6d4:	e08f1001 	add	r1, pc, r1
    d6d8:	e51b3008 	ldr	r3, [fp, #-8]
    d6dc:	e3a00fc7 	mov	r0, #796	; 0x31c
    d6e0:	e0030390 	mul	r3, r0, r3
    d6e4:	e0813003 	add	r3, r1, r3
    d6e8:	e5832000 	str	r2, [r3]
    d6ec:	e59f2370 	ldr	r2, [pc, #880]	; da64 <sdCreateFile+0x5fc>
    d6f0:	e08f2002 	add	r2, pc, r2
    d6f4:	e51b3008 	ldr	r3, [fp, #-8]
    d6f8:	e3a01fc7 	mov	r1, #796	; 0x31c
    d6fc:	e0030391 	mul	r3, r1, r3
    d700:	e0823003 	add	r3, r2, r3
    d704:	e5930000 	ldr	r0, [r3]
    d708:	e59f3358 	ldr	r3, [pc, #856]	; da68 <sdCreateFile+0x600>
    d70c:	e08f3003 	add	r3, pc, r3
    d710:	e5931050 	ldr	r1, [r3, #80]	; 0x50
    d714:	e59f3350 	ldr	r3, [pc, #848]	; da6c <sdCreateFile+0x604>
    d718:	e08f3003 	add	r3, pc, r3
    d71c:	e5933058 	ldr	r3, [r3, #88]	; 0x58
    d720:	e1a02003 	mov	r2, r3
    d724:	ebfff98c 	bl	bd5c <getFirstSector>
    d728:	e59f2340 	ldr	r2, [pc, #832]	; da70 <sdCreateFile+0x608>
    d72c:	e08f2002 	add	r2, pc, r2
    d730:	e51b3008 	ldr	r3, [fp, #-8]
    d734:	e3a01fc7 	mov	r1, #796	; 0x31c
    d738:	e0030391 	mul	r3, r1, r3
    d73c:	e0823003 	add	r3, r2, r3
    d740:	e2833004 	add	r3, r3, #4
    d744:	e5830000 	str	r0, [r3]
    d748:	e59f2324 	ldr	r2, [pc, #804]	; da74 <sdCreateFile+0x60c>
    d74c:	e08f2002 	add	r2, pc, r2
    d750:	e51b3008 	ldr	r3, [fp, #-8]
    d754:	e3a01fc7 	mov	r1, #796	; 0x31c
    d758:	e0030391 	mul	r3, r1, r3
    d75c:	e0823003 	add	r3, r2, r3
    d760:	e2833008 	add	r3, r3, #8
    d764:	e3a02000 	mov	r2, #0
    d768:	e5832000 	str	r2, [r3]
    d76c:	e59f2304 	ldr	r2, [pc, #772]	; da78 <sdCreateFile+0x610>
    d770:	e08f2002 	add	r2, pc, r2
    d774:	e51b3008 	ldr	r3, [fp, #-8]
    d778:	e3a01fc7 	mov	r1, #796	; 0x31c
    d77c:	e0030391 	mul	r3, r1, r3
    d780:	e0823003 	add	r3, r2, r3
    d784:	e283300c 	add	r3, r3, #12
    d788:	e3a02000 	mov	r2, #0
    d78c:	e5832000 	str	r2, [r3]
    d790:	e59f22e4 	ldr	r2, [pc, #740]	; da7c <sdCreateFile+0x614>
    d794:	e08f2002 	add	r2, pc, r2
    d798:	e51b3008 	ldr	r3, [fp, #-8]
    d79c:	e3a01fc7 	mov	r1, #796	; 0x31c
    d7a0:	e0030391 	mul	r3, r1, r3
    d7a4:	e0823003 	add	r3, r2, r3
    d7a8:	e2833004 	add	r3, r3, #4
    d7ac:	e5930000 	ldr	r0, [r3]
    d7b0:	e51b3008 	ldr	r3, [fp, #-8]
    d7b4:	e3a02fc7 	mov	r2, #796	; 0x31c
    d7b8:	e0030392 	mul	r3, r2, r3
    d7bc:	e2833010 	add	r3, r3, #16
    d7c0:	e59f22b8 	ldr	r2, [pc, #696]	; da80 <sdCreateFile+0x618>
    d7c4:	e08f2002 	add	r2, pc, r2
    d7c8:	e0832002 	add	r2, r3, r2
    d7cc:	e3a03000 	mov	r3, #0
    d7d0:	e3a01001 	mov	r1, #1
    d7d4:	ebfff666 	bl	b174 <sdTransferBlocks>
    d7d8:	e1a03000 	mov	r3, r0
    d7dc:	e3530000 	cmp	r3, #0
    d7e0:	0a000001 	beq	d7ec <sdCreateFile+0x384>
    d7e4:	e3a03000 	mov	r3, #0
    d7e8:	ea00008d 	b	da24 <sdCreateFile+0x5bc>
    d7ec:	e51b3010 	ldr	r3, [fp, #-16]
    d7f0:	e2833001 	add	r3, r3, #1
    d7f4:	e50b300c 	str	r3, [fp, #-12]
    d7f8:	e51b3010 	ldr	r3, [fp, #-16]
    d7fc:	e3530000 	cmp	r3, #0
    d800:	1affff8d 	bne	d63c <sdCreateFile+0x1d4>
    d804:	e51b3008 	ldr	r3, [fp, #-8]
    d808:	e3a02fc7 	mov	r2, #796	; 0x31c
    d80c:	e0030392 	mul	r3, r2, r3
    d810:	e59f226c 	ldr	r2, [pc, #620]	; da84 <sdCreateFile+0x61c>
    d814:	e08f2002 	add	r2, pc, r2
    d818:	e0831002 	add	r1, r3, r2
    d81c:	e24b2f46 	sub	r2, fp, #280	; 0x118
    d820:	e24b3018 	sub	r3, fp, #24
    d824:	e58d3000 	str	r3, [sp]
    d828:	e1a03002 	mov	r3, r2
    d82c:	e3a02000 	mov	r2, #0
    d830:	e51b000c 	ldr	r0, [fp, #-12]
    d834:	ebfffbab 	bl	c6e8 <LocateFATEntry>
    d838:	e50b0014 	str	r0, [fp, #-20]	; 0xffffffec
    d83c:	e51b3018 	ldr	r3, [fp, #-24]	; 0xffffffe8
    d840:	e3530000 	cmp	r3, #0
    d844:	1a000075 	bne	da20 <sdCreateFile+0x5b8>
    d848:	e51b3014 	ldr	r3, [fp, #-20]	; 0xffffffec
    d84c:	e3530000 	cmp	r3, #0
    d850:	0a000072 	beq	da20 <sdCreateFile+0x5b8>
    d854:	e51b3014 	ldr	r3, [fp, #-20]	; 0xffffffec
    d858:	e1d331b4 	ldrh	r3, [r3, #20]
    d85c:	e6ff3073 	uxth	r3, r3
    d860:	e1a03803 	lsl	r3, r3, #16
    d864:	e51b2014 	ldr	r2, [fp, #-20]	; 0xffffffec
    d868:	e1d221ba 	ldrh	r2, [r2, #26]
    d86c:	e6ff2072 	uxth	r2, r2
    d870:	e1832002 	orr	r2, r3, r2
    d874:	e59f120c 	ldr	r1, [pc, #524]	; da88 <sdCreateFile+0x620>
    d878:	e08f1001 	add	r1, pc, r1
    d87c:	e51b3008 	ldr	r3, [fp, #-8]
    d880:	e3a00fc7 	mov	r0, #796	; 0x31c
    d884:	e0030390 	mul	r3, r0, r3
    d888:	e0813003 	add	r3, r1, r3
    d88c:	e2833e31 	add	r3, r3, #784	; 0x310
    d890:	e5832000 	str	r2, [r3]
    d894:	e59f21f0 	ldr	r2, [pc, #496]	; da8c <sdCreateFile+0x624>
    d898:	e08f2002 	add	r2, pc, r2
    d89c:	e51b3008 	ldr	r3, [fp, #-8]
    d8a0:	e3a01fc7 	mov	r1, #796	; 0x31c
    d8a4:	e0030391 	mul	r3, r1, r3
    d8a8:	e0823003 	add	r3, r2, r3
    d8ac:	e2833fc5 	add	r3, r3, #788	; 0x314
    d8b0:	e3a02000 	mov	r2, #0
    d8b4:	e5832000 	str	r2, [r3]
    d8b8:	e51b3014 	ldr	r3, [fp, #-20]	; 0xffffffec
    d8bc:	e593201c 	ldr	r2, [r3, #28]
    d8c0:	e59f11c8 	ldr	r1, [pc, #456]	; da90 <sdCreateFile+0x628>
    d8c4:	e08f1001 	add	r1, pc, r1
    d8c8:	e51b3008 	ldr	r3, [fp, #-8]
    d8cc:	e3a00fc7 	mov	r0, #796	; 0x31c
    d8d0:	e0030390 	mul	r3, r0, r3
    d8d4:	e0813003 	add	r3, r1, r3
    d8d8:	e2833fc6 	add	r3, r3, #792	; 0x318
    d8dc:	e5832000 	str	r2, [r3]
    d8e0:	e59f21ac 	ldr	r2, [pc, #428]	; da94 <sdCreateFile+0x62c>
    d8e4:	e08f2002 	add	r2, pc, r2
    d8e8:	e51b3008 	ldr	r3, [fp, #-8]
    d8ec:	e3a01fc7 	mov	r1, #796	; 0x31c
    d8f0:	e0030391 	mul	r3, r1, r3
    d8f4:	e0823003 	add	r3, r2, r3
    d8f8:	e2833e31 	add	r3, r3, #784	; 0x310
    d8fc:	e5932000 	ldr	r2, [r3]
    d900:	e59f1190 	ldr	r1, [pc, #400]	; da98 <sdCreateFile+0x630>
    d904:	e08f1001 	add	r1, pc, r1
    d908:	e51b3008 	ldr	r3, [fp, #-8]
    d90c:	e3a00fc7 	mov	r0, #796	; 0x31c
    d910:	e0030390 	mul	r3, r0, r3
    d914:	e0813003 	add	r3, r1, r3
    d918:	e5832000 	str	r2, [r3]
    d91c:	e59f2178 	ldr	r2, [pc, #376]	; da9c <sdCreateFile+0x634>
    d920:	e08f2002 	add	r2, pc, r2
    d924:	e51b3008 	ldr	r3, [fp, #-8]
    d928:	e3a01fc7 	mov	r1, #796	; 0x31c
    d92c:	e0030391 	mul	r3, r1, r3
    d930:	e0823003 	add	r3, r2, r3
    d934:	e5930000 	ldr	r0, [r3]
    d938:	e59f3160 	ldr	r3, [pc, #352]	; daa0 <sdCreateFile+0x638>
    d93c:	e08f3003 	add	r3, pc, r3
    d940:	e5931050 	ldr	r1, [r3, #80]	; 0x50
    d944:	e59f3158 	ldr	r3, [pc, #344]	; daa4 <sdCreateFile+0x63c>
    d948:	e08f3003 	add	r3, pc, r3
    d94c:	e5933058 	ldr	r3, [r3, #88]	; 0x58
    d950:	e1a02003 	mov	r2, r3
    d954:	ebfff900 	bl	bd5c <getFirstSector>
    d958:	e59f2148 	ldr	r2, [pc, #328]	; daa8 <sdCreateFile+0x640>
    d95c:	e08f2002 	add	r2, pc, r2
    d960:	e51b3008 	ldr	r3, [fp, #-8]
    d964:	e3a01fc7 	mov	r1, #796	; 0x31c
    d968:	e0030391 	mul	r3, r1, r3
    d96c:	e0823003 	add	r3, r2, r3
    d970:	e2833004 	add	r3, r3, #4
    d974:	e5830000 	str	r0, [r3]
    d978:	e59f212c 	ldr	r2, [pc, #300]	; daac <sdCreateFile+0x644>
    d97c:	e08f2002 	add	r2, pc, r2
    d980:	e51b3008 	ldr	r3, [fp, #-8]
    d984:	e3a01fc7 	mov	r1, #796	; 0x31c
    d988:	e0030391 	mul	r3, r1, r3
    d98c:	e0823003 	add	r3, r2, r3
    d990:	e2833008 	add	r3, r3, #8
    d994:	e3a02000 	mov	r2, #0
    d998:	e5832000 	str	r2, [r3]
    d99c:	e59f210c 	ldr	r2, [pc, #268]	; dab0 <sdCreateFile+0x648>
    d9a0:	e08f2002 	add	r2, pc, r2
    d9a4:	e51b3008 	ldr	r3, [fp, #-8]
    d9a8:	e3a01fc7 	mov	r1, #796	; 0x31c
    d9ac:	e0030391 	mul	r3, r1, r3
    d9b0:	e0823003 	add	r3, r2, r3
    d9b4:	e283300c 	add	r3, r3, #12
    d9b8:	e3a02000 	mov	r2, #0
    d9bc:	e5832000 	str	r2, [r3]
    d9c0:	e59f20ec 	ldr	r2, [pc, #236]	; dab4 <sdCreateFile+0x64c>
    d9c4:	e08f2002 	add	r2, pc, r2
    d9c8:	e51b3008 	ldr	r3, [fp, #-8]
    d9cc:	e3a01fc7 	mov	r1, #796	; 0x31c
    d9d0:	e0030391 	mul	r3, r1, r3
    d9d4:	e0823003 	add	r3, r2, r3
    d9d8:	e2833004 	add	r3, r3, #4
    d9dc:	e5930000 	ldr	r0, [r3]
    d9e0:	e51b3008 	ldr	r3, [fp, #-8]
    d9e4:	e3a02fc7 	mov	r2, #796	; 0x31c
    d9e8:	e0030392 	mul	r3, r2, r3
    d9ec:	e2833010 	add	r3, r3, #16
    d9f0:	e59f20c0 	ldr	r2, [pc, #192]	; dab8 <sdCreateFile+0x650>
    d9f4:	e08f2002 	add	r2, pc, r2
    d9f8:	e0832002 	add	r2, r3, r2
    d9fc:	e3a03000 	mov	r3, #0
    da00:	e3a01001 	mov	r1, #1
    da04:	ebfff5da 	bl	b174 <sdTransferBlocks>
    da08:	e1a03000 	mov	r3, r0
    da0c:	e3530000 	cmp	r3, #0
    da10:	1a000002 	bne	da20 <sdCreateFile+0x5b8>
    da14:	e51b3008 	ldr	r3, [fp, #-8]
    da18:	e2833001 	add	r3, r3, #1
    da1c:	ea000000 	b	da24 <sdCreateFile+0x5bc>
    da20:	e3a03000 	mov	r3, #0
    da24:	e1a00003 	mov	r0, r3
    da28:	e24bd004 	sub	sp, fp, #4
    da2c:	e8bd8800 	pop	{fp, pc}
    da30:	0000a1f0 	strdeq	sl, [r0], -r0
    da34:	000094f8 	strdeq	r9, [r0], -r8
    da38:	0000a1a4 	andeq	sl, r0, r4, lsr #3
    da3c:	000094d0 	ldrdeq	r9, [r0], -r0
    da40:	000094c4 	andeq	r9, r0, r4, asr #9
    da44:	000094b8 			; <UNDEFINED> instruction: 0x000094b8
    da48:	0000a15c 	andeq	sl, r0, ip, asr r1
    da4c:	0000a13c 	andeq	sl, r0, ip, lsr r1
    da50:	0000a118 	andeq	sl, r0, r8, lsl r1
    da54:	0000a0f4 	strdeq	sl, [r0], -r4
    da58:	0000a0c4 	andeq	sl, r0, r4, asr #1
    da5c:	0000a06c 	andeq	sl, r0, ip, rrx
    da60:	0000a00c 	andeq	sl, r0, ip
    da64:	00009ff0 	strdeq	r9, [r0], -r0
    da68:	0000931c 	andeq	r9, r0, ip, lsl r3
    da6c:	00009310 	andeq	r9, r0, r0, lsl r3
    da70:	00009fb4 			; <UNDEFINED> instruction: 0x00009fb4
    da74:	00009f94 	muleq	r0, r4, pc	; <UNPREDICTABLE>
    da78:	00009f70 	andeq	r9, r0, r0, ror pc
    da7c:	00009f4c 	andeq	r9, r0, ip, asr #30
    da80:	00009f1c 	andeq	r9, r0, ip, lsl pc
    da84:	00009ecc 	andeq	r9, r0, ip, asr #29
    da88:	00009e68 	andeq	r9, r0, r8, ror #28
    da8c:	00009e48 	andeq	r9, r0, r8, asr #28
    da90:	00009e1c 	andeq	r9, r0, ip, lsl lr
    da94:	00009dfc 	strdeq	r9, [r0], -ip
    da98:	00009ddc 	ldrdeq	r9, [r0], -ip
    da9c:	00009dc0 	andeq	r9, r0, r0, asr #27
    daa0:	000090ec 	andeq	r9, r0, ip, ror #1
    daa4:	000090e0 	andeq	r9, r0, r0, ror #1
    daa8:	00009d84 	andeq	r9, r0, r4, lsl #27
    daac:	00009d64 	andeq	r9, r0, r4, ror #26
    dab0:	00009d40 	andeq	r9, r0, r0, asr #26
    dab4:	00009d1c 	andeq	r9, r0, ip, lsl sp
    dab8:	00009cec 	andeq	r9, r0, ip, ror #25

0000dabc <sdReadFile>:
    dabc:	e92d4810 	push	{r4, fp, lr}
    dac0:	e28db008 	add	fp, sp, #8
    dac4:	e24dd01c 	sub	sp, sp, #28
    dac8:	e50b0018 	str	r0, [fp, #-24]	; 0xffffffe8
    dacc:	e50b101c 	str	r1, [fp, #-28]	; 0xffffffe4
    dad0:	e50b2020 	str	r2, [fp, #-32]	; 0xffffffe0
    dad4:	e50b3024 	str	r3, [fp, #-36]	; 0xffffffdc
    dad8:	e51b3018 	ldr	r3, [fp, #-24]	; 0xffffffe8
    dadc:	e3530000 	cmp	r3, #0
    dae0:	0a000157 	beq	e044 <sdReadFile+0x588>
    dae4:	e51b3018 	ldr	r3, [fp, #-24]	; 0xffffffe8
    dae8:	e3530008 	cmp	r3, #8
    daec:	8a000154 	bhi	e044 <sdReadFile+0x588>
    daf0:	e51b3018 	ldr	r3, [fp, #-24]	; 0xffffffe8
    daf4:	e2433001 	sub	r3, r3, #1
    daf8:	e59f2554 	ldr	r2, [pc, #1364]	; e054 <sdReadFile+0x598>
    dafc:	e08f2002 	add	r2, pc, r2
    db00:	e3a01fc7 	mov	r1, #796	; 0x31c
    db04:	e0030391 	mul	r3, r1, r3
    db08:	e0823003 	add	r3, r2, r3
    db0c:	e2833004 	add	r3, r3, #4
    db10:	e5933000 	ldr	r3, [r3]
    db14:	e3530000 	cmp	r3, #0
    db18:	0a000149 	beq	e044 <sdReadFile+0x588>
    db1c:	e3a03000 	mov	r3, #0
    db20:	e50b3010 	str	r3, [fp, #-16]
    db24:	e3a03000 	mov	r3, #0
    db28:	e50b3014 	str	r3, [fp, #-20]	; 0xffffffec
    db2c:	ea00012d 	b	dfe8 <sdReadFile+0x52c>
    db30:	e51b3018 	ldr	r3, [fp, #-24]	; 0xffffffe8
    db34:	e2431001 	sub	r1, r3, #1
    db38:	e51b3018 	ldr	r3, [fp, #-24]	; 0xffffffe8
    db3c:	e2432001 	sub	r2, r3, #1
    db40:	e59f0510 	ldr	r0, [pc, #1296]	; e058 <sdReadFile+0x59c>
    db44:	e08f0000 	add	r0, pc, r0
    db48:	e3a03fc7 	mov	r3, #796	; 0x31c
    db4c:	e0030293 	mul	r3, r3, r2
    db50:	e0803003 	add	r3, r0, r3
    db54:	e283300c 	add	r3, r3, #12
    db58:	e5933000 	ldr	r3, [r3]
    db5c:	e2830001 	add	r0, r3, #1
    db60:	e59fc4f4 	ldr	ip, [pc, #1268]	; e05c <sdReadFile+0x5a0>
    db64:	e08fc00c 	add	ip, pc, ip
    db68:	e3a0efc7 	mov	lr, #796	; 0x31c
    db6c:	e002029e 	mul	r2, lr, r2
    db70:	e08c2002 	add	r2, ip, r2
    db74:	e282200c 	add	r2, r2, #12
    db78:	e5820000 	str	r0, [r2]
    db7c:	e51b001c 	ldr	r0, [fp, #-28]	; 0xffffffe4
    db80:	e51b2010 	ldr	r2, [fp, #-16]
    db84:	e0802002 	add	r2, r0, r2
    db88:	e59f04d0 	ldr	r0, [pc, #1232]	; e060 <sdReadFile+0x5a4>
    db8c:	e08f0000 	add	r0, pc, r0
    db90:	e3a0cfc7 	mov	ip, #796	; 0x31c
    db94:	e001019c 	mul	r1, ip, r1
    db98:	e0801001 	add	r1, r0, r1
    db9c:	e0813003 	add	r3, r1, r3
    dba0:	e2833010 	add	r3, r3, #16
    dba4:	e5d33000 	ldrb	r3, [r3]
    dba8:	e5c23000 	strb	r3, [r2]
    dbac:	e51b3010 	ldr	r3, [fp, #-16]
    dbb0:	e2833001 	add	r3, r3, #1
    dbb4:	e50b3010 	str	r3, [fp, #-16]
    dbb8:	e51b3018 	ldr	r3, [fp, #-24]	; 0xffffffe8
    dbbc:	e2433001 	sub	r3, r3, #1
    dbc0:	e59f149c 	ldr	r1, [pc, #1180]	; e064 <sdReadFile+0x5a8>
    dbc4:	e08f1001 	add	r1, pc, r1
    dbc8:	e3a02fc7 	mov	r2, #796	; 0x31c
    dbcc:	e0020392 	mul	r2, r2, r3
    dbd0:	e0812002 	add	r2, r1, r2
    dbd4:	e2822fc5 	add	r2, r2, #788	; 0x314
    dbd8:	e5922000 	ldr	r2, [r2]
    dbdc:	e2822001 	add	r2, r2, #1
    dbe0:	e59f1480 	ldr	r1, [pc, #1152]	; e068 <sdReadFile+0x5ac>
    dbe4:	e08f1001 	add	r1, pc, r1
    dbe8:	e3a00fc7 	mov	r0, #796	; 0x31c
    dbec:	e0030390 	mul	r3, r0, r3
    dbf0:	e0813003 	add	r3, r1, r3
    dbf4:	e2833fc5 	add	r3, r3, #788	; 0x314
    dbf8:	e5832000 	str	r2, [r3]
    dbfc:	e51b2020 	ldr	r2, [fp, #-32]	; 0xffffffe0
    dc00:	e51b3010 	ldr	r3, [fp, #-16]
    dc04:	e1520003 	cmp	r2, r3
    dc08:	9a00001e 	bls	dc88 <sdReadFile+0x1cc>
    dc0c:	e51b3018 	ldr	r3, [fp, #-24]	; 0xffffffe8
    dc10:	e2433001 	sub	r3, r3, #1
    dc14:	e59f2450 	ldr	r2, [pc, #1104]	; e06c <sdReadFile+0x5b0>
    dc18:	e08f2002 	add	r2, pc, r2
    dc1c:	e3a01fc7 	mov	r1, #796	; 0x31c
    dc20:	e0030391 	mul	r3, r1, r3
    dc24:	e0823003 	add	r3, r2, r3
    dc28:	e2833fc5 	add	r3, r3, #788	; 0x314
    dc2c:	e5932000 	ldr	r2, [r3]
    dc30:	e51b3018 	ldr	r3, [fp, #-24]	; 0xffffffe8
    dc34:	e2433001 	sub	r3, r3, #1
    dc38:	e59f1430 	ldr	r1, [pc, #1072]	; e070 <sdReadFile+0x5b4>
    dc3c:	e08f1001 	add	r1, pc, r1
    dc40:	e3a00fc7 	mov	r0, #796	; 0x31c
    dc44:	e0030390 	mul	r3, r0, r3
    dc48:	e0813003 	add	r3, r1, r3
    dc4c:	e2833fc6 	add	r3, r3, #792	; 0x318
    dc50:	e5933000 	ldr	r3, [r3]
    dc54:	e1520003 	cmp	r2, r3
    dc58:	2a00000a 	bcs	dc88 <sdReadFile+0x1cc>
    dc5c:	e51b3018 	ldr	r3, [fp, #-24]	; 0xffffffe8
    dc60:	e2433001 	sub	r3, r3, #1
    dc64:	e59f2408 	ldr	r2, [pc, #1032]	; e074 <sdReadFile+0x5b8>
    dc68:	e08f2002 	add	r2, pc, r2
    dc6c:	e3a01fc7 	mov	r1, #796	; 0x31c
    dc70:	e0030391 	mul	r3, r1, r3
    dc74:	e0823003 	add	r3, r2, r3
    dc78:	e283300c 	add	r3, r3, #12
    dc7c:	e5933000 	ldr	r3, [r3]
    dc80:	e3530c02 	cmp	r3, #512	; 0x200
    dc84:	3affffa9 	bcc	db30 <sdReadFile+0x74>
    dc88:	e51b2020 	ldr	r2, [fp, #-32]	; 0xffffffe0
    dc8c:	e51b3010 	ldr	r3, [fp, #-16]
    dc90:	e1520003 	cmp	r2, r3
    dc94:	1a000007 	bne	dcb8 <sdReadFile+0x1fc>
    dc98:	e51b3024 	ldr	r3, [fp, #-36]	; 0xffffffdc
    dc9c:	e3530000 	cmp	r3, #0
    dca0:	0a000002 	beq	dcb0 <sdReadFile+0x1f4>
    dca4:	e51b3024 	ldr	r3, [fp, #-36]	; 0xffffffdc
    dca8:	e51b2010 	ldr	r2, [fp, #-16]
    dcac:	e5832000 	str	r2, [r3]
    dcb0:	e3a03001 	mov	r3, #1
    dcb4:	ea0000e3 	b	e048 <sdReadFile+0x58c>
    dcb8:	e51b3018 	ldr	r3, [fp, #-24]	; 0xffffffe8
    dcbc:	e2433001 	sub	r3, r3, #1
    dcc0:	e59f23b0 	ldr	r2, [pc, #944]	; e078 <sdReadFile+0x5bc>
    dcc4:	e08f2002 	add	r2, pc, r2
    dcc8:	e3a01fc7 	mov	r1, #796	; 0x31c
    dccc:	e0030391 	mul	r3, r1, r3
    dcd0:	e0823003 	add	r3, r2, r3
    dcd4:	e2833fc5 	add	r3, r3, #788	; 0x314
    dcd8:	e5932000 	ldr	r2, [r3]
    dcdc:	e51b3018 	ldr	r3, [fp, #-24]	; 0xffffffe8
    dce0:	e2433001 	sub	r3, r3, #1
    dce4:	e59f1390 	ldr	r1, [pc, #912]	; e07c <sdReadFile+0x5c0>
    dce8:	e08f1001 	add	r1, pc, r1
    dcec:	e3a00fc7 	mov	r0, #796	; 0x31c
    dcf0:	e0030390 	mul	r3, r0, r3
    dcf4:	e0813003 	add	r3, r1, r3
    dcf8:	e2833fc6 	add	r3, r3, #792	; 0x318
    dcfc:	e5933000 	ldr	r3, [r3]
    dd00:	e1520003 	cmp	r2, r3
    dd04:	3a000007 	bcc	dd28 <sdReadFile+0x26c>
    dd08:	e51b3024 	ldr	r3, [fp, #-36]	; 0xffffffdc
    dd0c:	e3530000 	cmp	r3, #0
    dd10:	0a000002 	beq	dd20 <sdReadFile+0x264>
    dd14:	e51b3024 	ldr	r3, [fp, #-36]	; 0xffffffdc
    dd18:	e51b2010 	ldr	r2, [fp, #-16]
    dd1c:	e5832000 	str	r2, [r3]
    dd20:	e3a03000 	mov	r3, #0
    dd24:	ea0000c7 	b	e048 <sdReadFile+0x58c>
    dd28:	e51b3018 	ldr	r3, [fp, #-24]	; 0xffffffe8
    dd2c:	e2433001 	sub	r3, r3, #1
    dd30:	e59f1348 	ldr	r1, [pc, #840]	; e080 <sdReadFile+0x5c4>
    dd34:	e08f1001 	add	r1, pc, r1
    dd38:	e3a02fc7 	mov	r2, #796	; 0x31c
    dd3c:	e0020392 	mul	r2, r2, r3
    dd40:	e0812002 	add	r2, r1, r2
    dd44:	e2822008 	add	r2, r2, #8
    dd48:	e5922000 	ldr	r2, [r2]
    dd4c:	e2822001 	add	r2, r2, #1
    dd50:	e59f132c 	ldr	r1, [pc, #812]	; e084 <sdReadFile+0x5c8>
    dd54:	e08f1001 	add	r1, pc, r1
    dd58:	e3a00fc7 	mov	r0, #796	; 0x31c
    dd5c:	e0030390 	mul	r3, r0, r3
    dd60:	e0813003 	add	r3, r1, r3
    dd64:	e2833008 	add	r3, r3, #8
    dd68:	e5832000 	str	r2, [r3]
    dd6c:	e51b3018 	ldr	r3, [fp, #-24]	; 0xffffffe8
    dd70:	e2433001 	sub	r3, r3, #1
    dd74:	e59f230c 	ldr	r2, [pc, #780]	; e088 <sdReadFile+0x5cc>
    dd78:	e08f2002 	add	r2, pc, r2
    dd7c:	e3a01fc7 	mov	r1, #796	; 0x31c
    dd80:	e0030391 	mul	r3, r1, r3
    dd84:	e0823003 	add	r3, r2, r3
    dd88:	e2833008 	add	r3, r3, #8
    dd8c:	e5932000 	ldr	r2, [r3]
    dd90:	e59f32f4 	ldr	r3, [pc, #756]	; e08c <sdReadFile+0x5d0>
    dd94:	e08f3003 	add	r3, pc, r3
    dd98:	e5933050 	ldr	r3, [r3, #80]	; 0x50
    dd9c:	e1520003 	cmp	r2, r3
    dda0:	2a00002c 	bcs	de58 <sdReadFile+0x39c>
    dda4:	e51b3018 	ldr	r3, [fp, #-24]	; 0xffffffe8
    dda8:	e2433001 	sub	r3, r3, #1
    ddac:	e59f22dc 	ldr	r2, [pc, #732]	; e090 <sdReadFile+0x5d4>
    ddb0:	e08f2002 	add	r2, pc, r2
    ddb4:	e3a01fc7 	mov	r1, #796	; 0x31c
    ddb8:	e0030391 	mul	r3, r1, r3
    ddbc:	e0823003 	add	r3, r2, r3
    ddc0:	e283300c 	add	r3, r3, #12
    ddc4:	e3a02000 	mov	r2, #0
    ddc8:	e5832000 	str	r2, [r3]
    ddcc:	e51b3018 	ldr	r3, [fp, #-24]	; 0xffffffe8
    ddd0:	e2433001 	sub	r3, r3, #1
    ddd4:	e59f22b8 	ldr	r2, [pc, #696]	; e094 <sdReadFile+0x5d8>
    ddd8:	e08f2002 	add	r2, pc, r2
    dddc:	e3a01fc7 	mov	r1, #796	; 0x31c
    dde0:	e0030391 	mul	r3, r1, r3
    dde4:	e0823003 	add	r3, r2, r3
    dde8:	e2833004 	add	r3, r3, #4
    ddec:	e5932000 	ldr	r2, [r3]
    ddf0:	e51b3018 	ldr	r3, [fp, #-24]	; 0xffffffe8
    ddf4:	e2433001 	sub	r3, r3, #1
    ddf8:	e59f1298 	ldr	r1, [pc, #664]	; e098 <sdReadFile+0x5dc>
    ddfc:	e08f1001 	add	r1, pc, r1
    de00:	e3a00fc7 	mov	r0, #796	; 0x31c
    de04:	e0030390 	mul	r3, r0, r3
    de08:	e0813003 	add	r3, r1, r3
    de0c:	e2833008 	add	r3, r3, #8
    de10:	e5933000 	ldr	r3, [r3]
    de14:	e0820003 	add	r0, r2, r3
    de18:	e51b3018 	ldr	r3, [fp, #-24]	; 0xffffffe8
    de1c:	e2433001 	sub	r3, r3, #1
    de20:	e3a02fc7 	mov	r2, #796	; 0x31c
    de24:	e0030392 	mul	r3, r2, r3
    de28:	e2833010 	add	r3, r3, #16
    de2c:	e59f2268 	ldr	r2, [pc, #616]	; e09c <sdReadFile+0x5e0>
    de30:	e08f2002 	add	r2, pc, r2
    de34:	e0832002 	add	r2, r3, r2
    de38:	e3a03000 	mov	r3, #0
    de3c:	e3a01001 	mov	r1, #1
    de40:	ebfff4cb 	bl	b174 <sdTransferBlocks>
    de44:	e1a03000 	mov	r3, r0
    de48:	e3530000 	cmp	r3, #0
    de4c:	0a000065 	beq	dfe8 <sdReadFile+0x52c>
    de50:	e3a03000 	mov	r3, #0
    de54:	ea00007b 	b	e048 <sdReadFile+0x58c>
    de58:	e51b3018 	ldr	r3, [fp, #-24]	; 0xffffffe8
    de5c:	e2433001 	sub	r3, r3, #1
    de60:	e59f2238 	ldr	r2, [pc, #568]	; e0a0 <sdReadFile+0x5e4>
    de64:	e08f2002 	add	r2, pc, r2
    de68:	e3a01fc7 	mov	r1, #796	; 0x31c
    de6c:	e0030391 	mul	r3, r1, r3
    de70:	e0823003 	add	r3, r2, r3
    de74:	e5930000 	ldr	r0, [r3]
    de78:	e51b3018 	ldr	r3, [fp, #-24]	; 0xffffffe8
    de7c:	e2434001 	sub	r4, r3, #1
    de80:	e3a02000 	mov	r2, #0
    de84:	e3a01000 	mov	r1, #0
    de88:	ebfff7c3 	bl	bd9c <getSetNextCluster>
    de8c:	e1a01000 	mov	r1, r0
    de90:	e59f220c 	ldr	r2, [pc, #524]	; e0a4 <sdReadFile+0x5e8>
    de94:	e08f2002 	add	r2, pc, r2
    de98:	e3a03fc7 	mov	r3, #796	; 0x31c
    de9c:	e0030493 	mul	r3, r3, r4
    dea0:	e0823003 	add	r3, r2, r3
    dea4:	e5831000 	str	r1, [r3]
    dea8:	e51b3018 	ldr	r3, [fp, #-24]	; 0xffffffe8
    deac:	e2433001 	sub	r3, r3, #1
    deb0:	e59f21f0 	ldr	r2, [pc, #496]	; e0a8 <sdReadFile+0x5ec>
    deb4:	e08f2002 	add	r2, pc, r2
    deb8:	e3a01fc7 	mov	r1, #796	; 0x31c
    debc:	e0030391 	mul	r3, r1, r3
    dec0:	e0823003 	add	r3, r2, r3
    dec4:	e5930000 	ldr	r0, [r3]
    dec8:	e59f31dc 	ldr	r3, [pc, #476]	; e0ac <sdReadFile+0x5f0>
    decc:	e08f3003 	add	r3, pc, r3
    ded0:	e5931050 	ldr	r1, [r3, #80]	; 0x50
    ded4:	e59f31d4 	ldr	r3, [pc, #468]	; e0b0 <sdReadFile+0x5f4>
    ded8:	e08f3003 	add	r3, pc, r3
    dedc:	e5932058 	ldr	r2, [r3, #88]	; 0x58
    dee0:	e51b3018 	ldr	r3, [fp, #-24]	; 0xffffffe8
    dee4:	e2434001 	sub	r4, r3, #1
    dee8:	ebfff79b 	bl	bd5c <getFirstSector>
    deec:	e1a01000 	mov	r1, r0
    def0:	e59f21bc 	ldr	r2, [pc, #444]	; e0b4 <sdReadFile+0x5f8>
    def4:	e08f2002 	add	r2, pc, r2
    def8:	e3a03fc7 	mov	r3, #796	; 0x31c
    defc:	e0030493 	mul	r3, r3, r4
    df00:	e0823003 	add	r3, r2, r3
    df04:	e2833004 	add	r3, r3, #4
    df08:	e5831000 	str	r1, [r3]
    df0c:	e51b3018 	ldr	r3, [fp, #-24]	; 0xffffffe8
    df10:	e2433001 	sub	r3, r3, #1
    df14:	e59f219c 	ldr	r2, [pc, #412]	; e0b8 <sdReadFile+0x5fc>
    df18:	e08f2002 	add	r2, pc, r2
    df1c:	e3a01fc7 	mov	r1, #796	; 0x31c
    df20:	e0030391 	mul	r3, r1, r3
    df24:	e0823003 	add	r3, r2, r3
    df28:	e2833008 	add	r3, r3, #8
    df2c:	e3a02000 	mov	r2, #0
    df30:	e5832000 	str	r2, [r3]
    df34:	e51b3018 	ldr	r3, [fp, #-24]	; 0xffffffe8
    df38:	e2433001 	sub	r3, r3, #1
    df3c:	e59f2178 	ldr	r2, [pc, #376]	; e0bc <sdReadFile+0x600>
    df40:	e08f2002 	add	r2, pc, r2
    df44:	e3a01fc7 	mov	r1, #796	; 0x31c
    df48:	e0030391 	mul	r3, r1, r3
    df4c:	e0823003 	add	r3, r2, r3
    df50:	e283300c 	add	r3, r3, #12
    df54:	e3a02000 	mov	r2, #0
    df58:	e5832000 	str	r2, [r3]
    df5c:	e51b3018 	ldr	r3, [fp, #-24]	; 0xffffffe8
    df60:	e2433001 	sub	r3, r3, #1
    df64:	e59f2154 	ldr	r2, [pc, #340]	; e0c0 <sdReadFile+0x604>
    df68:	e08f2002 	add	r2, pc, r2
    df6c:	e3a01fc7 	mov	r1, #796	; 0x31c
    df70:	e0030391 	mul	r3, r1, r3
    df74:	e0823003 	add	r3, r2, r3
    df78:	e2833004 	add	r3, r3, #4
    df7c:	e5932000 	ldr	r2, [r3]
    df80:	e51b3018 	ldr	r3, [fp, #-24]	; 0xffffffe8
    df84:	e2433001 	sub	r3, r3, #1
    df88:	e59f1134 	ldr	r1, [pc, #308]	; e0c4 <sdReadFile+0x608>
    df8c:	e08f1001 	add	r1, pc, r1
    df90:	e3a00fc7 	mov	r0, #796	; 0x31c
    df94:	e0030390 	mul	r3, r0, r3
    df98:	e0813003 	add	r3, r1, r3
    df9c:	e2833008 	add	r3, r3, #8
    dfa0:	e5933000 	ldr	r3, [r3]
    dfa4:	e0820003 	add	r0, r2, r3
    dfa8:	e51b3018 	ldr	r3, [fp, #-24]	; 0xffffffe8
    dfac:	e2433001 	sub	r3, r3, #1
    dfb0:	e3a02fc7 	mov	r2, #796	; 0x31c
    dfb4:	e0030392 	mul	r3, r2, r3
    dfb8:	e2833010 	add	r3, r3, #16
    dfbc:	e59f2104 	ldr	r2, [pc, #260]	; e0c8 <sdReadFile+0x60c>
    dfc0:	e08f2002 	add	r2, pc, r2
    dfc4:	e0832002 	add	r2, r3, r2
    dfc8:	e3a03000 	mov	r3, #0
    dfcc:	e3a01001 	mov	r1, #1
    dfd0:	ebfff467 	bl	b174 <sdTransferBlocks>
    dfd4:	e1a03000 	mov	r3, r0
    dfd8:	e3530000 	cmp	r3, #0
    dfdc:	0a000001 	beq	dfe8 <sdReadFile+0x52c>
    dfe0:	e3a03000 	mov	r3, #0
    dfe4:	ea000017 	b	e048 <sdReadFile+0x58c>
    dfe8:	e51b3014 	ldr	r3, [fp, #-20]	; 0xffffffec
    dfec:	e3530000 	cmp	r3, #0
    dff0:	1a000013 	bne	e044 <sdReadFile+0x588>
    dff4:	e51b3018 	ldr	r3, [fp, #-24]	; 0xffffffe8
    dff8:	e2433001 	sub	r3, r3, #1
    dffc:	e59f20c8 	ldr	r2, [pc, #200]	; e0cc <sdReadFile+0x610>
    e000:	e08f2002 	add	r2, pc, r2
    e004:	e3a01fc7 	mov	r1, #796	; 0x31c
    e008:	e0030391 	mul	r3, r1, r3
    e00c:	e0823003 	add	r3, r2, r3
    e010:	e5933000 	ldr	r3, [r3]
    e014:	e37302bf 	cmn	r3, #-268435445	; 0xf000000b
    e018:	8a000009 	bhi	e044 <sdReadFile+0x588>
    e01c:	e51b3018 	ldr	r3, [fp, #-24]	; 0xffffffe8
    e020:	e2433001 	sub	r3, r3, #1
    e024:	e59f20a4 	ldr	r2, [pc, #164]	; e0d0 <sdReadFile+0x614>
    e028:	e08f2002 	add	r2, pc, r2
    e02c:	e3a01fc7 	mov	r1, #796	; 0x31c
    e030:	e0030391 	mul	r3, r1, r3
    e034:	e0823003 	add	r3, r2, r3
    e038:	e5933000 	ldr	r3, [r3]
    e03c:	e3530000 	cmp	r3, #0
    e040:	1afffeed 	bne	dbfc <sdReadFile+0x140>
    e044:	e3a03000 	mov	r3, #0
    e048:	e1a00003 	mov	r0, r3
    e04c:	e24bd008 	sub	sp, fp, #8
    e050:	e8bd8810 	pop	{r4, fp, pc}
    e054:	00009be4 	andeq	r9, r0, r4, ror #23
    e058:	00009b9c 	muleq	r0, ip, fp
    e05c:	00009b7c 	andeq	r9, r0, ip, ror fp
    e060:	00009b54 	andeq	r9, r0, r4, asr fp
    e064:	00009b1c 	andeq	r9, r0, ip, lsl fp
    e068:	00009afc 	strdeq	r9, [r0], -ip
    e06c:	00009ac8 	andeq	r9, r0, r8, asr #21
    e070:	00009aa4 	andeq	r9, r0, r4, lsr #21
    e074:	00009a78 	andeq	r9, r0, r8, ror sl
    e078:	00009a1c 	andeq	r9, r0, ip, lsl sl
    e07c:	000099f8 	strdeq	r9, [r0], -r8
    e080:	000099ac 	andeq	r9, r0, ip, lsr #19
    e084:	0000998c 	andeq	r9, r0, ip, lsl #19
    e088:	00009968 	andeq	r9, r0, r8, ror #18
    e08c:	00008c94 	muleq	r0, r4, ip
    e090:	00009930 	andeq	r9, r0, r0, lsr r9
    e094:	00009908 	andeq	r9, r0, r8, lsl #18
    e098:	000098e4 	andeq	r9, r0, r4, ror #17
    e09c:	000098b0 			; <UNDEFINED> instruction: 0x000098b0
    e0a0:	0000987c 	andeq	r9, r0, ip, ror r8
    e0a4:	0000984c 	andeq	r9, r0, ip, asr #16
    e0a8:	0000982c 	andeq	r9, r0, ip, lsr #16
    e0ac:	00008b5c 	andeq	r8, r0, ip, asr fp
    e0b0:	00008b50 	andeq	r8, r0, r0, asr fp
    e0b4:	000097ec 	andeq	r9, r0, ip, ror #15
    e0b8:	000097c8 	andeq	r9, r0, r8, asr #15
    e0bc:	000097a0 	andeq	r9, r0, r0, lsr #15
    e0c0:	00009778 	andeq	r9, r0, r8, ror r7
    e0c4:	00009754 	andeq	r9, r0, r4, asr r7
    e0c8:	00009720 	andeq	r9, r0, r0, lsr #14
    e0cc:	000096e0 	andeq	r9, r0, r0, ror #13
    e0d0:	000096b8 			; <UNDEFINED> instruction: 0x000096b8

0000e0d4 <sdCloseHandle>:
    e0d4:	e52db004 	push	{fp}		; (str fp, [sp, #-4]!)
    e0d8:	e28db000 	add	fp, sp, #0
    e0dc:	e24dd00c 	sub	sp, sp, #12
    e0e0:	e50b0008 	str	r0, [fp, #-8]
    e0e4:	e51b3008 	ldr	r3, [fp, #-8]
    e0e8:	e3530000 	cmp	r3, #0
    e0ec:	0a000019 	beq	e158 <sdCloseHandle+0x84>
    e0f0:	e51b3008 	ldr	r3, [fp, #-8]
    e0f4:	e3530008 	cmp	r3, #8
    e0f8:	8a000016 	bhi	e158 <sdCloseHandle+0x84>
    e0fc:	e51b3008 	ldr	r3, [fp, #-8]
    e100:	e2433001 	sub	r3, r3, #1
    e104:	e59f2060 	ldr	r2, [pc, #96]	; e16c <sdCloseHandle+0x98>
    e108:	e08f2002 	add	r2, pc, r2
    e10c:	e3a01fc7 	mov	r1, #796	; 0x31c
    e110:	e0030391 	mul	r3, r1, r3
    e114:	e0823003 	add	r3, r2, r3
    e118:	e2833004 	add	r3, r3, #4
    e11c:	e5933000 	ldr	r3, [r3]
    e120:	e3530000 	cmp	r3, #0
    e124:	0a00000b 	beq	e158 <sdCloseHandle+0x84>
    e128:	e51b3008 	ldr	r3, [fp, #-8]
    e12c:	e2433001 	sub	r3, r3, #1
    e130:	e59f2038 	ldr	r2, [pc, #56]	; e170 <sdCloseHandle+0x9c>
    e134:	e08f2002 	add	r2, pc, r2
    e138:	e3a01fc7 	mov	r1, #796	; 0x31c
    e13c:	e0030391 	mul	r3, r1, r3
    e140:	e0823003 	add	r3, r2, r3
    e144:	e2833004 	add	r3, r3, #4
    e148:	e3a02000 	mov	r2, #0
    e14c:	e5832000 	str	r2, [r3]
    e150:	e3a03001 	mov	r3, #1
    e154:	ea000000 	b	e15c <sdCloseHandle+0x88>
    e158:	e3a03000 	mov	r3, #0
    e15c:	e1a00003 	mov	r0, r3
    e160:	e28bd000 	add	sp, fp, #0
    e164:	e49db004 	pop	{fp}		; (ldr fp, [sp], #4)
    e168:	e12fff1e 	bx	lr
    e16c:	000095d8 	ldrdeq	r9, [r0], -r8
    e170:	000095ac 	andeq	r9, r0, ip, lsr #11

0000e174 <sdSetFilePointer>:
    e174:	e92d4810 	push	{r4, fp, lr}
    e178:	e28db008 	add	fp, sp, #8
    e17c:	e24dd014 	sub	sp, sp, #20
    e180:	e50b0010 	str	r0, [fp, #-16]
    e184:	e50b1014 	str	r1, [fp, #-20]	; 0xffffffec
    e188:	e50b2018 	str	r2, [fp, #-24]	; 0xffffffe8
    e18c:	e50b301c 	str	r3, [fp, #-28]	; 0xffffffe4
    e190:	e51b3010 	ldr	r3, [fp, #-16]
    e194:	e3530000 	cmp	r3, #0
    e198:	0a0001aa 	beq	e848 <sdSetFilePointer+0x6d4>
    e19c:	e51b3010 	ldr	r3, [fp, #-16]
    e1a0:	e3530008 	cmp	r3, #8
    e1a4:	8a0001a7 	bhi	e848 <sdSetFilePointer+0x6d4>
    e1a8:	e51b3010 	ldr	r3, [fp, #-16]
    e1ac:	e2433001 	sub	r3, r3, #1
    e1b0:	e59f26a0 	ldr	r2, [pc, #1696]	; e858 <sdSetFilePointer+0x6e4>
    e1b4:	e08f2002 	add	r2, pc, r2
    e1b8:	e3a01fc7 	mov	r1, #796	; 0x31c
    e1bc:	e0030391 	mul	r3, r1, r3
    e1c0:	e0823003 	add	r3, r2, r3
    e1c4:	e2833004 	add	r3, r3, #4
    e1c8:	e5933000 	ldr	r3, [r3]
    e1cc:	e3530000 	cmp	r3, #0
    e1d0:	0a00019c 	beq	e848 <sdSetFilePointer+0x6d4>
    e1d4:	e51b301c 	ldr	r3, [fp, #-28]	; 0xffffffe4
    e1d8:	e3530001 	cmp	r3, #1
    e1dc:	0a000003 	beq	e1f0 <sdSetFilePointer+0x7c>
    e1e0:	e51b301c 	ldr	r3, [fp, #-28]	; 0xffffffe4
    e1e4:	e3530002 	cmp	r3, #2
    e1e8:	0a00000d 	beq	e224 <sdSetFilePointer+0xb0>
    e1ec:	ea000019 	b	e258 <sdSetFilePointer+0xe4>
    e1f0:	e51b3010 	ldr	r3, [fp, #-16]
    e1f4:	e2433001 	sub	r3, r3, #1
    e1f8:	e59f265c 	ldr	r2, [pc, #1628]	; e85c <sdSetFilePointer+0x6e8>
    e1fc:	e08f2002 	add	r2, pc, r2
    e200:	e3a01fc7 	mov	r1, #796	; 0x31c
    e204:	e0030391 	mul	r3, r1, r3
    e208:	e0823003 	add	r3, r2, r3
    e20c:	e2833fc5 	add	r3, r3, #788	; 0x314
    e210:	e5933000 	ldr	r3, [r3]
    e214:	e51b2014 	ldr	r2, [fp, #-20]	; 0xffffffec
    e218:	e0823003 	add	r3, r2, r3
    e21c:	e50b3014 	str	r3, [fp, #-20]	; 0xffffffec
    e220:	ea00000c 	b	e258 <sdSetFilePointer+0xe4>
    e224:	e51b3010 	ldr	r3, [fp, #-16]
    e228:	e2433001 	sub	r3, r3, #1
    e22c:	e59f262c 	ldr	r2, [pc, #1580]	; e860 <sdSetFilePointer+0x6ec>
    e230:	e08f2002 	add	r2, pc, r2
    e234:	e3a01fc7 	mov	r1, #796	; 0x31c
    e238:	e0030391 	mul	r3, r1, r3
    e23c:	e0823003 	add	r3, r2, r3
    e240:	e2833fc6 	add	r3, r3, #792	; 0x318
    e244:	e5933000 	ldr	r3, [r3]
    e248:	e51b2014 	ldr	r2, [fp, #-20]	; 0xffffffec
    e24c:	e0823003 	add	r3, r2, r3
    e250:	e50b3014 	str	r3, [fp, #-20]	; 0xffffffec
    e254:	e320f000 	nop	{0}
    e258:	e51b3010 	ldr	r3, [fp, #-16]
    e25c:	e2433001 	sub	r3, r3, #1
    e260:	e59f25fc 	ldr	r2, [pc, #1532]	; e864 <sdSetFilePointer+0x6f0>
    e264:	e08f2002 	add	r2, pc, r2
    e268:	e3a01fc7 	mov	r1, #796	; 0x31c
    e26c:	e0030391 	mul	r3, r1, r3
    e270:	e0823003 	add	r3, r2, r3
    e274:	e2833fc6 	add	r3, r3, #792	; 0x318
    e278:	e5933000 	ldr	r3, [r3]
    e27c:	e51b2014 	ldr	r2, [fp, #-20]	; 0xffffffec
    e280:	e1520003 	cmp	r2, r3
    e284:	9a000001 	bls	e290 <sdSetFilePointer+0x11c>
    e288:	e3e03000 	mvn	r3, #0
    e28c:	ea00016e 	b	e84c <sdSetFilePointer+0x6d8>
    e290:	e51b3010 	ldr	r3, [fp, #-16]
    e294:	e2433001 	sub	r3, r3, #1
    e298:	e59f25c8 	ldr	r2, [pc, #1480]	; e868 <sdSetFilePointer+0x6f4>
    e29c:	e08f2002 	add	r2, pc, r2
    e2a0:	e3a01fc7 	mov	r1, #796	; 0x31c
    e2a4:	e0030391 	mul	r3, r1, r3
    e2a8:	e0823003 	add	r3, r2, r3
    e2ac:	e2833fc5 	add	r3, r3, #788	; 0x314
    e2b0:	e5933000 	ldr	r3, [r3]
    e2b4:	e51b2014 	ldr	r2, [fp, #-20]	; 0xffffffec
    e2b8:	e1520003 	cmp	r2, r3
    e2bc:	1a000009 	bne	e2e8 <sdSetFilePointer+0x174>
    e2c0:	e51b3010 	ldr	r3, [fp, #-16]
    e2c4:	e2433001 	sub	r3, r3, #1
    e2c8:	e59f259c 	ldr	r2, [pc, #1436]	; e86c <sdSetFilePointer+0x6f8>
    e2cc:	e08f2002 	add	r2, pc, r2
    e2d0:	e3a01fc7 	mov	r1, #796	; 0x31c
    e2d4:	e0030391 	mul	r3, r1, r3
    e2d8:	e0823003 	add	r3, r2, r3
    e2dc:	e2833fc5 	add	r3, r3, #788	; 0x314
    e2e0:	e5933000 	ldr	r3, [r3]
    e2e4:	ea000158 	b	e84c <sdSetFilePointer+0x6d8>
    e2e8:	e51b3010 	ldr	r3, [fp, #-16]
    e2ec:	e2432001 	sub	r2, r3, #1
    e2f0:	e51b3010 	ldr	r3, [fp, #-16]
    e2f4:	e2433001 	sub	r3, r3, #1
    e2f8:	e59f1570 	ldr	r1, [pc, #1392]	; e870 <sdSetFilePointer+0x6fc>
    e2fc:	e08f1001 	add	r1, pc, r1
    e300:	e3a00fc7 	mov	r0, #796	; 0x31c
    e304:	e0020290 	mul	r2, r0, r2
    e308:	e0812002 	add	r2, r1, r2
    e30c:	e2822e31 	add	r2, r2, #784	; 0x310
    e310:	e5922000 	ldr	r2, [r2]
    e314:	e59f1558 	ldr	r1, [pc, #1368]	; e874 <sdSetFilePointer+0x700>
    e318:	e08f1001 	add	r1, pc, r1
    e31c:	e3a00fc7 	mov	r0, #796	; 0x31c
    e320:	e0030390 	mul	r3, r0, r3
    e324:	e0813003 	add	r3, r1, r3
    e328:	e5832000 	str	r2, [r3]
    e32c:	e51b3010 	ldr	r3, [fp, #-16]
    e330:	e2433001 	sub	r3, r3, #1
    e334:	e59f253c 	ldr	r2, [pc, #1340]	; e878 <sdSetFilePointer+0x704>
    e338:	e08f2002 	add	r2, pc, r2
    e33c:	e3a01fc7 	mov	r1, #796	; 0x31c
    e340:	e0030391 	mul	r3, r1, r3
    e344:	e0823003 	add	r3, r2, r3
    e348:	e5930000 	ldr	r0, [r3]
    e34c:	e59f3528 	ldr	r3, [pc, #1320]	; e87c <sdSetFilePointer+0x708>
    e350:	e08f3003 	add	r3, pc, r3
    e354:	e5931050 	ldr	r1, [r3, #80]	; 0x50
    e358:	e59f3520 	ldr	r3, [pc, #1312]	; e880 <sdSetFilePointer+0x70c>
    e35c:	e08f3003 	add	r3, pc, r3
    e360:	e5932058 	ldr	r2, [r3, #88]	; 0x58
    e364:	e51b3010 	ldr	r3, [fp, #-16]
    e368:	e2434001 	sub	r4, r3, #1
    e36c:	ebfff67a 	bl	bd5c <getFirstSector>
    e370:	e1a01000 	mov	r1, r0
    e374:	e59f2508 	ldr	r2, [pc, #1288]	; e884 <sdSetFilePointer+0x710>
    e378:	e08f2002 	add	r2, pc, r2
    e37c:	e3a03fc7 	mov	r3, #796	; 0x31c
    e380:	e0030493 	mul	r3, r3, r4
    e384:	e0823003 	add	r3, r2, r3
    e388:	e2833004 	add	r3, r3, #4
    e38c:	e5831000 	str	r1, [r3]
    e390:	e51b3010 	ldr	r3, [fp, #-16]
    e394:	e2433001 	sub	r3, r3, #1
    e398:	e59f24e8 	ldr	r2, [pc, #1256]	; e888 <sdSetFilePointer+0x714>
    e39c:	e08f2002 	add	r2, pc, r2
    e3a0:	e3a01fc7 	mov	r1, #796	; 0x31c
    e3a4:	e0030391 	mul	r3, r1, r3
    e3a8:	e0823003 	add	r3, r2, r3
    e3ac:	e2833008 	add	r3, r3, #8
    e3b0:	e3a02000 	mov	r2, #0
    e3b4:	e5832000 	str	r2, [r3]
    e3b8:	e51b3010 	ldr	r3, [fp, #-16]
    e3bc:	e2433001 	sub	r3, r3, #1
    e3c0:	e59f24c4 	ldr	r2, [pc, #1220]	; e88c <sdSetFilePointer+0x718>
    e3c4:	e08f2002 	add	r2, pc, r2
    e3c8:	e3a01fc7 	mov	r1, #796	; 0x31c
    e3cc:	e0030391 	mul	r3, r1, r3
    e3d0:	e0823003 	add	r3, r2, r3
    e3d4:	e283300c 	add	r3, r3, #12
    e3d8:	e3a02000 	mov	r2, #0
    e3dc:	e5832000 	str	r2, [r3]
    e3e0:	e51b3010 	ldr	r3, [fp, #-16]
    e3e4:	e2433001 	sub	r3, r3, #1
    e3e8:	e59f24a0 	ldr	r2, [pc, #1184]	; e890 <sdSetFilePointer+0x71c>
    e3ec:	e08f2002 	add	r2, pc, r2
    e3f0:	e3a01fc7 	mov	r1, #796	; 0x31c
    e3f4:	e0030391 	mul	r3, r1, r3
    e3f8:	e0823003 	add	r3, r2, r3
    e3fc:	e2833fc5 	add	r3, r3, #788	; 0x314
    e400:	e3a02000 	mov	r2, #0
    e404:	e5832000 	str	r2, [r3]
    e408:	e51b3010 	ldr	r3, [fp, #-16]
    e40c:	e2433001 	sub	r3, r3, #1
    e410:	e59f247c 	ldr	r2, [pc, #1148]	; e894 <sdSetFilePointer+0x720>
    e414:	e08f2002 	add	r2, pc, r2
    e418:	e3a01fc7 	mov	r1, #796	; 0x31c
    e41c:	e0030391 	mul	r3, r1, r3
    e420:	e0823003 	add	r3, r2, r3
    e424:	e2833004 	add	r3, r3, #4
    e428:	e5930000 	ldr	r0, [r3]
    e42c:	e51b3010 	ldr	r3, [fp, #-16]
    e430:	e2433001 	sub	r3, r3, #1
    e434:	e3a02fc7 	mov	r2, #796	; 0x31c
    e438:	e0030392 	mul	r3, r2, r3
    e43c:	e2833010 	add	r3, r3, #16
    e440:	e59f2450 	ldr	r2, [pc, #1104]	; e898 <sdSetFilePointer+0x724>
    e444:	e08f2002 	add	r2, pc, r2
    e448:	e0832002 	add	r2, r3, r2
    e44c:	e3a03000 	mov	r3, #0
    e450:	e3a01001 	mov	r1, #1
    e454:	ebfff346 	bl	b174 <sdTransferBlocks>
    e458:	e1a03000 	mov	r3, r0
    e45c:	e3530000 	cmp	r3, #0
    e460:	0a0000c7 	beq	e784 <sdSetFilePointer+0x610>
    e464:	e3e03000 	mvn	r3, #0
    e468:	ea0000f7 	b	e84c <sdSetFilePointer+0x6d8>
    e46c:	e51b3010 	ldr	r3, [fp, #-16]
    e470:	e2433001 	sub	r3, r3, #1
    e474:	e59f1420 	ldr	r1, [pc, #1056]	; e89c <sdSetFilePointer+0x728>
    e478:	e08f1001 	add	r1, pc, r1
    e47c:	e3a02fc7 	mov	r2, #796	; 0x31c
    e480:	e0020392 	mul	r2, r2, r3
    e484:	e0812002 	add	r2, r1, r2
    e488:	e2822008 	add	r2, r2, #8
    e48c:	e5922000 	ldr	r2, [r2]
    e490:	e2822001 	add	r2, r2, #1
    e494:	e59f1404 	ldr	r1, [pc, #1028]	; e8a0 <sdSetFilePointer+0x72c>
    e498:	e08f1001 	add	r1, pc, r1
    e49c:	e3a00fc7 	mov	r0, #796	; 0x31c
    e4a0:	e0030390 	mul	r3, r0, r3
    e4a4:	e0813003 	add	r3, r1, r3
    e4a8:	e2833008 	add	r3, r3, #8
    e4ac:	e5832000 	str	r2, [r3]
    e4b0:	e51b3010 	ldr	r3, [fp, #-16]
    e4b4:	e2433001 	sub	r3, r3, #1
    e4b8:	e59f23e4 	ldr	r2, [pc, #996]	; e8a4 <sdSetFilePointer+0x730>
    e4bc:	e08f2002 	add	r2, pc, r2
    e4c0:	e3a01fc7 	mov	r1, #796	; 0x31c
    e4c4:	e0030391 	mul	r3, r1, r3
    e4c8:	e0823003 	add	r3, r2, r3
    e4cc:	e2833008 	add	r3, r3, #8
    e4d0:	e5932000 	ldr	r2, [r3]
    e4d4:	e59f33cc 	ldr	r3, [pc, #972]	; e8a8 <sdSetFilePointer+0x734>
    e4d8:	e08f3003 	add	r3, pc, r3
    e4dc:	e5933050 	ldr	r3, [r3, #80]	; 0x50
    e4e0:	e1520003 	cmp	r2, r3
    e4e4:	2a00002c 	bcs	e59c <sdSetFilePointer+0x428>
    e4e8:	e51b3010 	ldr	r3, [fp, #-16]
    e4ec:	e2433001 	sub	r3, r3, #1
    e4f0:	e59f23b4 	ldr	r2, [pc, #948]	; e8ac <sdSetFilePointer+0x738>
    e4f4:	e08f2002 	add	r2, pc, r2
    e4f8:	e3a01fc7 	mov	r1, #796	; 0x31c
    e4fc:	e0030391 	mul	r3, r1, r3
    e500:	e0823003 	add	r3, r2, r3
    e504:	e283300c 	add	r3, r3, #12
    e508:	e3a02000 	mov	r2, #0
    e50c:	e5832000 	str	r2, [r3]
    e510:	e51b3010 	ldr	r3, [fp, #-16]
    e514:	e2433001 	sub	r3, r3, #1
    e518:	e59f2390 	ldr	r2, [pc, #912]	; e8b0 <sdSetFilePointer+0x73c>
    e51c:	e08f2002 	add	r2, pc, r2
    e520:	e3a01fc7 	mov	r1, #796	; 0x31c
    e524:	e0030391 	mul	r3, r1, r3
    e528:	e0823003 	add	r3, r2, r3
    e52c:	e2833004 	add	r3, r3, #4
    e530:	e5932000 	ldr	r2, [r3]
    e534:	e51b3010 	ldr	r3, [fp, #-16]
    e538:	e2433001 	sub	r3, r3, #1
    e53c:	e59f1370 	ldr	r1, [pc, #880]	; e8b4 <sdSetFilePointer+0x740>
    e540:	e08f1001 	add	r1, pc, r1
    e544:	e3a00fc7 	mov	r0, #796	; 0x31c
    e548:	e0030390 	mul	r3, r0, r3
    e54c:	e0813003 	add	r3, r1, r3
    e550:	e2833008 	add	r3, r3, #8
    e554:	e5933000 	ldr	r3, [r3]
    e558:	e0820003 	add	r0, r2, r3
    e55c:	e51b3010 	ldr	r3, [fp, #-16]
    e560:	e2433001 	sub	r3, r3, #1
    e564:	e3a02fc7 	mov	r2, #796	; 0x31c
    e568:	e0030392 	mul	r3, r2, r3
    e56c:	e2833010 	add	r3, r3, #16
    e570:	e59f2340 	ldr	r2, [pc, #832]	; e8b8 <sdSetFilePointer+0x744>
    e574:	e08f2002 	add	r2, pc, r2
    e578:	e0832002 	add	r2, r3, r2
    e57c:	e3a03000 	mov	r3, #0
    e580:	e3a01001 	mov	r1, #1
    e584:	ebfff2fa 	bl	b174 <sdTransferBlocks>
    e588:	e1a03000 	mov	r3, r0
    e58c:	e3530000 	cmp	r3, #0
    e590:	0a000065 	beq	e72c <sdSetFilePointer+0x5b8>
    e594:	e3e03000 	mvn	r3, #0
    e598:	ea0000ab 	b	e84c <sdSetFilePointer+0x6d8>
    e59c:	e51b3010 	ldr	r3, [fp, #-16]
    e5a0:	e2433001 	sub	r3, r3, #1
    e5a4:	e59f2310 	ldr	r2, [pc, #784]	; e8bc <sdSetFilePointer+0x748>
    e5a8:	e08f2002 	add	r2, pc, r2
    e5ac:	e3a01fc7 	mov	r1, #796	; 0x31c
    e5b0:	e0030391 	mul	r3, r1, r3
    e5b4:	e0823003 	add	r3, r2, r3
    e5b8:	e5930000 	ldr	r0, [r3]
    e5bc:	e51b3010 	ldr	r3, [fp, #-16]
    e5c0:	e2434001 	sub	r4, r3, #1
    e5c4:	e3a02000 	mov	r2, #0
    e5c8:	e3a01000 	mov	r1, #0
    e5cc:	ebfff5f2 	bl	bd9c <getSetNextCluster>
    e5d0:	e1a01000 	mov	r1, r0
    e5d4:	e59f22e4 	ldr	r2, [pc, #740]	; e8c0 <sdSetFilePointer+0x74c>
    e5d8:	e08f2002 	add	r2, pc, r2
    e5dc:	e3a03fc7 	mov	r3, #796	; 0x31c
    e5e0:	e0030493 	mul	r3, r3, r4
    e5e4:	e0823003 	add	r3, r2, r3
    e5e8:	e5831000 	str	r1, [r3]
    e5ec:	e51b3010 	ldr	r3, [fp, #-16]
    e5f0:	e2433001 	sub	r3, r3, #1
    e5f4:	e59f22c8 	ldr	r2, [pc, #712]	; e8c4 <sdSetFilePointer+0x750>
    e5f8:	e08f2002 	add	r2, pc, r2
    e5fc:	e3a01fc7 	mov	r1, #796	; 0x31c
    e600:	e0030391 	mul	r3, r1, r3
    e604:	e0823003 	add	r3, r2, r3
    e608:	e5930000 	ldr	r0, [r3]
    e60c:	e59f32b4 	ldr	r3, [pc, #692]	; e8c8 <sdSetFilePointer+0x754>
    e610:	e08f3003 	add	r3, pc, r3
    e614:	e5931050 	ldr	r1, [r3, #80]	; 0x50
    e618:	e59f32ac 	ldr	r3, [pc, #684]	; e8cc <sdSetFilePointer+0x758>
    e61c:	e08f3003 	add	r3, pc, r3
    e620:	e5932058 	ldr	r2, [r3, #88]	; 0x58
    e624:	e51b3010 	ldr	r3, [fp, #-16]
    e628:	e2434001 	sub	r4, r3, #1
    e62c:	ebfff5ca 	bl	bd5c <getFirstSector>
    e630:	e1a01000 	mov	r1, r0
    e634:	e59f2294 	ldr	r2, [pc, #660]	; e8d0 <sdSetFilePointer+0x75c>
    e638:	e08f2002 	add	r2, pc, r2
    e63c:	e3a03fc7 	mov	r3, #796	; 0x31c
    e640:	e0030493 	mul	r3, r3, r4
    e644:	e0823003 	add	r3, r2, r3
    e648:	e2833004 	add	r3, r3, #4
    e64c:	e5831000 	str	r1, [r3]
    e650:	e51b3010 	ldr	r3, [fp, #-16]
    e654:	e2433001 	sub	r3, r3, #1
    e658:	e59f2274 	ldr	r2, [pc, #628]	; e8d4 <sdSetFilePointer+0x760>
    e65c:	e08f2002 	add	r2, pc, r2
    e660:	e3a01fc7 	mov	r1, #796	; 0x31c
    e664:	e0030391 	mul	r3, r1, r3
    e668:	e0823003 	add	r3, r2, r3
    e66c:	e2833008 	add	r3, r3, #8
    e670:	e3a02000 	mov	r2, #0
    e674:	e5832000 	str	r2, [r3]
    e678:	e51b3010 	ldr	r3, [fp, #-16]
    e67c:	e2433001 	sub	r3, r3, #1
    e680:	e59f2250 	ldr	r2, [pc, #592]	; e8d8 <sdSetFilePointer+0x764>
    e684:	e08f2002 	add	r2, pc, r2
    e688:	e3a01fc7 	mov	r1, #796	; 0x31c
    e68c:	e0030391 	mul	r3, r1, r3
    e690:	e0823003 	add	r3, r2, r3
    e694:	e283300c 	add	r3, r3, #12
    e698:	e3a02000 	mov	r2, #0
    e69c:	e5832000 	str	r2, [r3]
    e6a0:	e51b3010 	ldr	r3, [fp, #-16]
    e6a4:	e2433001 	sub	r3, r3, #1
    e6a8:	e59f222c 	ldr	r2, [pc, #556]	; e8dc <sdSetFilePointer+0x768>
    e6ac:	e08f2002 	add	r2, pc, r2
    e6b0:	e3a01fc7 	mov	r1, #796	; 0x31c
    e6b4:	e0030391 	mul	r3, r1, r3
    e6b8:	e0823003 	add	r3, r2, r3
    e6bc:	e2833004 	add	r3, r3, #4
    e6c0:	e5932000 	ldr	r2, [r3]
    e6c4:	e51b3010 	ldr	r3, [fp, #-16]
    e6c8:	e2433001 	sub	r3, r3, #1
    e6cc:	e59f120c 	ldr	r1, [pc, #524]	; e8e0 <sdSetFilePointer+0x76c>
    e6d0:	e08f1001 	add	r1, pc, r1
    e6d4:	e3a00fc7 	mov	r0, #796	; 0x31c
    e6d8:	e0030390 	mul	r3, r0, r3
    e6dc:	e0813003 	add	r3, r1, r3
    e6e0:	e2833008 	add	r3, r3, #8
    e6e4:	e5933000 	ldr	r3, [r3]
    e6e8:	e0820003 	add	r0, r2, r3
    e6ec:	e51b3010 	ldr	r3, [fp, #-16]
    e6f0:	e2433001 	sub	r3, r3, #1
    e6f4:	e3a02fc7 	mov	r2, #796	; 0x31c
    e6f8:	e0030392 	mul	r3, r2, r3
    e6fc:	e2833010 	add	r3, r3, #16
    e700:	e59f21dc 	ldr	r2, [pc, #476]	; e8e4 <sdSetFilePointer+0x770>
    e704:	e08f2002 	add	r2, pc, r2
    e708:	e0832002 	add	r2, r3, r2
    e70c:	e3a03000 	mov	r3, #0
    e710:	e3a01001 	mov	r1, #1
    e714:	ebfff296 	bl	b174 <sdTransferBlocks>
    e718:	e1a03000 	mov	r3, r0
    e71c:	e3530000 	cmp	r3, #0
    e720:	0a000001 	beq	e72c <sdSetFilePointer+0x5b8>
    e724:	e3e03000 	mvn	r3, #0
    e728:	ea000047 	b	e84c <sdSetFilePointer+0x6d8>
    e72c:	e51b3014 	ldr	r3, [fp, #-20]	; 0xffffffec
    e730:	e2433c02 	sub	r3, r3, #512	; 0x200
    e734:	e50b3014 	str	r3, [fp, #-20]	; 0xffffffec
    e738:	e51b3010 	ldr	r3, [fp, #-16]
    e73c:	e2433001 	sub	r3, r3, #1
    e740:	e59f21a0 	ldr	r2, [pc, #416]	; e8e8 <sdSetFilePointer+0x774>
    e744:	e08f2002 	add	r2, pc, r2
    e748:	e3a01fc7 	mov	r1, #796	; 0x31c
    e74c:	e0030391 	mul	r3, r1, r3
    e750:	e0823003 	add	r3, r2, r3
    e754:	e2833fc5 	add	r3, r3, #788	; 0x314
    e758:	e5932000 	ldr	r2, [r3]
    e75c:	e51b3010 	ldr	r3, [fp, #-16]
    e760:	e2433001 	sub	r3, r3, #1
    e764:	e2822c02 	add	r2, r2, #512	; 0x200
    e768:	e59f117c 	ldr	r1, [pc, #380]	; e8ec <sdSetFilePointer+0x778>
    e76c:	e08f1001 	add	r1, pc, r1
    e770:	e3a00fc7 	mov	r0, #796	; 0x31c
    e774:	e0030390 	mul	r3, r0, r3
    e778:	e0813003 	add	r3, r1, r3
    e77c:	e2833fc5 	add	r3, r3, #788	; 0x314
    e780:	e5832000 	str	r2, [r3]
    e784:	e51b3014 	ldr	r3, [fp, #-20]	; 0xffffffec
    e788:	e3530c02 	cmp	r3, #512	; 0x200
    e78c:	8affff36 	bhi	e46c <sdSetFilePointer+0x2f8>
    e790:	e51b3010 	ldr	r3, [fp, #-16]
    e794:	e2433001 	sub	r3, r3, #1
    e798:	e59f2150 	ldr	r2, [pc, #336]	; e8f0 <sdSetFilePointer+0x77c>
    e79c:	e08f2002 	add	r2, pc, r2
    e7a0:	e3a01fc7 	mov	r1, #796	; 0x31c
    e7a4:	e0030391 	mul	r3, r1, r3
    e7a8:	e0823003 	add	r3, r2, r3
    e7ac:	e283300c 	add	r3, r3, #12
    e7b0:	e51b2014 	ldr	r2, [fp, #-20]	; 0xffffffec
    e7b4:	e5832000 	str	r2, [r3]
    e7b8:	e51b3010 	ldr	r3, [fp, #-16]
    e7bc:	e2433001 	sub	r3, r3, #1
    e7c0:	e59f212c 	ldr	r2, [pc, #300]	; e8f4 <sdSetFilePointer+0x780>
    e7c4:	e08f2002 	add	r2, pc, r2
    e7c8:	e3a01fc7 	mov	r1, #796	; 0x31c
    e7cc:	e0030391 	mul	r3, r1, r3
    e7d0:	e0823003 	add	r3, r2, r3
    e7d4:	e2833fc5 	add	r3, r3, #788	; 0x314
    e7d8:	e5931000 	ldr	r1, [r3]
    e7dc:	e51b3010 	ldr	r3, [fp, #-16]
    e7e0:	e2433001 	sub	r3, r3, #1
    e7e4:	e51b2014 	ldr	r2, [fp, #-20]	; 0xffffffec
    e7e8:	e0812002 	add	r2, r1, r2
    e7ec:	e59f1104 	ldr	r1, [pc, #260]	; e8f8 <sdSetFilePointer+0x784>
    e7f0:	e08f1001 	add	r1, pc, r1
    e7f4:	e3a00fc7 	mov	r0, #796	; 0x31c
    e7f8:	e0030390 	mul	r3, r0, r3
    e7fc:	e0813003 	add	r3, r1, r3
    e800:	e2833fc5 	add	r3, r3, #788	; 0x314
    e804:	e5832000 	str	r2, [r3]
    e808:	e51b3018 	ldr	r3, [fp, #-24]	; 0xffffffe8
    e80c:	e3530000 	cmp	r3, #0
    e810:	0a000002 	beq	e820 <sdSetFilePointer+0x6ac>
    e814:	e51b3018 	ldr	r3, [fp, #-24]	; 0xffffffe8
    e818:	e3a02000 	mov	r2, #0
    e81c:	e5832000 	str	r2, [r3]
    e820:	e51b3010 	ldr	r3, [fp, #-16]
    e824:	e2433001 	sub	r3, r3, #1
    e828:	e59f20cc 	ldr	r2, [pc, #204]	; e8fc <sdSetFilePointer+0x788>
    e82c:	e08f2002 	add	r2, pc, r2
    e830:	e3a01fc7 	mov	r1, #796	; 0x31c
    e834:	e0030391 	mul	r3, r1, r3
    e838:	e0823003 	add	r3, r2, r3
    e83c:	e2833fc5 	add	r3, r3, #788	; 0x314
    e840:	e5933000 	ldr	r3, [r3]
    e844:	ea000000 	b	e84c <sdSetFilePointer+0x6d8>
    e848:	e3e03000 	mvn	r3, #0
    e84c:	e1a00003 	mov	r0, r3
    e850:	e24bd008 	sub	sp, fp, #8
    e854:	e8bd8810 	pop	{r4, fp, pc}
    e858:	0000952c 	andeq	r9, r0, ip, lsr #10
    e85c:	000094e4 	andeq	r9, r0, r4, ror #9
    e860:	000094b0 			; <UNDEFINED> instruction: 0x000094b0
    e864:	0000947c 	andeq	r9, r0, ip, ror r4
    e868:	00009444 	andeq	r9, r0, r4, asr #8
    e86c:	00009414 	andeq	r9, r0, r4, lsl r4
    e870:	000093e4 	andeq	r9, r0, r4, ror #7
    e874:	000093c8 	andeq	r9, r0, r8, asr #7
    e878:	000093a8 	andeq	r9, r0, r8, lsr #7
    e87c:	000086d8 	ldrdeq	r8, [r0], -r8	; <UNPREDICTABLE>
    e880:	000086cc 	andeq	r8, r0, ip, asr #13
    e884:	00009368 	andeq	r9, r0, r8, ror #6
    e888:	00009344 	andeq	r9, r0, r4, asr #6
    e88c:	0000931c 	andeq	r9, r0, ip, lsl r3
    e890:	000092f4 	strdeq	r9, [r0], -r4
    e894:	000092cc 	andeq	r9, r0, ip, asr #5
    e898:	0000929c 	muleq	r0, ip, r2
    e89c:	00009268 	andeq	r9, r0, r8, ror #4
    e8a0:	00009248 	andeq	r9, r0, r8, asr #4
    e8a4:	00009224 	andeq	r9, r0, r4, lsr #4
    e8a8:	00008550 	andeq	r8, r0, r0, asr r5
    e8ac:	000091ec 	andeq	r9, r0, ip, ror #3
    e8b0:	000091c4 	andeq	r9, r0, r4, asr #3
    e8b4:	000091a0 	andeq	r9, r0, r0, lsr #3
    e8b8:	0000916c 	andeq	r9, r0, ip, ror #2
    e8bc:	00009138 	andeq	r9, r0, r8, lsr r1
    e8c0:	00009108 	andeq	r9, r0, r8, lsl #2
    e8c4:	000090e8 	andeq	r9, r0, r8, ror #1
    e8c8:	00008418 	andeq	r8, r0, r8, lsl r4
    e8cc:	0000840c 	andeq	r8, r0, ip, lsl #8
    e8d0:	000090a8 	andeq	r9, r0, r8, lsr #1
    e8d4:	00009084 	andeq	r9, r0, r4, lsl #1
    e8d8:	0000905c 	andeq	r9, r0, ip, asr r0
    e8dc:	00009034 	andeq	r9, r0, r4, lsr r0
    e8e0:	00009010 	andeq	r9, r0, r0, lsl r0
    e8e4:	00008fdc 	ldrdeq	r8, [r0], -ip
    e8e8:	00008f9c 	muleq	r0, ip, pc	; <UNPREDICTABLE>
    e8ec:	00008f74 	andeq	r8, r0, r4, ror pc
    e8f0:	00008f44 	andeq	r8, r0, r4, asr #30
    e8f4:	00008f1c 	andeq	r8, r0, ip, lsl pc
    e8f8:	00008ef0 	strdeq	r8, [r0], -r0
    e8fc:	00008eb4 			; <UNDEFINED> instruction: 0x00008eb4

0000e900 <sdGetFileSize>:
    e900:	e52db004 	push	{fp}		; (str fp, [sp, #-4]!)
    e904:	e28db000 	add	fp, sp, #0
    e908:	e24dd00c 	sub	sp, sp, #12
    e90c:	e50b0008 	str	r0, [fp, #-8]
    e910:	e50b100c 	str	r1, [fp, #-12]
    e914:	e51b3008 	ldr	r3, [fp, #-8]
    e918:	e3530000 	cmp	r3, #0
    e91c:	0a000017 	beq	e980 <sdGetFileSize+0x80>
    e920:	e51b3008 	ldr	r3, [fp, #-8]
    e924:	e3530008 	cmp	r3, #8
    e928:	8a000014 	bhi	e980 <sdGetFileSize+0x80>
    e92c:	e51b3008 	ldr	r3, [fp, #-8]
    e930:	e2433001 	sub	r3, r3, #1
    e934:	e59f2058 	ldr	r2, [pc, #88]	; e994 <sdGetFileSize+0x94>
    e938:	e08f2002 	add	r2, pc, r2
    e93c:	e3a01fc7 	mov	r1, #796	; 0x31c
    e940:	e0030391 	mul	r3, r1, r3
    e944:	e0823003 	add	r3, r2, r3
    e948:	e2833004 	add	r3, r3, #4
    e94c:	e5933000 	ldr	r3, [r3]
    e950:	e3530000 	cmp	r3, #0
    e954:	0a000009 	beq	e980 <sdGetFileSize+0x80>
    e958:	e51b3008 	ldr	r3, [fp, #-8]
    e95c:	e2433001 	sub	r3, r3, #1
    e960:	e59f2030 	ldr	r2, [pc, #48]	; e998 <sdGetFileSize+0x98>
    e964:	e08f2002 	add	r2, pc, r2
    e968:	e3a01fc7 	mov	r1, #796	; 0x31c
    e96c:	e0030391 	mul	r3, r1, r3
    e970:	e0823003 	add	r3, r2, r3
    e974:	e2833fc6 	add	r3, r3, #792	; 0x318
    e978:	e5933000 	ldr	r3, [r3]
    e97c:	ea000000 	b	e984 <sdGetFileSize+0x84>
    e980:	e3a03000 	mov	r3, #0
    e984:	e1a00003 	mov	r0, r3
    e988:	e28bd000 	add	sp, fp, #0
    e98c:	e49db004 	pop	{fp}		; (ldr fp, [sp], #4)
    e990:	e12fff1e 	bx	lr
    e994:	00008da8 	andeq	r8, r0, r8, lsr #27
    e998:	00008d7c 	andeq	r8, r0, ip, ror sp

0000e99c <sdInitCard>:
    e99c:	e92d4ff0 	push	{r4, r5, r6, r7, r8, r9, sl, fp, lr}
    e9a0:	e28db020 	add	fp, sp, #32
    e9a4:	e24dd05c 	sub	sp, sp, #92	; 0x5c
    e9a8:	e50b0030 	str	r0, [fp, #-48]	; 0xffffffd0
    e9ac:	e50b1034 	str	r1, [fp, #-52]	; 0xffffffcc
    e9b0:	e1a03002 	mov	r3, r2
    e9b4:	e54b3035 	strb	r3, [fp, #-53]	; 0xffffffcb
    e9b8:	e59f459c 	ldr	r4, [pc, #1436]	; ef5c <sdInitCard+0x5c0>
    e9bc:	e08f4004 	add	r4, pc, r4
    e9c0:	e59f3598 	ldr	r3, [pc, #1432]	; ef60 <sdInitCard+0x5c4>
    e9c4:	e7943003 	ldr	r3, [r4, r3]
    e9c8:	e51b2034 	ldr	r2, [fp, #-52]	; 0xffffffcc
    e9cc:	e5832000 	str	r2, [r3]
    e9d0:	ebfff0c3 	bl	ace4 <sdResetCard>
    e9d4:	e1a03000 	mov	r3, r0
    e9d8:	e54b3025 	strb	r3, [fp, #-37]	; 0xffffffdb
    e9dc:	e55b3025 	ldrb	r3, [fp, #-37]	; 0xffffffdb
    e9e0:	e3530000 	cmp	r3, #0
    e9e4:	0a000001 	beq	e9f0 <sdInitCard+0x54>
    e9e8:	e55b3025 	ldrb	r3, [fp, #-37]	; 0xffffffdb
    e9ec:	ea000157 	b	ef50 <sdInitCard+0x5b4>
    e9f0:	e30011aa 	movw	r1, #426	; 0x1aa
    e9f4:	e3a00006 	mov	r0, #6
    e9f8:	ebffee8b 	bl	a42c <sdSendCommandA>
    e9fc:	e1a03000 	mov	r3, r0
    ea00:	e54b3025 	strb	r3, [fp, #-37]	; 0xffffffdb
    ea04:	e55b3025 	ldrb	r3, [fp, #-37]	; 0xffffffdb
    ea08:	e3530000 	cmp	r3, #0
    ea0c:	1a00001e 	bne	ea8c <sdInitCard+0xf0>
    ea10:	e3a00902 	mov	r0, #32768	; 0x8000
    ea14:	e34500ff 	movt	r0, #20735	; 0x50ff
    ea18:	ebfff161 	bl	afa4 <sdAppSendOpCond>
    ea1c:	e1a03000 	mov	r3, r0
    ea20:	e54b3025 	strb	r3, [fp, #-37]	; 0xffffffdb
    ea24:	e55b3025 	ldrb	r3, [fp, #-37]	; 0xffffffdb
    ea28:	e3530000 	cmp	r3, #0
    ea2c:	0a000005 	beq	ea48 <sdInitCard+0xac>
    ea30:	e55b3025 	ldrb	r3, [fp, #-37]	; 0xffffffdb
    ea34:	e1a00003 	mov	r0, r3
    ea38:	ebffe9c4 	bl	9150 <sdDebugResponse>
    ea3c:	e1a03000 	mov	r3, r0
    ea40:	e6ef3073 	uxtb	r3, r3
    ea44:	ea000141 	b	ef50 <sdInitCard+0x5b4>
    ea48:	e59f3514 	ldr	r3, [pc, #1300]	; ef64 <sdInitCard+0x5c8>
    ea4c:	e08f3003 	add	r3, pc, r3
    ea50:	e5d33043 	ldrb	r3, [r3, #67]	; 0x43
    ea54:	e2033040 	and	r3, r3, #64	; 0x40
    ea58:	e6ef3073 	uxtb	r3, r3
    ea5c:	e3530000 	cmp	r3, #0
    ea60:	0a000004 	beq	ea78 <sdInitCard+0xdc>
    ea64:	e59f34fc 	ldr	r3, [pc, #1276]	; ef68 <sdInitCard+0x5cc>
    ea68:	e08f3003 	add	r3, pc, r3
    ea6c:	e3a02004 	mov	r2, #4
    ea70:	e5c32038 	strb	r2, [r3, #56]	; 0x38
    ea74:	ea00002d 	b	eb30 <sdInitCard+0x194>
    ea78:	e59f34ec 	ldr	r3, [pc, #1260]	; ef6c <sdInitCard+0x5d0>
    ea7c:	e08f3003 	add	r3, pc, r3
    ea80:	e3a02003 	mov	r2, #3
    ea84:	e5c32038 	strb	r2, [r3, #56]	; 0x38
    ea88:	ea000028 	b	eb30 <sdInitCard+0x194>
    ea8c:	e55b3025 	ldrb	r3, [fp, #-37]	; 0xffffffdb
    ea90:	e3530003 	cmp	r3, #3
    ea94:	1a000001 	bne	eaa0 <sdInitCard+0x104>
    ea98:	e55b3025 	ldrb	r3, [fp, #-37]	; 0xffffffdb
    ea9c:	ea00012b 	b	ef50 <sdInitCard+0x5b4>
    eaa0:	e59f34c8 	ldr	r3, [pc, #1224]	; ef70 <sdInitCard+0x5d4>
    eaa4:	e7943003 	ldr	r3, [r4, r3]
    eaa8:	e5933000 	ldr	r3, [r3]
    eaac:	e2833603 	add	r3, r3, #3145728	; 0x300000
    eab0:	e2833024 	add	r3, r3, #36	; 0x24
    eab4:	e5933000 	ldr	r3, [r3]
    eab8:	e7e03053 	ubfx	r3, r3, #0, #1
    eabc:	e6ef3073 	uxtb	r3, r3
    eac0:	e3530000 	cmp	r3, #0
    eac4:	0a000007 	beq	eae8 <sdInitCard+0x14c>
    eac8:	ebfff085 	bl	ace4 <sdResetCard>
    eacc:	e1a03000 	mov	r3, r0
    ead0:	e54b3025 	strb	r3, [fp, #-37]	; 0xffffffdb
    ead4:	e55b3025 	ldrb	r3, [fp, #-37]	; 0xffffffdb
    ead8:	e3530000 	cmp	r3, #0
    eadc:	0a000001 	beq	eae8 <sdInitCard+0x14c>
    eae0:	e55b3025 	ldrb	r3, [fp, #-37]	; 0xffffffdb
    eae4:	ea000119 	b	ef50 <sdInitCard+0x5b4>
    eae8:	e3a00902 	mov	r0, #32768	; 0x8000
    eaec:	e34000ff 	movt	r0, #255	; 0xff
    eaf0:	ebfff12b 	bl	afa4 <sdAppSendOpCond>
    eaf4:	e1a03000 	mov	r3, r0
    eaf8:	e54b3025 	strb	r3, [fp, #-37]	; 0xffffffdb
    eafc:	e55b3025 	ldrb	r3, [fp, #-37]	; 0xffffffdb
    eb00:	e3530000 	cmp	r3, #0
    eb04:	0a000005 	beq	eb20 <sdInitCard+0x184>
    eb08:	e55b3025 	ldrb	r3, [fp, #-37]	; 0xffffffdb
    eb0c:	e1a00003 	mov	r0, r3
    eb10:	ebffe98e 	bl	9150 <sdDebugResponse>
    eb14:	e1a03000 	mov	r3, r0
    eb18:	e6ef3073 	uxtb	r3, r3
    eb1c:	ea00010b 	b	ef50 <sdInitCard+0x5b4>
    eb20:	e59f344c 	ldr	r3, [pc, #1100]	; ef74 <sdInitCard+0x5d8>
    eb24:	e08f3003 	add	r3, pc, r3
    eb28:	e3a02002 	mov	r2, #2
    eb2c:	e5c32038 	strb	r2, [r3, #56]	; 0x38
    eb30:	e3a00001 	mov	r0, #1
    eb34:	ebffedf4 	bl	a30c <sdSendCommand>
    eb38:	e1a03000 	mov	r3, r0
    eb3c:	e54b3025 	strb	r3, [fp, #-37]	; 0xffffffdb
    eb40:	e55b3025 	ldrb	r3, [fp, #-37]	; 0xffffffdb
    eb44:	e3530000 	cmp	r3, #0
    eb48:	0a000005 	beq	eb64 <sdInitCard+0x1c8>
    eb4c:	e55b3025 	ldrb	r3, [fp, #-37]	; 0xffffffdb
    eb50:	e1a00003 	mov	r0, r3
    eb54:	ebffe97d 	bl	9150 <sdDebugResponse>
    eb58:	e1a03000 	mov	r3, r0
    eb5c:	e6ef3073 	uxtb	r3, r3
    eb60:	ea0000fa 	b	ef50 <sdInitCard+0x5b4>
    eb64:	e3a00002 	mov	r0, #2
    eb68:	ebffede7 	bl	a30c <sdSendCommand>
    eb6c:	e1a03000 	mov	r3, r0
    eb70:	e54b3025 	strb	r3, [fp, #-37]	; 0xffffffdb
    eb74:	e55b3025 	ldrb	r3, [fp, #-37]	; 0xffffffdb
    eb78:	e3530000 	cmp	r3, #0
    eb7c:	0a000005 	beq	eb98 <sdInitCard+0x1fc>
    eb80:	e55b3025 	ldrb	r3, [fp, #-37]	; 0xffffffdb
    eb84:	e1a00003 	mov	r0, r3
    eb88:	ebffe970 	bl	9150 <sdDebugResponse>
    eb8c:	e1a03000 	mov	r3, r0
    eb90:	e6ef3073 	uxtb	r3, r3
    eb94:	ea0000ed 	b	ef50 <sdInitCard+0x5b4>
    eb98:	e3a00007 	mov	r0, #7
    eb9c:	ebffedda 	bl	a30c <sdSendCommand>
    eba0:	e1a03000 	mov	r3, r0
    eba4:	e54b3025 	strb	r3, [fp, #-37]	; 0xffffffdb
    eba8:	e55b3025 	ldrb	r3, [fp, #-37]	; 0xffffffdb
    ebac:	e3530000 	cmp	r3, #0
    ebb0:	0a000005 	beq	ebcc <sdInitCard+0x230>
    ebb4:	e55b3025 	ldrb	r3, [fp, #-37]	; 0xffffffdb
    ebb8:	e1a00003 	mov	r0, r3
    ebbc:	ebffe963 	bl	9150 <sdDebugResponse>
    ebc0:	e1a03000 	mov	r3, r0
    ebc4:	e6ef3073 	uxtb	r3, r3
    ebc8:	ea0000e0 	b	ef50 <sdInitCard+0x5b4>
    ebcc:	e3070840 	movw	r0, #30784	; 0x7840
    ebd0:	e340017d 	movt	r0, #381	; 0x17d
    ebd4:	ebffef7c 	bl	a9cc <sdSetClock>
    ebd8:	e1a03000 	mov	r3, r0
    ebdc:	e54b3025 	strb	r3, [fp, #-37]	; 0xffffffdb
    ebe0:	e55b3025 	ldrb	r3, [fp, #-37]	; 0xffffffdb
    ebe4:	e3530000 	cmp	r3, #0
    ebe8:	0a000005 	beq	ec04 <sdInitCard+0x268>
    ebec:	e55b3025 	ldrb	r3, [fp, #-37]	; 0xffffffdb
    ebf0:	e1a00003 	mov	r0, r3
    ebf4:	ebffe955 	bl	9150 <sdDebugResponse>
    ebf8:	e1a03000 	mov	r3, r0
    ebfc:	e6ef3073 	uxtb	r3, r3
    ec00:	ea0000d2 	b	ef50 <sdInitCard+0x5b4>
    ec04:	e3a00005 	mov	r0, #5
    ec08:	ebffedbf 	bl	a30c <sdSendCommand>
    ec0c:	e1a03000 	mov	r3, r0
    ec10:	e54b3025 	strb	r3, [fp, #-37]	; 0xffffffdb
    ec14:	e55b3025 	ldrb	r3, [fp, #-37]	; 0xffffffdb
    ec18:	e3530000 	cmp	r3, #0
    ec1c:	0a000005 	beq	ec38 <sdInitCard+0x29c>
    ec20:	e55b3025 	ldrb	r3, [fp, #-37]	; 0xffffffdb
    ec24:	e1a00003 	mov	r0, r3
    ec28:	ebffe948 	bl	9150 <sdDebugResponse>
    ec2c:	e1a03000 	mov	r3, r0
    ec30:	e6ef3073 	uxtb	r3, r3
    ec34:	ea0000c5 	b	ef50 <sdInitCard+0x5b4>
    ec38:	ebffee36 	bl	a518 <sdReadSCR>
    ec3c:	e1a03000 	mov	r3, r0
    ec40:	e54b3025 	strb	r3, [fp, #-37]	; 0xffffffdb
    ec44:	e55b3025 	ldrb	r3, [fp, #-37]	; 0xffffffdb
    ec48:	e3530000 	cmp	r3, #0
    ec4c:	0a000005 	beq	ec68 <sdInitCard+0x2cc>
    ec50:	e55b3025 	ldrb	r3, [fp, #-37]	; 0xffffffdb
    ec54:	e1a00003 	mov	r0, r3
    ec58:	ebffe93c 	bl	9150 <sdDebugResponse>
    ec5c:	e1a03000 	mov	r3, r0
    ec60:	e6ef3073 	uxtb	r3, r3
    ec64:	ea0000b9 	b	ef50 <sdInitCard+0x5b4>
    ec68:	e59f3308 	ldr	r3, [pc, #776]	; ef78 <sdInitCard+0x5dc>
    ec6c:	e08f3003 	add	r3, pc, r3
    ec70:	e5d33025 	ldrb	r3, [r3, #37]	; 0x25
    ec74:	e7e33053 	ubfx	r3, r3, #0, #4
    ec78:	e6ef3073 	uxtb	r3, r3
    ec7c:	e3530004 	cmp	r3, #4
    ec80:	1a00001a 	bne	ecf0 <sdInitCard+0x354>
    ec84:	e59f32f0 	ldr	r3, [pc, #752]	; ef7c <sdInitCard+0x5e0>
    ec88:	e08f3003 	add	r3, pc, r3
    ec8c:	e593303c 	ldr	r3, [r3, #60]	; 0x3c
    ec90:	e3833002 	orr	r3, r3, #2
    ec94:	e1a01003 	mov	r1, r3
    ec98:	e3a00020 	mov	r0, #32
    ec9c:	ebffede2 	bl	a42c <sdSendCommandA>
    eca0:	e1a03000 	mov	r3, r0
    eca4:	e54b3025 	strb	r3, [fp, #-37]	; 0xffffffdb
    eca8:	e55b3025 	ldrb	r3, [fp, #-37]	; 0xffffffdb
    ecac:	e3530000 	cmp	r3, #0
    ecb0:	0a000005 	beq	eccc <sdInitCard+0x330>
    ecb4:	e55b3025 	ldrb	r3, [fp, #-37]	; 0xffffffdb
    ecb8:	e1a00003 	mov	r0, r3
    ecbc:	ebffe923 	bl	9150 <sdDebugResponse>
    ecc0:	e1a03000 	mov	r3, r0
    ecc4:	e6ef3073 	uxtb	r3, r3
    ecc8:	ea0000a0 	b	ef50 <sdInitCard+0x5b4>
    eccc:	e59f329c 	ldr	r3, [pc, #668]	; ef70 <sdInitCard+0x5d4>
    ecd0:	e7943003 	ldr	r3, [r4, r3]
    ecd4:	e5933000 	ldr	r3, [r3]
    ecd8:	e2833603 	add	r3, r3, #3145728	; 0x300000
    ecdc:	e2833028 	add	r3, r3, #40	; 0x28
    ece0:	e1a02003 	mov	r2, r3
    ece4:	e5923000 	ldr	r3, [r2]
    ece8:	e3833002 	orr	r3, r3, #2
    ecec:	e5823000 	str	r3, [r2]
    ecf0:	e3a01c02 	mov	r1, #512	; 0x200
    ecf4:	e3a0000d 	mov	r0, #13
    ecf8:	ebffedcb 	bl	a42c <sdSendCommandA>
    ecfc:	e1a03000 	mov	r3, r0
    ed00:	e54b3025 	strb	r3, [fp, #-37]	; 0xffffffdb
    ed04:	e55b3025 	ldrb	r3, [fp, #-37]	; 0xffffffdb
    ed08:	e3530000 	cmp	r3, #0
    ed0c:	0a000005 	beq	ed28 <sdInitCard+0x38c>
    ed10:	e55b3025 	ldrb	r3, [fp, #-37]	; 0xffffffdb
    ed14:	e1a00003 	mov	r0, r3
    ed18:	ebffe90c 	bl	9150 <sdDebugResponse>
    ed1c:	e1a03000 	mov	r3, r0
    ed20:	e6ef3073 	uxtb	r3, r3
    ed24:	ea000089 	b	ef50 <sdInitCard+0x5b4>
    ed28:	e59f3250 	ldr	r3, [pc, #592]	; ef80 <sdInitCard+0x5e4>
    ed2c:	e08f3003 	add	r3, pc, r3
    ed30:	e5933008 	ldr	r3, [r3, #8]
    ed34:	e6ff3073 	uxth	r3, r3
    ed38:	e50b302c 	str	r3, [fp, #-44]	; 0xffffffd4
    ed3c:	e51b302c 	ldr	r3, [fp, #-44]	; 0xffffffd4
    ed40:	e1a03803 	lsl	r3, r3, #16
    ed44:	e50b302c 	str	r3, [fp, #-44]	; 0xffffffd4
    ed48:	e59f3234 	ldr	r3, [pc, #564]	; ef84 <sdInitCard+0x5e8>
    ed4c:	e08f3003 	add	r3, pc, r3
    ed50:	e593300c 	ldr	r3, [r3, #12]
    ed54:	e7ef3853 	ubfx	r3, r3, #16, #16
    ed58:	e6ff3073 	uxth	r3, r3
    ed5c:	e1a02003 	mov	r2, r3
    ed60:	e51b302c 	ldr	r3, [fp, #-44]	; 0xffffffd4
    ed64:	e1833002 	orr	r3, r3, r2
    ed68:	e50b302c 	str	r3, [fp, #-44]	; 0xffffffd4
    ed6c:	e51b3030 	ldr	r3, [fp, #-48]	; 0xffffffd0
    ed70:	e3530000 	cmp	r3, #0
    ed74:	0a000068 	beq	ef1c <sdInitCard+0x580>
    ed78:	e59f3208 	ldr	r3, [pc, #520]	; ef88 <sdInitCard+0x5ec>
    ed7c:	e08f3003 	add	r3, pc, r3
    ed80:	e5d33038 	ldrb	r3, [r3, #56]	; 0x38
    ed84:	e1a02003 	mov	r2, r3
    ed88:	e59f31fc 	ldr	r3, [pc, #508]	; ef8c <sdInitCard+0x5f0>
    ed8c:	e08f3003 	add	r3, pc, r3
    ed90:	e793c102 	ldr	ip, [r3, r2, lsl #2]
    ed94:	e59f31f4 	ldr	r3, [pc, #500]	; ef90 <sdInitCard+0x5f4>
    ed98:	e08f3003 	add	r3, pc, r3
    ed9c:	e1c303d0 	ldrd	r0, [r3, #48]	; 0x30
    eda0:	e3a02000 	mov	r2, #0
    eda4:	e3a03000 	mov	r3, #0
    eda8:	e1a02a20 	lsr	r2, r0, #20
    edac:	e1822601 	orr	r2, r2, r1, lsl #12
    edb0:	e1a03a21 	lsr	r3, r1, #20
    edb4:	e50b203c 	str	r2, [fp, #-60]	; 0xffffffc4
    edb8:	e59f31d4 	ldr	r3, [pc, #468]	; ef94 <sdInitCard+0x5f8>
    edbc:	e08f3003 	add	r3, pc, r3
    edc0:	e5d33002 	ldrb	r3, [r3, #2]
    edc4:	e6ef3073 	uxtb	r3, r3
    edc8:	e50b3040 	str	r3, [fp, #-64]	; 0xffffffc0
    edcc:	e59f31c4 	ldr	r3, [pc, #452]	; ef98 <sdInitCard+0x5fc>
    edd0:	e08f3003 	add	r3, pc, r3
    edd4:	e5d33001 	ldrb	r3, [r3, #1]
    edd8:	e6ef3073 	uxtb	r3, r3
    eddc:	e1a01003 	mov	r1, r3
    ede0:	e59f31b4 	ldr	r3, [pc, #436]	; ef9c <sdInitCard+0x600>
    ede4:	e08f3003 	add	r3, pc, r3
    ede8:	e5d33000 	ldrb	r3, [r3]
    edec:	e6ef3073 	uxtb	r3, r3
    edf0:	e1a00003 	mov	r0, r3
    edf4:	e59f31a4 	ldr	r3, [pc, #420]	; efa0 <sdInitCard+0x604>
    edf8:	e08f3003 	add	r3, pc, r3
    edfc:	e5d33007 	ldrb	r3, [r3, #7]
    ee00:	e6ef3073 	uxtb	r3, r3
    ee04:	e1a0e003 	mov	lr, r3
    ee08:	e59f3194 	ldr	r3, [pc, #404]	; efa4 <sdInitCard+0x608>
    ee0c:	e08f3003 	add	r3, pc, r3
    ee10:	e5d33006 	ldrb	r3, [r3, #6]
    ee14:	e6ef3073 	uxtb	r3, r3
    ee18:	e1a04003 	mov	r4, r3
    ee1c:	e59f3184 	ldr	r3, [pc, #388]	; efa8 <sdInitCard+0x60c>
    ee20:	e08f3003 	add	r3, pc, r3
    ee24:	e5d33005 	ldrb	r3, [r3, #5]
    ee28:	e6ef3073 	uxtb	r3, r3
    ee2c:	e1a05003 	mov	r5, r3
    ee30:	e59f3174 	ldr	r3, [pc, #372]	; efac <sdInitCard+0x610>
    ee34:	e08f3003 	add	r3, pc, r3
    ee38:	e5d33004 	ldrb	r3, [r3, #4]
    ee3c:	e6ef3073 	uxtb	r3, r3
    ee40:	e1a06003 	mov	r6, r3
    ee44:	e59f3164 	ldr	r3, [pc, #356]	; efb0 <sdInitCard+0x614>
    ee48:	e08f3003 	add	r3, pc, r3
    ee4c:	e5d3300b 	ldrb	r3, [r3, #11]
    ee50:	e6ef3073 	uxtb	r3, r3
    ee54:	e1a07003 	mov	r7, r3
    ee58:	e59f3154 	ldr	r3, [pc, #340]	; efb4 <sdInitCard+0x618>
    ee5c:	e08f3003 	add	r3, pc, r3
    ee60:	e5933008 	ldr	r3, [r3, #8]
    ee64:	e7e33a53 	ubfx	r3, r3, #20, #4
    ee68:	e6ef3073 	uxtb	r3, r3
    ee6c:	e1a08003 	mov	r8, r3
    ee70:	e59f3140 	ldr	r3, [pc, #320]	; efb8 <sdInitCard+0x61c>
    ee74:	e08f3003 	add	r3, pc, r3
    ee78:	e5933008 	ldr	r3, [r3, #8]
    ee7c:	e7e33853 	ubfx	r3, r3, #16, #4
    ee80:	e6ef3073 	uxtb	r3, r3
    ee84:	e1a09003 	mov	r9, r3
    ee88:	e59f312c 	ldr	r3, [pc, #300]	; efbc <sdInitCard+0x620>
    ee8c:	e08f3003 	add	r3, pc, r3
    ee90:	e593300c 	ldr	r3, [r3, #12]
    ee94:	e7e33053 	ubfx	r3, r3, #0, #4
    ee98:	e6ef3073 	uxtb	r3, r3
    ee9c:	e1a0a003 	mov	sl, r3
    eea0:	e59f3118 	ldr	r3, [pc, #280]	; efc0 <sdInitCard+0x624>
    eea4:	e08f3003 	add	r3, pc, r3
    eea8:	e593300c 	ldr	r3, [r3, #12]
    eeac:	e7e73253 	ubfx	r3, r3, #4, #8
    eeb0:	e6ef3073 	uxtb	r3, r3
    eeb4:	e2832e7d 	add	r2, r3, #2000	; 0x7d0
    eeb8:	e59f3104 	ldr	r3, [pc, #260]	; efc4 <sdInitCard+0x628>
    eebc:	e08f3003 	add	r3, pc, r3
    eec0:	e593303c 	ldr	r3, [r3, #60]	; 0x3c
    eec4:	e1a03823 	lsr	r3, r3, #16
    eec8:	e58d3030 	str	r3, [sp, #48]	; 0x30
    eecc:	e51b302c 	ldr	r3, [fp, #-44]	; 0xffffffd4
    eed0:	e58d302c 	str	r3, [sp, #44]	; 0x2c
    eed4:	e58d2028 	str	r2, [sp, #40]	; 0x28
    eed8:	e58da024 	str	sl, [sp, #36]	; 0x24
    eedc:	e58d9020 	str	r9, [sp, #32]
    eee0:	e58d801c 	str	r8, [sp, #28]
    eee4:	e58d7018 	str	r7, [sp, #24]
    eee8:	e58d6014 	str	r6, [sp, #20]
    eeec:	e58d5010 	str	r5, [sp, #16]
    eef0:	e58d400c 	str	r4, [sp, #12]
    eef4:	e58de008 	str	lr, [sp, #8]
    eef8:	e58d0004 	str	r0, [sp, #4]
    eefc:	e58d1000 	str	r1, [sp]
    ef00:	e51b4030 	ldr	r4, [fp, #-48]	; 0xffffffd0
    ef04:	e51b3040 	ldr	r3, [fp, #-64]	; 0xffffffc0
    ef08:	e51b203c 	ldr	r2, [fp, #-60]	; 0xffffffc4
    ef0c:	e1a0100c 	mov	r1, ip
    ef10:	e59f00b0 	ldr	r0, [pc, #176]	; efc8 <sdInitCard+0x62c>
    ef14:	e08f0000 	add	r0, pc, r0
    ef18:	e12fff34 	blx	r4
    ef1c:	e55b3035 	ldrb	r3, [fp, #-53]	; 0xffffffcb
    ef20:	e3530000 	cmp	r3, #0
    ef24:	0a000008 	beq	ef4c <sdInitCard+0x5b0>
    ef28:	e51b0030 	ldr	r0, [fp, #-48]	; 0xffffffd0
    ef2c:	ebfff2a5 	bl	b9c8 <LoadDrivePartition>
    ef30:	e1a03000 	mov	r3, r0
    ef34:	e2233001 	eor	r3, r3, #1
    ef38:	e6ef3073 	uxtb	r3, r3
    ef3c:	e3530000 	cmp	r3, #0
    ef40:	0a000001 	beq	ef4c <sdInitCard+0x5b0>
    ef44:	e3a0300c 	mov	r3, #12
    ef48:	ea000000 	b	ef50 <sdInitCard+0x5b4>
    ef4c:	e3a03000 	mov	r3, #0
    ef50:	e1a00003 	mov	r0, r3
    ef54:	e24bd020 	sub	sp, fp, #32
    ef58:	e8bd8ff0 	pop	{r4, r5, r6, r7, r8, r9, sl, fp, pc}
    ef5c:	000079d0 	ldrdeq	r7, [r0], -r0
    ef60:	0000003c 	andeq	r0, r0, ip, lsr r0
    ef64:	00007fdc 	ldrdeq	r7, [r0], -ip
    ef68:	00007fc0 	andeq	r7, r0, r0, asr #31
    ef6c:	00007fac 	andeq	r7, r0, ip, lsr #31
    ef70:	00000020 	andeq	r0, r0, r0, lsr #32
    ef74:	00007f04 	andeq	r7, r0, r4, lsl #30
    ef78:	00007dbc 			; <UNDEFINED> instruction: 0x00007dbc
    ef7c:	00007da0 	andeq	r7, r0, r0, lsr #27
    ef80:	00007cfc 	strdeq	r7, [r0], -ip
    ef84:	00007cdc 	ldrdeq	r7, [r0], -ip
    ef88:	00007cac 	andeq	r7, r0, ip, lsr #25
    ef8c:	00007654 	andeq	r7, r0, r4, asr r6
    ef90:	00007c90 	muleq	r0, r0, ip
    ef94:	00007c6c 	andeq	r7, r0, ip, ror #24
    ef98:	00007c58 	andeq	r7, r0, r8, asr ip
    ef9c:	00007c44 	andeq	r7, r0, r4, asr #24
    efa0:	00007c30 	andeq	r7, r0, r0, lsr ip
    efa4:	00007c1c 	andeq	r7, r0, ip, lsl ip
    efa8:	00007c08 	andeq	r7, r0, r8, lsl #24
    efac:	00007bf4 	strdeq	r7, [r0], -r4
    efb0:	00007be0 	andeq	r7, r0, r0, ror #23
    efb4:	00007bcc 	andeq	r7, r0, ip, asr #23
    efb8:	00007bb4 			; <UNDEFINED> instruction: 0x00007bb4
    efbc:	00007b9c 	muleq	r0, ip, fp
    efc0:	00007b84 	andeq	r7, r0, r4, lsl #23
    efc4:	00007b6c 	andeq	r7, r0, ip, ror #22
    efc8:	020b85f0 	andeq	r8, fp, #240, 10	; 0x3c000000

0000efcc <sdCardCSD>:
    efcc:	e52db004 	push	{fp}		; (str fp, [sp, #-4]!)
    efd0:	e28db000 	add	fp, sp, #0
    efd4:	e59f3030 	ldr	r3, [pc, #48]	; f00c <sdCardCSD+0x40>
    efd8:	e08f3003 	add	r3, pc, r3
    efdc:	e5d33038 	ldrb	r3, [r3, #56]	; 0x38
    efe0:	e3530000 	cmp	r3, #0
    efe4:	0a000003 	beq	eff8 <sdCardCSD+0x2c>
    efe8:	e59f3020 	ldr	r3, [pc, #32]	; f010 <sdCardCSD+0x44>
    efec:	e08f3003 	add	r3, pc, r3
    eff0:	e2833010 	add	r3, r3, #16
    eff4:	ea000000 	b	effc <sdCardCSD+0x30>
    eff8:	e3a03000 	mov	r3, #0
    effc:	e1a00003 	mov	r0, r3
    f000:	e28bd000 	add	sp, fp, #0
    f004:	e49db004 	pop	{fp}		; (ldr fp, [sp], #4)
    f008:	e12fff1e 	bx	lr
    f00c:	00007a50 	andeq	r7, r0, r0, asr sl
    f010:	00007a3c 	andeq	r7, r0, ip, lsr sl

0000f014 <gpio_setup>:
    f014:	e52db004 	push	{fp}		; (str fp, [sp, #-4]!)
    f018:	e28db000 	add	fp, sp, #0
    f01c:	e24dd014 	sub	sp, sp, #20
    f020:	e50b0010 	str	r0, [fp, #-16]
    f024:	e1a03001 	mov	r3, r1
    f028:	e54b3011 	strb	r3, [fp, #-17]	; 0xffffffef
    f02c:	e59f2104 	ldr	r2, [pc, #260]	; f138 <gpio_setup+0x124>
    f030:	e08f2002 	add	r2, pc, r2
    f034:	e51b3010 	ldr	r3, [fp, #-16]
    f038:	e3530036 	cmp	r3, #54	; 0x36
    f03c:	9a000001 	bls	f048 <gpio_setup+0x34>
    f040:	e3a03000 	mov	r3, #0
    f044:	ea000037 	b	f128 <gpio_setup+0x114>
    f048:	e55b3011 	ldrb	r3, [fp, #-17]	; 0xffffffef
    f04c:	e3530007 	cmp	r3, #7
    f050:	9a000001 	bls	f05c <gpio_setup+0x48>
    f054:	e3a03000 	mov	r3, #0
    f058:	ea000032 	b	f128 <gpio_setup+0x114>
    f05c:	e51b1010 	ldr	r1, [fp, #-16]
    f060:	e30c3ccd 	movw	r3, #52429	; 0xcccd
    f064:	e34c3ccc 	movt	r3, #52428	; 0xcccc
    f068:	e0830193 	umull	r0, r3, r3, r1
    f06c:	e1a031a3 	lsr	r3, r3, #3
    f070:	e3a0000a 	mov	r0, #10
    f074:	e0030390 	mul	r3, r0, r3
    f078:	e0413003 	sub	r3, r1, r3
    f07c:	e3a01003 	mov	r1, #3
    f080:	e0030391 	mul	r3, r1, r3
    f084:	e50b3008 	str	r3, [fp, #-8]
    f088:	e59f30ac 	ldr	r3, [pc, #172]	; f13c <gpio_setup+0x128>
    f08c:	e7923003 	ldr	r3, [r2, r3]
    f090:	e5933000 	ldr	r3, [r3]
    f094:	e2833602 	add	r3, r3, #2097152	; 0x200000
    f098:	e1a00003 	mov	r0, r3
    f09c:	e51b1010 	ldr	r1, [fp, #-16]
    f0a0:	e30c3ccd 	movw	r3, #52429	; 0xcccd
    f0a4:	e34c3ccc 	movt	r3, #52428	; 0xcccc
    f0a8:	e0831193 	umull	r1, r3, r3, r1
    f0ac:	e1a031a3 	lsr	r3, r3, #3
    f0b0:	e7903103 	ldr	r3, [r0, r3, lsl #2]
    f0b4:	e50b300c 	str	r3, [fp, #-12]
    f0b8:	e3a01007 	mov	r1, #7
    f0bc:	e51b3008 	ldr	r3, [fp, #-8]
    f0c0:	e1a03311 	lsl	r3, r1, r3
    f0c4:	e1e03003 	mvn	r3, r3
    f0c8:	e1a01003 	mov	r1, r3
    f0cc:	e51b300c 	ldr	r3, [fp, #-12]
    f0d0:	e0033001 	and	r3, r3, r1
    f0d4:	e50b300c 	str	r3, [fp, #-12]
    f0d8:	e55b1011 	ldrb	r1, [fp, #-17]	; 0xffffffef
    f0dc:	e51b3008 	ldr	r3, [fp, #-8]
    f0e0:	e1a03311 	lsl	r3, r1, r3
    f0e4:	e1a01003 	mov	r1, r3
    f0e8:	e51b300c 	ldr	r3, [fp, #-12]
    f0ec:	e1833001 	orr	r3, r3, r1
    f0f0:	e50b300c 	str	r3, [fp, #-12]
    f0f4:	e59f3040 	ldr	r3, [pc, #64]	; f13c <gpio_setup+0x128>
    f0f8:	e7923003 	ldr	r3, [r2, r3]
    f0fc:	e5933000 	ldr	r3, [r3]
    f100:	e2833602 	add	r3, r3, #2097152	; 0x200000
    f104:	e1a01003 	mov	r1, r3
    f108:	e51b2010 	ldr	r2, [fp, #-16]
    f10c:	e30c3ccd 	movw	r3, #52429	; 0xcccd
    f110:	e34c3ccc 	movt	r3, #52428	; 0xcccc
    f114:	e0832293 	umull	r2, r3, r3, r2
    f118:	e1a031a3 	lsr	r3, r3, #3
    f11c:	e51b200c 	ldr	r2, [fp, #-12]
    f120:	e7812103 	str	r2, [r1, r3, lsl #2]
    f124:	e3a03001 	mov	r3, #1
    f128:	e1a00003 	mov	r0, r3
    f12c:	e28bd000 	add	sp, fp, #0
    f130:	e49db004 	pop	{fp}		; (ldr fp, [sp], #4)
    f134:	e12fff1e 	bx	lr
    f138:	0000735c 	andeq	r7, r0, ip, asr r3
    f13c:	00000020 	andeq	r0, r0, r0, lsr #32

0000f140 <gpio_output>:
    f140:	e52db004 	push	{fp}		; (str fp, [sp, #-4]!)
    f144:	e28db000 	add	fp, sp, #0
    f148:	e24dd014 	sub	sp, sp, #20
    f14c:	e50b0010 	str	r0, [fp, #-16]
    f150:	e1a03001 	mov	r3, r1
    f154:	e54b3011 	strb	r3, [fp, #-17]	; 0xffffffef
    f158:	e59f30a4 	ldr	r3, [pc, #164]	; f204 <gpio_output+0xc4>
    f15c:	e08f3003 	add	r3, pc, r3
    f160:	e51b2010 	ldr	r2, [fp, #-16]
    f164:	e3520036 	cmp	r2, #54	; 0x36
    f168:	9a000001 	bls	f174 <gpio_output+0x34>
    f16c:	e3a03000 	mov	r3, #0
    f170:	ea00001f 	b	f1f4 <gpio_output+0xb4>
    f174:	e51b2010 	ldr	r2, [fp, #-16]
    f178:	e202201f 	and	r2, r2, #31
    f17c:	e3a01001 	mov	r1, #1
    f180:	e1a02211 	lsl	r2, r1, r2
    f184:	e50b2008 	str	r2, [fp, #-8]
    f188:	e55b2011 	ldrb	r2, [fp, #-17]	; 0xffffffef
    f18c:	e3520000 	cmp	r2, #0
    f190:	0a00000c 	beq	f1c8 <gpio_output+0x88>
    f194:	e59f206c 	ldr	r2, [pc, #108]	; f208 <gpio_output+0xc8>
    f198:	e7933002 	ldr	r3, [r3, r2]
    f19c:	e5933000 	ldr	r3, [r3]
    f1a0:	e2833602 	add	r3, r3, #2097152	; 0x200000
    f1a4:	e1a02003 	mov	r2, r3
    f1a8:	e51b3010 	ldr	r3, [fp, #-16]
    f1ac:	e1a032a3 	lsr	r3, r3, #5
    f1b0:	e2833006 	add	r3, r3, #6
    f1b4:	e1a03103 	lsl	r3, r3, #2
    f1b8:	e0823003 	add	r3, r2, r3
    f1bc:	e51b2008 	ldr	r2, [fp, #-8]
    f1c0:	e5832004 	str	r2, [r3, #4]
    f1c4:	ea000009 	b	f1f0 <gpio_output+0xb0>
    f1c8:	e59f2038 	ldr	r2, [pc, #56]	; f208 <gpio_output+0xc8>
    f1cc:	e7933002 	ldr	r3, [r3, r2]
    f1d0:	e5933000 	ldr	r3, [r3]
    f1d4:	e2833602 	add	r3, r3, #2097152	; 0x200000
    f1d8:	e1a01003 	mov	r1, r3
    f1dc:	e51b3010 	ldr	r3, [fp, #-16]
    f1e0:	e1a032a3 	lsr	r3, r3, #5
    f1e4:	e283300a 	add	r3, r3, #10
    f1e8:	e51b2008 	ldr	r2, [fp, #-8]
    f1ec:	e7812103 	str	r2, [r1, r3, lsl #2]
    f1f0:	e3a03001 	mov	r3, #1
    f1f4:	e1a00003 	mov	r0, r3
    f1f8:	e28bd000 	add	sp, fp, #0
    f1fc:	e49db004 	pop	{fp}		; (ldr fp, [sp], #4)
    f200:	e12fff1e 	bx	lr
    f204:	00007230 	andeq	r7, r0, r0, lsr r2
    f208:	00000020 	andeq	r0, r0, r0, lsr #32

0000f20c <gpio_input>:
    f20c:	e52db004 	push	{fp}		; (str fp, [sp, #-4]!)
    f210:	e28db000 	add	fp, sp, #0
    f214:	e24dd014 	sub	sp, sp, #20
    f218:	e50b0010 	str	r0, [fp, #-16]
    f21c:	e59f2088 	ldr	r2, [pc, #136]	; f2ac <gpio_input+0xa0>
    f220:	e08f2002 	add	r2, pc, r2
    f224:	e51b3010 	ldr	r3, [fp, #-16]
    f228:	e3530036 	cmp	r3, #54	; 0x36
    f22c:	9a000001 	bls	f238 <gpio_input+0x2c>
    f230:	e3a03000 	mov	r3, #0
    f234:	ea000018 	b	f29c <gpio_input+0x90>
    f238:	e51b3010 	ldr	r3, [fp, #-16]
    f23c:	e203301f 	and	r3, r3, #31
    f240:	e3a01001 	mov	r1, #1
    f244:	e1a03311 	lsl	r3, r1, r3
    f248:	e50b3008 	str	r3, [fp, #-8]
    f24c:	e59f305c 	ldr	r3, [pc, #92]	; f2b0 <gpio_input+0xa4>
    f250:	e7923003 	ldr	r3, [r2, r3]
    f254:	e5933000 	ldr	r3, [r3]
    f258:	e2833602 	add	r3, r3, #2097152	; 0x200000
    f25c:	e1a02003 	mov	r2, r3
    f260:	e51b3010 	ldr	r3, [fp, #-16]
    f264:	e1a032a3 	lsr	r3, r3, #5
    f268:	e283300c 	add	r3, r3, #12
    f26c:	e1a03103 	lsl	r3, r3, #2
    f270:	e0823003 	add	r3, r2, r3
    f274:	e5933004 	ldr	r3, [r3, #4]
    f278:	e50b300c 	str	r3, [fp, #-12]
    f27c:	e51b200c 	ldr	r2, [fp, #-12]
    f280:	e51b3008 	ldr	r3, [fp, #-8]
    f284:	e0033002 	and	r3, r3, r2
    f288:	e3530000 	cmp	r3, #0
    f28c:	0a000001 	beq	f298 <gpio_input+0x8c>
    f290:	e3a03001 	mov	r3, #1
    f294:	ea000000 	b	f29c <gpio_input+0x90>
    f298:	e3a03000 	mov	r3, #0
    f29c:	e1a00003 	mov	r0, r3
    f2a0:	e28bd000 	add	sp, fp, #0
    f2a4:	e49db004 	pop	{fp}		; (ldr fp, [sp], #4)
    f2a8:	e12fff1e 	bx	lr
    f2ac:	0000716c 	andeq	r7, r0, ip, ror #2
    f2b0:	00000020 	andeq	r0, r0, r0, lsr #32

0000f2b4 <gpio_checkEvent>:
    f2b4:	e52db004 	push	{fp}		; (str fp, [sp, #-4]!)
    f2b8:	e28db000 	add	fp, sp, #0
    f2bc:	e24dd014 	sub	sp, sp, #20
    f2c0:	e50b0010 	str	r0, [fp, #-16]
    f2c4:	e59f2080 	ldr	r2, [pc, #128]	; f34c <gpio_checkEvent+0x98>
    f2c8:	e08f2002 	add	r2, pc, r2
    f2cc:	e51b3010 	ldr	r3, [fp, #-16]
    f2d0:	e3530036 	cmp	r3, #54	; 0x36
    f2d4:	9a000001 	bls	f2e0 <gpio_checkEvent+0x2c>
    f2d8:	e3a03000 	mov	r3, #0
    f2dc:	ea000016 	b	f33c <gpio_checkEvent+0x88>
    f2e0:	e51b3010 	ldr	r3, [fp, #-16]
    f2e4:	e203301f 	and	r3, r3, #31
    f2e8:	e3a01001 	mov	r1, #1
    f2ec:	e1a03311 	lsl	r3, r1, r3
    f2f0:	e50b3008 	str	r3, [fp, #-8]
    f2f4:	e59f3054 	ldr	r3, [pc, #84]	; f350 <gpio_checkEvent+0x9c>
    f2f8:	e7923003 	ldr	r3, [r2, r3]
    f2fc:	e5933000 	ldr	r3, [r3]
    f300:	e2833602 	add	r3, r3, #2097152	; 0x200000
    f304:	e1a02003 	mov	r2, r3
    f308:	e51b3010 	ldr	r3, [fp, #-16]
    f30c:	e1a032a3 	lsr	r3, r3, #5
    f310:	e2833010 	add	r3, r3, #16
    f314:	e7923103 	ldr	r3, [r2, r3, lsl #2]
    f318:	e50b300c 	str	r3, [fp, #-12]
    f31c:	e51b200c 	ldr	r2, [fp, #-12]
    f320:	e51b3008 	ldr	r3, [fp, #-8]
    f324:	e0033002 	and	r3, r3, r2
    f328:	e3530000 	cmp	r3, #0
    f32c:	0a000001 	beq	f338 <gpio_checkEvent+0x84>
    f330:	e3a03001 	mov	r3, #1
    f334:	ea000000 	b	f33c <gpio_checkEvent+0x88>
    f338:	e3a03000 	mov	r3, #0
    f33c:	e1a00003 	mov	r0, r3
    f340:	e28bd000 	add	sp, fp, #0
    f344:	e49db004 	pop	{fp}		; (ldr fp, [sp], #4)
    f348:	e12fff1e 	bx	lr
    f34c:	000070c4 	andeq	r7, r0, r4, asr #1
    f350:	00000020 	andeq	r0, r0, r0, lsr #32

0000f354 <gpio_clearEvent>:
    f354:	e52db004 	push	{fp}		; (str fp, [sp, #-4]!)
    f358:	e28db000 	add	fp, sp, #0
    f35c:	e24dd014 	sub	sp, sp, #20
    f360:	e50b0010 	str	r0, [fp, #-16]
    f364:	e59f2064 	ldr	r2, [pc, #100]	; f3d0 <gpio_clearEvent+0x7c>
    f368:	e08f2002 	add	r2, pc, r2
    f36c:	e51b3010 	ldr	r3, [fp, #-16]
    f370:	e3530036 	cmp	r3, #54	; 0x36
    f374:	9a000001 	bls	f380 <gpio_clearEvent+0x2c>
    f378:	e3a03000 	mov	r3, #0
    f37c:	ea00000f 	b	f3c0 <gpio_clearEvent+0x6c>
    f380:	e51b3010 	ldr	r3, [fp, #-16]
    f384:	e203301f 	and	r3, r3, #31
    f388:	e3a01001 	mov	r1, #1
    f38c:	e1a03311 	lsl	r3, r1, r3
    f390:	e50b3008 	str	r3, [fp, #-8]
    f394:	e59f3038 	ldr	r3, [pc, #56]	; f3d4 <gpio_clearEvent+0x80>
    f398:	e7923003 	ldr	r3, [r2, r3]
    f39c:	e5933000 	ldr	r3, [r3]
    f3a0:	e2833602 	add	r3, r3, #2097152	; 0x200000
    f3a4:	e1a01003 	mov	r1, r3
    f3a8:	e51b3010 	ldr	r3, [fp, #-16]
    f3ac:	e1a032a3 	lsr	r3, r3, #5
    f3b0:	e2833010 	add	r3, r3, #16
    f3b4:	e51b2008 	ldr	r2, [fp, #-8]
    f3b8:	e7812103 	str	r2, [r1, r3, lsl #2]
    f3bc:	e3a03001 	mov	r3, #1
    f3c0:	e1a00003 	mov	r0, r3
    f3c4:	e28bd000 	add	sp, fp, #0
    f3c8:	e49db004 	pop	{fp}		; (ldr fp, [sp], #4)
    f3cc:	e12fff1e 	bx	lr
    f3d0:	00007024 	andeq	r7, r0, r4, lsr #32
    f3d4:	00000020 	andeq	r0, r0, r0, lsr #32

0000f3d8 <gpio_edgeDetect>:
    f3d8:	e52db004 	push	{fp}		; (str fp, [sp, #-4]!)
    f3dc:	e28db000 	add	fp, sp, #0
    f3e0:	e24dd014 	sub	sp, sp, #20
    f3e4:	e50b0010 	str	r0, [fp, #-16]
    f3e8:	e1a03001 	mov	r3, r1
    f3ec:	e54b3011 	strb	r3, [fp, #-17]	; 0xffffffef
    f3f0:	e1a03002 	mov	r3, r2
    f3f4:	e54b3012 	strb	r3, [fp, #-18]	; 0xffffffee
    f3f8:	e59f311c 	ldr	r3, [pc, #284]	; f51c <gpio_edgeDetect+0x144>
    f3fc:	e08f3003 	add	r3, pc, r3
    f400:	e51b2010 	ldr	r2, [fp, #-16]
    f404:	e3520036 	cmp	r2, #54	; 0x36
    f408:	9a000001 	bls	f414 <gpio_edgeDetect+0x3c>
    f40c:	e3a03000 	mov	r3, #0
    f410:	ea00003d 	b	f50c <gpio_edgeDetect+0x134>
    f414:	e51b2010 	ldr	r2, [fp, #-16]
    f418:	e202201f 	and	r2, r2, #31
    f41c:	e3a01001 	mov	r1, #1
    f420:	e1a02211 	lsl	r2, r1, r2
    f424:	e50b2008 	str	r2, [fp, #-8]
    f428:	e55b2011 	ldrb	r2, [fp, #-17]	; 0xffffffef
    f42c:	e3520000 	cmp	r2, #0
    f430:	0a00001c 	beq	f4a8 <gpio_edgeDetect+0xd0>
    f434:	e55b2012 	ldrb	r2, [fp, #-18]	; 0xffffffee
    f438:	e3520000 	cmp	r2, #0
    f43c:	0a00000c 	beq	f474 <gpio_edgeDetect+0x9c>
    f440:	e59f20d8 	ldr	r2, [pc, #216]	; f520 <gpio_edgeDetect+0x148>
    f444:	e7933002 	ldr	r3, [r3, r2]
    f448:	e5933000 	ldr	r3, [r3]
    f44c:	e2833602 	add	r3, r3, #2097152	; 0x200000
    f450:	e1a02003 	mov	r2, r3
    f454:	e51b3010 	ldr	r3, [fp, #-16]
    f458:	e1a032a3 	lsr	r3, r3, #5
    f45c:	e283301e 	add	r3, r3, #30
    f460:	e1a03103 	lsl	r3, r3, #2
    f464:	e0823003 	add	r3, r2, r3
    f468:	e51b2008 	ldr	r2, [fp, #-8]
    f46c:	e5832004 	str	r2, [r3, #4]
    f470:	ea000024 	b	f508 <gpio_edgeDetect+0x130>
    f474:	e59f20a4 	ldr	r2, [pc, #164]	; f520 <gpio_edgeDetect+0x148>
    f478:	e7933002 	ldr	r3, [r3, r2]
    f47c:	e5933000 	ldr	r3, [r3]
    f480:	e2833602 	add	r3, r3, #2097152	; 0x200000
    f484:	e1a02003 	mov	r2, r3
    f488:	e51b3010 	ldr	r3, [fp, #-16]
    f48c:	e1a032a3 	lsr	r3, r3, #5
    f490:	e2833012 	add	r3, r3, #18
    f494:	e1a03103 	lsl	r3, r3, #2
    f498:	e0823003 	add	r3, r2, r3
    f49c:	e51b2008 	ldr	r2, [fp, #-8]
    f4a0:	e5832004 	str	r2, [r3, #4]
    f4a4:	ea000017 	b	f508 <gpio_edgeDetect+0x130>
    f4a8:	e55b2012 	ldrb	r2, [fp, #-18]	; 0xffffffee
    f4ac:	e3520000 	cmp	r2, #0
    f4b0:	0a00000a 	beq	f4e0 <gpio_edgeDetect+0x108>
    f4b4:	e59f2064 	ldr	r2, [pc, #100]	; f520 <gpio_edgeDetect+0x148>
    f4b8:	e7933002 	ldr	r3, [r3, r2]
    f4bc:	e5933000 	ldr	r3, [r3]
    f4c0:	e2833602 	add	r3, r3, #2097152	; 0x200000
    f4c4:	e1a01003 	mov	r1, r3
    f4c8:	e51b3010 	ldr	r3, [fp, #-16]
    f4cc:	e1a032a3 	lsr	r3, r3, #5
    f4d0:	e2833022 	add	r3, r3, #34	; 0x22
    f4d4:	e51b2008 	ldr	r2, [fp, #-8]
    f4d8:	e7812103 	str	r2, [r1, r3, lsl #2]
    f4dc:	ea000009 	b	f508 <gpio_edgeDetect+0x130>
    f4e0:	e59f2038 	ldr	r2, [pc, #56]	; f520 <gpio_edgeDetect+0x148>
    f4e4:	e7933002 	ldr	r3, [r3, r2]
    f4e8:	e5933000 	ldr	r3, [r3]
    f4ec:	e2833602 	add	r3, r3, #2097152	; 0x200000
    f4f0:	e1a01003 	mov	r1, r3
    f4f4:	e51b3010 	ldr	r3, [fp, #-16]
    f4f8:	e1a032a3 	lsr	r3, r3, #5
    f4fc:	e2833016 	add	r3, r3, #22
    f500:	e51b2008 	ldr	r2, [fp, #-8]
    f504:	e7812103 	str	r2, [r1, r3, lsl #2]
    f508:	e3a03001 	mov	r3, #1
    f50c:	e1a00003 	mov	r0, r3
    f510:	e28bd000 	add	sp, fp, #0
    f514:	e49db004 	pop	{fp}		; (ldr fp, [sp], #4)
    f518:	e12fff1e 	bx	lr
    f51c:	00006f90 	muleq	r0, r0, pc	; <UNPREDICTABLE>
    f520:	00000020 	andeq	r0, r0, r0, lsr #32

0000f524 <gpio_fixResistor>:
    f524:	e92d4bd0 	push	{r4, r6, r7, r8, r9, fp, lr}
    f528:	e28db018 	add	fp, sp, #24
    f52c:	e24dd01c 	sub	sp, sp, #28
    f530:	e50b0030 	str	r0, [fp, #-48]	; 0xffffffd0
    f534:	e1a03001 	mov	r3, r1
    f538:	e54b3031 	strb	r3, [fp, #-49]	; 0xffffffcf
    f53c:	e59f4134 	ldr	r4, [pc, #308]	; f678 <gpio_fixResistor+0x154>
    f540:	e08f4004 	add	r4, pc, r4
    f544:	e51b3030 	ldr	r3, [fp, #-48]	; 0xffffffd0
    f548:	e3530036 	cmp	r3, #54	; 0x36
    f54c:	9a000001 	bls	f558 <gpio_fixResistor+0x34>
    f550:	e3a03000 	mov	r3, #0
    f554:	ea000044 	b	f66c <gpio_fixResistor+0x148>
    f558:	e55b3031 	ldrb	r3, [fp, #-49]	; 0xffffffcf
    f55c:	e3530002 	cmp	r3, #2
    f560:	9a000001 	bls	f56c <gpio_fixResistor+0x48>
    f564:	e3a03000 	mov	r3, #0
    f568:	ea00003f 	b	f66c <gpio_fixResistor+0x148>
    f56c:	e59f3108 	ldr	r3, [pc, #264]	; f67c <gpio_fixResistor+0x158>
    f570:	e7943003 	ldr	r3, [r4, r3]
    f574:	e5933000 	ldr	r3, [r3]
    f578:	e2833602 	add	r3, r3, #2097152	; 0x200000
    f57c:	e1a02003 	mov	r2, r3
    f580:	e55b3031 	ldrb	r3, [fp, #-49]	; 0xffffffcf
    f584:	e5823094 	str	r3, [r2, #148]	; 0x94
    f588:	eb00003c 	bl	f680 <timer_getTickCount>
    f58c:	e1a02000 	mov	r2, r0
    f590:	e1a03001 	mov	r3, r1
    f594:	e2928002 	adds	r8, r2, #2
    f598:	e2a39000 	adc	r9, r3, #0
    f59c:	e14b82f4 	strd	r8, [fp, #-36]	; 0xffffffdc
    f5a0:	e320f000 	nop	{0}
    f5a4:	eb000035 	bl	f680 <timer_getTickCount>
    f5a8:	e14b22d4 	ldrd	r2, [fp, #-36]	; 0xffffffdc
    f5ac:	e1530001 	cmp	r3, r1
    f5b0:	01520000 	cmpeq	r2, r0
    f5b4:	8afffffa 	bhi	f5a4 <gpio_fixResistor+0x80>
    f5b8:	e51b3030 	ldr	r3, [fp, #-48]	; 0xffffffd0
    f5bc:	e203301f 	and	r3, r3, #31
    f5c0:	e3a02001 	mov	r2, #1
    f5c4:	e1a03312 	lsl	r3, r2, r3
    f5c8:	e50b3028 	str	r3, [fp, #-40]	; 0xffffffd8
    f5cc:	e59f30a8 	ldr	r3, [pc, #168]	; f67c <gpio_fixResistor+0x158>
    f5d0:	e7943003 	ldr	r3, [r4, r3]
    f5d4:	e5933000 	ldr	r3, [r3]
    f5d8:	e2833602 	add	r3, r3, #2097152	; 0x200000
    f5dc:	e1a01003 	mov	r1, r3
    f5e0:	e51b3030 	ldr	r3, [fp, #-48]	; 0xffffffd0
    f5e4:	e1a032a3 	lsr	r3, r3, #5
    f5e8:	e2833026 	add	r3, r3, #38	; 0x26
    f5ec:	e51b2028 	ldr	r2, [fp, #-40]	; 0xffffffd8
    f5f0:	e7812103 	str	r2, [r1, r3, lsl #2]
    f5f4:	eb000021 	bl	f680 <timer_getTickCount>
    f5f8:	e1a02000 	mov	r2, r0
    f5fc:	e1a03001 	mov	r3, r1
    f600:	e2926002 	adds	r6, r2, #2
    f604:	e2a37000 	adc	r7, r3, #0
    f608:	e14b62f4 	strd	r6, [fp, #-36]	; 0xffffffdc
    f60c:	e320f000 	nop	{0}
    f610:	eb00001a 	bl	f680 <timer_getTickCount>
    f614:	e14b22d4 	ldrd	r2, [fp, #-36]	; 0xffffffdc
    f618:	e1530001 	cmp	r3, r1
    f61c:	01520000 	cmpeq	r2, r0
    f620:	8afffffa 	bhi	f610 <gpio_fixResistor+0xec>
    f624:	e59f3050 	ldr	r3, [pc, #80]	; f67c <gpio_fixResistor+0x158>
    f628:	e7943003 	ldr	r3, [r4, r3]
    f62c:	e5933000 	ldr	r3, [r3]
    f630:	e2833602 	add	r3, r3, #2097152	; 0x200000
    f634:	e1a02003 	mov	r2, r3
    f638:	e3a03000 	mov	r3, #0
    f63c:	e5823094 	str	r3, [r2, #148]	; 0x94
    f640:	e59f3034 	ldr	r3, [pc, #52]	; f67c <gpio_fixResistor+0x158>
    f644:	e7943003 	ldr	r3, [r4, r3]
    f648:	e5933000 	ldr	r3, [r3]
    f64c:	e2833602 	add	r3, r3, #2097152	; 0x200000
    f650:	e1a01003 	mov	r1, r3
    f654:	e51b3030 	ldr	r3, [fp, #-48]	; 0xffffffd0
    f658:	e1a032a3 	lsr	r3, r3, #5
    f65c:	e2833026 	add	r3, r3, #38	; 0x26
    f660:	e3a02000 	mov	r2, #0
    f664:	e7812103 	str	r2, [r1, r3, lsl #2]
    f668:	e3a03001 	mov	r3, #1
    f66c:	e1a00003 	mov	r0, r3
    f670:	e24bd018 	sub	sp, fp, #24
    f674:	e8bd8bd0 	pop	{r4, r6, r7, r8, r9, fp, pc}
    f678:	00006e4c 	andeq	r6, r0, ip, asr #28
    f67c:	00000020 	andeq	r0, r0, r0, lsr #32

0000f680 <timer_getTickCount>:
    f680:	e92d08f0 	push	{r4, r5, r6, r7, fp}
    f684:	e28db010 	add	fp, sp, #16
    f688:	e24dd014 	sub	sp, sp, #20
    f68c:	e59f30a8 	ldr	r3, [pc, #168]	; f73c <timer_getTickCount+0xbc>
    f690:	e08f3003 	add	r3, pc, r3
    f694:	e59f20a4 	ldr	r2, [pc, #164]	; f740 <timer_getTickCount+0xc0>
    f698:	e7932002 	ldr	r2, [r3, r2]
    f69c:	e5922000 	ldr	r2, [r2]
    f6a0:	e2822a03 	add	r2, r2, #12288	; 0x3000
    f6a4:	e5922008 	ldr	r2, [r2, #8]
    f6a8:	e1a04002 	mov	r4, r2
    f6ac:	e3a05000 	mov	r5, #0
    f6b0:	e14b41fc 	strd	r4, [fp, #-28]	; 0xffffffe4
    f6b4:	e59f2084 	ldr	r2, [pc, #132]	; f740 <timer_getTickCount+0xc0>
    f6b8:	e7932002 	ldr	r2, [r3, r2]
    f6bc:	e5922000 	ldr	r2, [r2]
    f6c0:	e2822a03 	add	r2, r2, #12288	; 0x3000
    f6c4:	e5922004 	ldr	r2, [r2, #4]
    f6c8:	e50b2020 	str	r2, [fp, #-32]	; 0xffffffe0
    f6cc:	e59f206c 	ldr	r2, [pc, #108]	; f740 <timer_getTickCount+0xc0>
    f6d0:	e7932002 	ldr	r2, [r3, r2]
    f6d4:	e5922000 	ldr	r2, [r2]
    f6d8:	e2822a03 	add	r2, r2, #12288	; 0x3000
    f6dc:	e5922008 	ldr	r2, [r2, #8]
    f6e0:	e1a04002 	mov	r4, r2
    f6e4:	e3a05000 	mov	r5, #0
    f6e8:	e14b61dc 	ldrd	r6, [fp, #-28]	; 0xffffffe4
    f6ec:	e1570005 	cmp	r7, r5
    f6f0:	01560004 	cmpeq	r6, r4
    f6f4:	1affffe6 	bne	f694 <timer_getTickCount+0x14>
    f6f8:	e14b41dc 	ldrd	r4, [fp, #-28]	; 0xffffffe4
    f6fc:	e3a02000 	mov	r2, #0
    f700:	e3a03000 	mov	r3, #0
    f704:	e1a03004 	mov	r3, r4
    f708:	e3a02000 	mov	r2, #0
    f70c:	e51bc020 	ldr	ip, [fp, #-32]	; 0xffffffe0
    f710:	e1a0400c 	mov	r4, ip
    f714:	e3a05000 	mov	r5, #0
    f718:	e1820004 	orr	r0, r2, r4
    f71c:	e1831005 	orr	r1, r3, r5
    f720:	e14b01fc 	strd	r0, [fp, #-28]	; 0xffffffe4
    f724:	e14b21dc 	ldrd	r2, [fp, #-28]	; 0xffffffe4
    f728:	e1a00002 	mov	r0, r2
    f72c:	e1a01003 	mov	r1, r3
    f730:	e24bd010 	sub	sp, fp, #16
    f734:	e8bd08f0 	pop	{r4, r5, r6, r7, fp}
    f738:	e12fff1e 	bx	lr
    f73c:	00006cfc 	strdeq	r6, [r0], -ip
    f740:	00000020 	andeq	r0, r0, r0, lsr #32

0000f744 <timer_wait>:
    f744:	e52db004 	push	{fp}		; (str fp, [sp, #-4]!)
    f748:	e28db000 	add	fp, sp, #0
    f74c:	e24dd014 	sub	sp, sp, #20
    f750:	e14b01f4 	strd	r0, [fp, #-20]	; 0xffffffec
    f754:	e3a03000 	mov	r3, #0
    f758:	e50b3008 	str	r3, [fp, #-8]
    f75c:	ea000002 	b	f76c <timer_wait+0x28>
    f760:	e51b3008 	ldr	r3, [fp, #-8]
    f764:	e2833001 	add	r3, r3, #1
    f768:	e50b3008 	str	r3, [fp, #-8]
    f76c:	e51b3008 	ldr	r3, [fp, #-8]
    f770:	e3530ffa 	cmp	r3, #1000	; 0x3e8
    f774:	bafffff9 	blt	f760 <timer_wait+0x1c>
    f778:	e320f000 	nop	{0}
    f77c:	e28bd000 	add	sp, fp, #0
    f780:	e49db004 	pop	{fp}		; (ldr fp, [sp], #4)
    f784:	e12fff1e 	bx	lr

0000f788 <tick_difference>:
    f788:	e92d0830 	push	{r4, r5, fp}
    f78c:	e28db008 	add	fp, sp, #8
    f790:	e24dd01c 	sub	sp, sp, #28
    f794:	e14b01fc 	strd	r0, [fp, #-28]	; 0xffffffe4
    f798:	e14b22f4 	strd	r2, [fp, #-36]	; 0xffffffdc
    f79c:	e14b01dc 	ldrd	r0, [fp, #-28]	; 0xffffffe4
    f7a0:	e14b22d4 	ldrd	r2, [fp, #-36]	; 0xffffffdc
    f7a4:	e1510003 	cmp	r1, r3
    f7a8:	01500002 	cmpeq	r0, r2
    f7ac:	9a000008 	bls	f7d4 <tick_difference+0x4c>
    f7b0:	e14b21dc 	ldrd	r2, [fp, #-28]	; 0xffffffe4
    f7b4:	e2722000 	rsbs	r2, r2, #0
    f7b8:	e2e33000 	rsc	r3, r3, #0
    f7bc:	e14b21f4 	strd	r2, [fp, #-20]	; 0xffffffec
    f7c0:	e14b02d4 	ldrd	r0, [fp, #-36]	; 0xffffffdc
    f7c4:	e14b21d4 	ldrd	r2, [fp, #-20]	; 0xffffffec
    f7c8:	e0904002 	adds	r4, r0, r2
    f7cc:	e0a15003 	adc	r5, r1, r3
    f7d0:	ea000003 	b	f7e4 <tick_difference+0x5c>
    f7d4:	e14b02d4 	ldrd	r0, [fp, #-36]	; 0xffffffdc
    f7d8:	e14b21dc 	ldrd	r2, [fp, #-28]	; 0xffffffe4
    f7dc:	e0504002 	subs	r4, r0, r2
    f7e0:	e0c15003 	sbc	r5, r1, r3
    f7e4:	e1a02004 	mov	r2, r4
    f7e8:	e1a03005 	mov	r3, r5
    f7ec:	e1a00002 	mov	r0, r2
    f7f0:	e1a01003 	mov	r1, r3
    f7f4:	e24bd008 	sub	sp, fp, #8
    f7f8:	e8bd0830 	pop	{r4, r5, fp}
    f7fc:	e12fff1e 	bx	lr

0000f800 <mailbox_write>:
    f800:	e52db004 	push	{fp}		; (str fp, [sp, #-4]!)
    f804:	e28db000 	add	fp, sp, #0
    f808:	e24dd014 	sub	sp, sp, #20
    f80c:	e1a03000 	mov	r3, r0
    f810:	e50b1014 	str	r1, [fp, #-20]	; 0xffffffec
    f814:	e54b300d 	strb	r3, [fp, #-13]
    f818:	e59f208c 	ldr	r2, [pc, #140]	; f8ac <mailbox_write+0xac>
    f81c:	e08f2002 	add	r2, pc, r2
    f820:	e55b300d 	ldrb	r3, [fp, #-13]
    f824:	e3530009 	cmp	r3, #9
    f828:	9a000001 	bls	f834 <mailbox_write+0x34>
    f82c:	e3a03000 	mov	r3, #0
    f830:	ea000019 	b	f89c <mailbox_write+0x9c>
    f834:	e51b3014 	ldr	r3, [fp, #-20]	; 0xffffffec
    f838:	e3c3300f 	bic	r3, r3, #15
    f83c:	e50b3014 	str	r3, [fp, #-20]	; 0xffffffec
    f840:	e55b300d 	ldrb	r3, [fp, #-13]
    f844:	e51b1014 	ldr	r1, [fp, #-20]	; 0xffffffec
    f848:	e1813003 	orr	r3, r1, r3
    f84c:	e50b3014 	str	r3, [fp, #-20]	; 0xffffffec
    f850:	e59f3058 	ldr	r3, [pc, #88]	; f8b0 <mailbox_write+0xb0>
    f854:	e7923003 	ldr	r3, [r2, r3]
    f858:	e5933000 	ldr	r3, [r3]
    f85c:	e2833b2e 	add	r3, r3, #47104	; 0xb800
    f860:	e2833080 	add	r3, r3, #128	; 0x80
    f864:	e5933038 	ldr	r3, [r3, #56]	; 0x38
    f868:	e50b3008 	str	r3, [fp, #-8]
    f86c:	e51b3008 	ldr	r3, [fp, #-8]
    f870:	e3530000 	cmp	r3, #0
    f874:	bafffff5 	blt	f850 <mailbox_write+0x50>
    f878:	e59f3030 	ldr	r3, [pc, #48]	; f8b0 <mailbox_write+0xb0>
    f87c:	e7923003 	ldr	r3, [r2, r3]
    f880:	e5933000 	ldr	r3, [r3]
    f884:	e2833b2e 	add	r3, r3, #47104	; 0xb800
    f888:	e2833080 	add	r3, r3, #128	; 0x80
    f88c:	e1a02003 	mov	r2, r3
    f890:	e51b3014 	ldr	r3, [fp, #-20]	; 0xffffffec
    f894:	e5823020 	str	r3, [r2, #32]
    f898:	e3a03001 	mov	r3, #1
    f89c:	e1a00003 	mov	r0, r3
    f8a0:	e28bd000 	add	sp, fp, #0
    f8a4:	e49db004 	pop	{fp}		; (ldr fp, [sp], #4)
    f8a8:	e12fff1e 	bx	lr
    f8ac:	00006b70 	andeq	r6, r0, r0, ror fp
    f8b0:	00000020 	andeq	r0, r0, r0, lsr #32

0000f8b4 <mailbox_read>:
    f8b4:	e52db004 	push	{fp}		; (str fp, [sp, #-4]!)
    f8b8:	e28db000 	add	fp, sp, #0
    f8bc:	e24dd014 	sub	sp, sp, #20
    f8c0:	e1a03000 	mov	r3, r0
    f8c4:	e54b300d 	strb	r3, [fp, #-13]
    f8c8:	e59f2094 	ldr	r2, [pc, #148]	; f964 <mailbox_read+0xb0>
    f8cc:	e08f2002 	add	r2, pc, r2
    f8d0:	e55b300d 	ldrb	r3, [fp, #-13]
    f8d4:	e3530009 	cmp	r3, #9
    f8d8:	9a000002 	bls	f8e8 <mailbox_read+0x34>
    f8dc:	e30d3ead 	movw	r3, #57005	; 0xdead
    f8e0:	e34f3eed 	movt	r3, #65261	; 0xfeed
    f8e4:	ea00001a 	b	f954 <mailbox_read+0xa0>
    f8e8:	e59f3078 	ldr	r3, [pc, #120]	; f968 <mailbox_read+0xb4>
    f8ec:	e7923003 	ldr	r3, [r2, r3]
    f8f0:	e5933000 	ldr	r3, [r3]
    f8f4:	e2833b2e 	add	r3, r3, #47104	; 0xb800
    f8f8:	e2833080 	add	r3, r3, #128	; 0x80
    f8fc:	e5933018 	ldr	r3, [r3, #24]
    f900:	e50b3008 	str	r3, [fp, #-8]
    f904:	e51b3008 	ldr	r3, [fp, #-8]
    f908:	e2033101 	and	r3, r3, #1073741824	; 0x40000000
    f90c:	e3530000 	cmp	r3, #0
    f910:	1afffff4 	bne	f8e8 <mailbox_read+0x34>
    f914:	e59f304c 	ldr	r3, [pc, #76]	; f968 <mailbox_read+0xb4>
    f918:	e7923003 	ldr	r3, [r2, r3]
    f91c:	e5933000 	ldr	r3, [r3]
    f920:	e2833b2e 	add	r3, r3, #47104	; 0xb800
    f924:	e2833080 	add	r3, r3, #128	; 0x80
    f928:	e5933000 	ldr	r3, [r3]
    f92c:	e50b3008 	str	r3, [fp, #-8]
    f930:	e51b3008 	ldr	r3, [fp, #-8]
    f934:	e203100f 	and	r1, r3, #15
    f938:	e55b300d 	ldrb	r3, [fp, #-13]
    f93c:	e1510003 	cmp	r1, r3
    f940:	1affffe8 	bne	f8e8 <mailbox_read+0x34>
    f944:	e51b3008 	ldr	r3, [fp, #-8]
    f948:	e3c3300f 	bic	r3, r3, #15
    f94c:	e50b3008 	str	r3, [fp, #-8]
    f950:	e51b3008 	ldr	r3, [fp, #-8]
    f954:	e1a00003 	mov	r0, r3
    f958:	e28bd000 	add	sp, fp, #0
    f95c:	e49db004 	pop	{fp}		; (ldr fp, [sp], #4)
    f960:	e12fff1e 	bx	lr
    f964:	00006ac0 	andeq	r6, r0, r0, asr #21
    f968:	00000020 	andeq	r0, r0, r0, lsr #32

0000f96c <mailbox_tag_message>:
    f96c:	e92d000e 	push	{r1, r2, r3}
    f970:	e92d4810 	push	{r4, fp, lr}
    f974:	e28db008 	add	fp, sp, #8
    f978:	e24dd0a0 	sub	sp, sp, #160	; 0xa0
    f97c:	e50b00a4 	str	r0, [fp, #-164]	; 0xffffff5c
    f980:	e24b3008 	sub	r3, fp, #8
    f984:	e2433098 	sub	r3, r3, #152	; 0x98
    f988:	e283300f 	add	r3, r3, #15
    f98c:	e1a03223 	lsr	r3, r3, #4
    f990:	e1a04203 	lsl	r4, r3, #4
    f994:	e28b3008 	add	r3, fp, #8
    f998:	e50b3014 	str	r3, [fp, #-20]	; 0xffffffec
    f99c:	e5db3004 	ldrb	r3, [fp, #4]
    f9a0:	e2833003 	add	r3, r3, #3
    f9a4:	e1a03103 	lsl	r3, r3, #2
    f9a8:	e5843000 	str	r3, [r4]
    f9ac:	e5db3004 	ldrb	r3, [fp, #4]
    f9b0:	e2833002 	add	r3, r3, #2
    f9b4:	e3a02000 	mov	r2, #0
    f9b8:	e7842103 	str	r2, [r4, r3, lsl #2]
    f9bc:	e3a03000 	mov	r3, #0
    f9c0:	e5843004 	str	r3, [r4, #4]
    f9c4:	e3a03000 	mov	r3, #0
    f9c8:	e50b300c 	str	r3, [fp, #-12]
    f9cc:	ea000009 	b	f9f8 <mailbox_tag_message+0x8c>
    f9d0:	e51b300c 	ldr	r3, [fp, #-12]
    f9d4:	e2832002 	add	r2, r3, #2
    f9d8:	e51b3014 	ldr	r3, [fp, #-20]	; 0xffffffec
    f9dc:	e2831004 	add	r1, r3, #4
    f9e0:	e50b1014 	str	r1, [fp, #-20]	; 0xffffffec
    f9e4:	e5933000 	ldr	r3, [r3]
    f9e8:	e7843102 	str	r3, [r4, r2, lsl #2]
    f9ec:	e51b300c 	ldr	r3, [fp, #-12]
    f9f0:	e2833001 	add	r3, r3, #1
    f9f4:	e50b300c 	str	r3, [fp, #-12]
    f9f8:	e5db3004 	ldrb	r3, [fp, #4]
    f9fc:	e51b200c 	ldr	r2, [fp, #-12]
    fa00:	e1520003 	cmp	r2, r3
    fa04:	bafffff1 	blt	f9d0 <mailbox_tag_message+0x64>
    fa08:	e1a00004 	mov	r0, r4
    fa0c:	ebffe240 	bl	8314 <ARMaddrToGPUaddr>
    fa10:	e1a03000 	mov	r3, r0
    fa14:	e1a01003 	mov	r1, r3
    fa18:	e3a00008 	mov	r0, #8
    fa1c:	ebffff77 	bl	f800 <mailbox_write>
    fa20:	e3a00008 	mov	r0, #8
    fa24:	ebffffa2 	bl	f8b4 <mailbox_read>
    fa28:	e5943004 	ldr	r3, [r4, #4]
    fa2c:	e3530102 	cmp	r3, #-2147483648	; 0x80000000
    fa30:	1a000016 	bne	fa90 <mailbox_tag_message+0x124>
    fa34:	e51b30a4 	ldr	r3, [fp, #-164]	; 0xffffff5c
    fa38:	e3530000 	cmp	r3, #0
    fa3c:	0a000011 	beq	fa88 <mailbox_tag_message+0x11c>
    fa40:	e3a03000 	mov	r3, #0
    fa44:	e50b3010 	str	r3, [fp, #-16]
    fa48:	ea00000a 	b	fa78 <mailbox_tag_message+0x10c>
    fa4c:	e51b3010 	ldr	r3, [fp, #-16]
    fa50:	e2832002 	add	r2, r3, #2
    fa54:	e51b3010 	ldr	r3, [fp, #-16]
    fa58:	e1a03103 	lsl	r3, r3, #2
    fa5c:	e51b10a4 	ldr	r1, [fp, #-164]	; 0xffffff5c
    fa60:	e0813003 	add	r3, r1, r3
    fa64:	e7942102 	ldr	r2, [r4, r2, lsl #2]
    fa68:	e5832000 	str	r2, [r3]
    fa6c:	e51b3010 	ldr	r3, [fp, #-16]
    fa70:	e2833001 	add	r3, r3, #1
    fa74:	e50b3010 	str	r3, [fp, #-16]
    fa78:	e5db3004 	ldrb	r3, [fp, #4]
    fa7c:	e51b2010 	ldr	r2, [fp, #-16]
    fa80:	e1520003 	cmp	r2, r3
    fa84:	bafffff0 	blt	fa4c <mailbox_tag_message+0xe0>
    fa88:	e3a03001 	mov	r3, #1
    fa8c:	ea000000 	b	fa94 <mailbox_tag_message+0x128>
    fa90:	e3a03000 	mov	r3, #0
    fa94:	e1a00003 	mov	r0, r3
    fa98:	e24bd008 	sub	sp, fp, #8
    fa9c:	e8bd4810 	pop	{r4, fp, lr}
    faa0:	e28dd00c 	add	sp, sp, #12
    faa4:	e12fff1e 	bx	lr

0000faa8 <set_Activity_LED>:
    faa8:	e52db004 	push	{fp}		; (str fp, [sp, #-4]!)
    faac:	e28db000 	add	fp, sp, #0
    fab0:	e24dd00c 	sub	sp, sp, #12
    fab4:	e1a03000 	mov	r3, r0
    fab8:	e54b3005 	strb	r3, [fp, #-5]
    fabc:	e3a03000 	mov	r3, #0
    fac0:	e1a00003 	mov	r0, r3
    fac4:	e28bd000 	add	sp, fp, #0
    fac8:	e49db004 	pop	{fp}		; (ldr fp, [sp], #4)
    facc:	e12fff1e 	bx	lr

0000fad0 <ARM_setmaxspeed>:
    fad0:	e92d4800 	push	{fp, lr}
    fad4:	e28db004 	add	fp, sp, #4
    fad8:	e24dd030 	sub	sp, sp, #48	; 0x30
    fadc:	e50b0020 	str	r0, [fp, #-32]	; 0xffffffe0
    fae0:	e24b0018 	sub	r0, fp, #24
    fae4:	e3a03000 	mov	r3, #0
    fae8:	e58d3008 	str	r3, [sp, #8]
    faec:	e3a03003 	mov	r3, #3
    faf0:	e58d3004 	str	r3, [sp, #4]
    faf4:	e3a03008 	mov	r3, #8
    faf8:	e58d3000 	str	r3, [sp]
    fafc:	e3a03008 	mov	r3, #8
    fb00:	e3a02004 	mov	r2, #4
    fb04:	e3402003 	movt	r2, #3
    fb08:	e3a01005 	mov	r1, #5
    fb0c:	ebffff96 	bl	f96c <mailbox_tag_message>
    fb10:	e1a03000 	mov	r3, r0
    fb14:	e3530000 	cmp	r3, #0
    fb18:	0a00001a 	beq	fb88 <ARM_setmaxspeed+0xb8>
    fb1c:	e51b3008 	ldr	r3, [fp, #-8]
    fb20:	e24b0018 	sub	r0, fp, #24
    fb24:	e58d3008 	str	r3, [sp, #8]
    fb28:	e3a03003 	mov	r3, #3
    fb2c:	e58d3004 	str	r3, [sp, #4]
    fb30:	e3a03008 	mov	r3, #8
    fb34:	e58d3000 	str	r3, [sp]
    fb38:	e3a03008 	mov	r3, #8
    fb3c:	e3082002 	movw	r2, #32770	; 0x8002
    fb40:	e3402003 	movt	r2, #3
    fb44:	e3a01005 	mov	r1, #5
    fb48:	ebffff87 	bl	f96c <mailbox_tag_message>
    fb4c:	e1a03000 	mov	r3, r0
    fb50:	e3530000 	cmp	r3, #0
    fb54:	0a00000b 	beq	fb88 <ARM_setmaxspeed+0xb8>
    fb58:	e51b3020 	ldr	r3, [fp, #-32]	; 0xffffffe0
    fb5c:	e3530000 	cmp	r3, #0
    fb60:	0a000006 	beq	fb80 <ARM_setmaxspeed+0xb0>
    fb64:	e51b2008 	ldr	r2, [fp, #-8]
    fb68:	e51b3020 	ldr	r3, [fp, #-32]	; 0xffffffe0
    fb6c:	e1a01002 	mov	r1, r2
    fb70:	e59f2020 	ldr	r2, [pc, #32]	; fb98 <ARM_setmaxspeed+0xc8>
    fb74:	e08f2002 	add	r2, pc, r2
    fb78:	e1a00002 	mov	r0, r2
    fb7c:	e12fff33 	blx	r3
    fb80:	e3a03001 	mov	r3, #1
    fb84:	ea000000 	b	fb8c <ARM_setmaxspeed+0xbc>
    fb88:	e3a03000 	mov	r3, #0
    fb8c:	e1a00003 	mov	r0, r3
    fb90:	e24bd004 	sub	sp, fp, #4
    fb94:	e8bd8800 	pop	{fp, pc}
    fb98:	020b79e0 	andeq	r7, fp, #224, 18	; 0x380000

0000fb9c <hal_io_init>:
    fb9c:	e92d4800 	push	{fp, lr}
    fba0:	e28db004 	add	fp, sp, #4
    fba4:	eb00034d 	bl	108e0 <fonts_init>
    fba8:	e320f000 	nop	{0}
    fbac:	e8bd8800 	pop	{fp, pc}

0000fbb0 <hal_io_video_init>:
    fbb0:	e92d4800 	push	{fp, lr}
    fbb4:	e28db004 	add	fp, sp, #4
    fbb8:	ebffe180 	bl	81c0 <_hal_io_video_init>
    fbbc:	e1a03000 	mov	r3, r0
    fbc0:	e1a00003 	mov	r0, r3
    fbc4:	e8bd8800 	pop	{fp, pc}

0000fbc8 <hal_io_video_draw_image>:
    fbc8:	e92d4810 	push	{r4, fp, lr}
    fbcc:	e28db008 	add	fp, sp, #8
    fbd0:	e24dd01c 	sub	sp, sp, #28
    fbd4:	e50b0018 	str	r0, [fp, #-24]	; 0xffffffe8
    fbd8:	e50b101c 	str	r1, [fp, #-28]	; 0xffffffe4
    fbdc:	e50b2020 	str	r2, [fp, #-32]	; 0xffffffe0
    fbe0:	e50b3024 	str	r3, [fp, #-36]	; 0xffffffdc
    fbe4:	e59f4200 	ldr	r4, [pc, #512]	; fdec <hal_io_video_draw_image+0x224>
    fbe8:	e08f4004 	add	r4, pc, r4
    fbec:	e59f31fc 	ldr	r3, [pc, #508]	; fdf0 <hal_io_video_draw_image+0x228>
    fbf0:	e7943003 	ldr	r3, [r4, r3]
    fbf4:	e3a02000 	mov	r2, #0
    fbf8:	e5832000 	str	r2, [r3]
    fbfc:	e59f31f0 	ldr	r3, [pc, #496]	; fdf4 <hal_io_video_draw_image+0x22c>
    fc00:	e7943003 	ldr	r3, [r4, r3]
    fc04:	e5932000 	ldr	r2, [r3]
    fc08:	e51b3024 	ldr	r3, [fp, #-36]	; 0xffffffdc
    fc0c:	e0822003 	add	r2, r2, r3
    fc10:	e59f31dc 	ldr	r3, [pc, #476]	; fdf4 <hal_io_video_draw_image+0x22c>
    fc14:	e7943003 	ldr	r3, [r4, r3]
    fc18:	e5832000 	str	r2, [r3]
    fc1c:	e3a03036 	mov	r3, #54	; 0x36
    fc20:	e50b3010 	str	r3, [fp, #-16]
    fc24:	ea000059 	b	fd90 <hal_io_video_draw_image+0x1c8>
    fc28:	e51b2018 	ldr	r2, [fp, #-24]	; 0xffffffe8
    fc2c:	e51b3010 	ldr	r3, [fp, #-16]
    fc30:	e0823003 	add	r3, r2, r3
    fc34:	e5d33000 	ldrb	r3, [r3]
    fc38:	e54b3011 	strb	r3, [fp, #-17]	; 0xffffffef
    fc3c:	e51b3010 	ldr	r3, [fp, #-16]
    fc40:	e2833001 	add	r3, r3, #1
    fc44:	e51b2018 	ldr	r2, [fp, #-24]	; 0xffffffe8
    fc48:	e0823003 	add	r3, r2, r3
    fc4c:	e5d33000 	ldrb	r3, [r3]
    fc50:	e54b3012 	strb	r3, [fp, #-18]	; 0xffffffee
    fc54:	e51b3010 	ldr	r3, [fp, #-16]
    fc58:	e2833002 	add	r3, r3, #2
    fc5c:	e51b2018 	ldr	r2, [fp, #-24]	; 0xffffffe8
    fc60:	e0823003 	add	r3, r2, r3
    fc64:	e5d33000 	ldrb	r3, [r3]
    fc68:	e54b3013 	strb	r3, [fp, #-19]	; 0xffffffed
    fc6c:	e59f317c 	ldr	r3, [pc, #380]	; fdf0 <hal_io_video_draw_image+0x228>
    fc70:	e7943003 	ldr	r3, [r4, r3]
    fc74:	e5932000 	ldr	r2, [r3]
    fc78:	e59f3174 	ldr	r3, [pc, #372]	; fdf4 <hal_io_video_draw_image+0x22c>
    fc7c:	e7943003 	ldr	r3, [r4, r3]
    fc80:	e5933000 	ldr	r3, [r3]
    fc84:	e1a01003 	mov	r1, r3
    fc88:	e1a00002 	mov	r0, r2
    fc8c:	eb0001dc 	bl	10404 <x_y_to_raw_byte>
    fc90:	e1a02000 	mov	r2, r0
    fc94:	e55b3013 	ldrb	r3, [fp, #-19]	; 0xffffffed
    fc98:	e1a01003 	mov	r1, r3
    fc9c:	e1a00002 	mov	r0, r2
    fca0:	ebffe160 	bl	8228 <_hal_io_video_put_byte_raw>
    fca4:	e59f3144 	ldr	r3, [pc, #324]	; fdf0 <hal_io_video_draw_image+0x228>
    fca8:	e7943003 	ldr	r3, [r4, r3]
    fcac:	e5933000 	ldr	r3, [r3]
    fcb0:	e2832001 	add	r2, r3, #1
    fcb4:	e59f3138 	ldr	r3, [pc, #312]	; fdf4 <hal_io_video_draw_image+0x22c>
    fcb8:	e7943003 	ldr	r3, [r4, r3]
    fcbc:	e5933000 	ldr	r3, [r3]
    fcc0:	e1a01003 	mov	r1, r3
    fcc4:	e1a00002 	mov	r0, r2
    fcc8:	eb0001cd 	bl	10404 <x_y_to_raw_byte>
    fccc:	e1a02000 	mov	r2, r0
    fcd0:	e55b3012 	ldrb	r3, [fp, #-18]	; 0xffffffee
    fcd4:	e1a01003 	mov	r1, r3
    fcd8:	e1a00002 	mov	r0, r2
    fcdc:	ebffe151 	bl	8228 <_hal_io_video_put_byte_raw>
    fce0:	e59f3108 	ldr	r3, [pc, #264]	; fdf0 <hal_io_video_draw_image+0x228>
    fce4:	e7943003 	ldr	r3, [r4, r3]
    fce8:	e5933000 	ldr	r3, [r3]
    fcec:	e2832002 	add	r2, r3, #2
    fcf0:	e59f30fc 	ldr	r3, [pc, #252]	; fdf4 <hal_io_video_draw_image+0x22c>
    fcf4:	e7943003 	ldr	r3, [r4, r3]
    fcf8:	e5933000 	ldr	r3, [r3]
    fcfc:	e1a01003 	mov	r1, r3
    fd00:	e1a00002 	mov	r0, r2
    fd04:	eb0001be 	bl	10404 <x_y_to_raw_byte>
    fd08:	e1a02000 	mov	r2, r0
    fd0c:	e55b3011 	ldrb	r3, [fp, #-17]	; 0xffffffef
    fd10:	e1a01003 	mov	r1, r3
    fd14:	e1a00002 	mov	r0, r2
    fd18:	ebffe142 	bl	8228 <_hal_io_video_put_byte_raw>
    fd1c:	e59f30cc 	ldr	r3, [pc, #204]	; fdf0 <hal_io_video_draw_image+0x228>
    fd20:	e7943003 	ldr	r3, [r4, r3]
    fd24:	e5933000 	ldr	r3, [r3]
    fd28:	e2832003 	add	r2, r3, #3
    fd2c:	e59f30bc 	ldr	r3, [pc, #188]	; fdf0 <hal_io_video_draw_image+0x228>
    fd30:	e7943003 	ldr	r3, [r4, r3]
    fd34:	e5832000 	str	r2, [r3]
    fd38:	e51b3020 	ldr	r3, [fp, #-32]	; 0xffffffe0
    fd3c:	e3a02003 	mov	r2, #3
    fd40:	e0020392 	mul	r2, r2, r3
    fd44:	e59f30a4 	ldr	r3, [pc, #164]	; fdf0 <hal_io_video_draw_image+0x228>
    fd48:	e7943003 	ldr	r3, [r4, r3]
    fd4c:	e5933000 	ldr	r3, [r3]
    fd50:	e1520003 	cmp	r2, r3
    fd54:	8a00000a 	bhi	fd84 <hal_io_video_draw_image+0x1bc>
    fd58:	e59f3090 	ldr	r3, [pc, #144]	; fdf0 <hal_io_video_draw_image+0x228>
    fd5c:	e7943003 	ldr	r3, [r4, r3]
    fd60:	e3a02000 	mov	r2, #0
    fd64:	e5832000 	str	r2, [r3]
    fd68:	e59f3084 	ldr	r3, [pc, #132]	; fdf4 <hal_io_video_draw_image+0x22c>
    fd6c:	e7943003 	ldr	r3, [r4, r3]
    fd70:	e5933000 	ldr	r3, [r3]
    fd74:	e2432001 	sub	r2, r3, #1
    fd78:	e59f3074 	ldr	r3, [pc, #116]	; fdf4 <hal_io_video_draw_image+0x22c>
    fd7c:	e7943003 	ldr	r3, [r4, r3]
    fd80:	e5832000 	str	r2, [r3]
    fd84:	e51b3010 	ldr	r3, [fp, #-16]
    fd88:	e2833003 	add	r3, r3, #3
    fd8c:	e50b3010 	str	r3, [fp, #-16]
    fd90:	e51b3020 	ldr	r3, [fp, #-32]	; 0xffffffe0
    fd94:	e51b2024 	ldr	r2, [fp, #-36]	; 0xffffffdc
    fd98:	e0030392 	mul	r3, r2, r3
    fd9c:	e3a02003 	mov	r2, #3
    fda0:	e0030392 	mul	r3, r2, r3
    fda4:	e51b2010 	ldr	r2, [fp, #-16]
    fda8:	e1520003 	cmp	r2, r3
    fdac:	3affff9d 	bcc	fc28 <hal_io_video_draw_image+0x60>
    fdb0:	e59f3038 	ldr	r3, [pc, #56]	; fdf0 <hal_io_video_draw_image+0x228>
    fdb4:	e7943003 	ldr	r3, [r4, r3]
    fdb8:	e3a02004 	mov	r2, #4
    fdbc:	e5832000 	str	r2, [r3]
    fdc0:	e59f302c 	ldr	r3, [pc, #44]	; fdf4 <hal_io_video_draw_image+0x22c>
    fdc4:	e7943003 	ldr	r3, [r4, r3]
    fdc8:	e5932000 	ldr	r2, [r3]
    fdcc:	e51b3024 	ldr	r3, [fp, #-36]	; 0xffffffdc
    fdd0:	e0822003 	add	r2, r2, r3
    fdd4:	e59f3018 	ldr	r3, [pc, #24]	; fdf4 <hal_io_video_draw_image+0x22c>
    fdd8:	e7943003 	ldr	r3, [r4, r3]
    fddc:	e5832000 	str	r2, [r3]
    fde0:	e320f000 	nop	{0}
    fde4:	e24bd008 	sub	sp, fp, #8
    fde8:	e8bd8810 	pop	{r4, fp, pc}
    fdec:	000067a4 	andeq	r6, r0, r4, lsr #15
    fdf0:	0000000c 	andeq	r0, r0, ip
    fdf4:	00000034 	andeq	r0, r0, r4, lsr r0

0000fdf8 <hal_io_video_puts>:
    fdf8:	e92d4800 	push	{fp, lr}
    fdfc:	e28db004 	add	fp, sp, #4
    fe00:	e24dd010 	sub	sp, sp, #16
    fe04:	e50b0008 	str	r0, [fp, #-8]
    fe08:	e50b100c 	str	r1, [fp, #-12]
    fe0c:	e50b2010 	str	r2, [fp, #-16]
    fe10:	ea000007 	b	fe34 <hal_io_video_puts+0x3c>
    fe14:	e51b3008 	ldr	r3, [fp, #-8]
    fe18:	e2832001 	add	r2, r3, #1
    fe1c:	e50b2008 	str	r2, [fp, #-8]
    fe20:	e5d33000 	ldrb	r3, [r3]
    fe24:	e51b2010 	ldr	r2, [fp, #-16]
    fe28:	e51b100c 	ldr	r1, [fp, #-12]
    fe2c:	e1a00003 	mov	r0, r3
    fe30:	eb000006 	bl	fe50 <hal_io_video_putc>
    fe34:	e51b3008 	ldr	r3, [fp, #-8]
    fe38:	e5d33000 	ldrb	r3, [r3]
    fe3c:	e3530000 	cmp	r3, #0
    fe40:	1afffff3 	bne	fe14 <hal_io_video_puts+0x1c>
    fe44:	e320f000 	nop	{0}
    fe48:	e24bd004 	sub	sp, fp, #4
    fe4c:	e8bd8800 	pop	{fp, pc}

0000fe50 <hal_io_video_putc>:
    fe50:	e92d4810 	push	{r4, fp, lr}
    fe54:	e28db008 	add	fp, sp, #8
    fe58:	e24dd01c 	sub	sp, sp, #28
    fe5c:	e1a03000 	mov	r3, r0
    fe60:	e50b1014 	str	r1, [fp, #-20]	; 0xffffffec
    fe64:	e50b2018 	str	r2, [fp, #-24]	; 0xffffffe8
    fe68:	e54b300d 	strb	r3, [fp, #-13]
    fe6c:	e59f4154 	ldr	r4, [pc, #340]	; ffc8 <hal_io_video_putc+0x178>
    fe70:	e08f4004 	add	r4, pc, r4
    fe74:	e55b300d 	ldrb	r3, [fp, #-13]
    fe78:	e353000a 	cmp	r3, #10
    fe7c:	1a000020 	bne	ff04 <hal_io_video_putc+0xb4>
    fe80:	e51b3014 	ldr	r3, [fp, #-20]	; 0xffffffec
    fe84:	e3a02006 	mov	r2, #6
    fe88:	e0030392 	mul	r3, r2, r3
    fe8c:	e2632f77 	rsb	r2, r3, #476	; 0x1dc
    fe90:	e59f3134 	ldr	r3, [pc, #308]	; ffcc <hal_io_video_putc+0x17c>
    fe94:	e7943003 	ldr	r3, [r4, r3]
    fe98:	e5933000 	ldr	r3, [r3]
    fe9c:	e1520003 	cmp	r2, r3
    fea0:	8a00000b 	bhi	fed4 <hal_io_video_putc+0x84>
    fea4:	e3a00000 	mov	r0, #0
    fea8:	eb00019f 	bl	1052c <hal_io_serial_getc>
    feac:	eb000133 	bl	10380 <hal_io_clear_screen>
    feb0:	e59f3118 	ldr	r3, [pc, #280]	; ffd0 <hal_io_video_putc+0x180>
    feb4:	e7943003 	ldr	r3, [r4, r3]
    feb8:	e3a02004 	mov	r2, #4
    febc:	e5832000 	str	r2, [r3]
    fec0:	e59f3104 	ldr	r3, [pc, #260]	; ffcc <hal_io_video_putc+0x17c>
    fec4:	e7943003 	ldr	r3, [r4, r3]
    fec8:	e3a02012 	mov	r2, #18
    fecc:	e5832000 	str	r2, [r3]
    fed0:	ea00003a 	b	ffc0 <hal_io_video_putc+0x170>
    fed4:	e51b3014 	ldr	r3, [fp, #-20]	; 0xffffffec
    fed8:	e3a02006 	mov	r2, #6
    fedc:	e0020392 	mul	r2, r2, r3
    fee0:	e59f30e4 	ldr	r3, [pc, #228]	; ffcc <hal_io_video_putc+0x17c>
    fee4:	e7943003 	ldr	r3, [r4, r3]
    fee8:	e5933000 	ldr	r3, [r3]
    feec:	e0823003 	add	r3, r2, r3
    fef0:	e2832004 	add	r2, r3, #4
    fef4:	e59f30d0 	ldr	r3, [pc, #208]	; ffcc <hal_io_video_putc+0x17c>
    fef8:	e7943003 	ldr	r3, [r4, r3]
    fefc:	e5832000 	str	r2, [r3]
    ff00:	ea00002e 	b	ffc0 <hal_io_video_putc+0x170>
    ff04:	e55b300d 	ldrb	r3, [fp, #-13]
    ff08:	e353000d 	cmp	r3, #13
    ff0c:	1a000004 	bne	ff24 <hal_io_video_putc+0xd4>
    ff10:	e59f30b8 	ldr	r3, [pc, #184]	; ffd0 <hal_io_video_putc+0x180>
    ff14:	e7943003 	ldr	r3, [r4, r3]
    ff18:	e3a02004 	mov	r2, #4
    ff1c:	e5832000 	str	r2, [r3]
    ff20:	ea000026 	b	ffc0 <hal_io_video_putc+0x170>
    ff24:	e51b3014 	ldr	r3, [fp, #-20]	; 0xffffffec
    ff28:	e3e02003 	mvn	r2, #3
    ff2c:	e0030392 	mul	r3, r2, r3
    ff30:	e2833f9f 	add	r3, r3, #636	; 0x27c
    ff34:	e2833001 	add	r3, r3, #1
    ff38:	e59f2090 	ldr	r2, [pc, #144]	; ffd0 <hal_io_video_putc+0x180>
    ff3c:	e7942002 	ldr	r2, [r4, r2]
    ff40:	e5922000 	ldr	r2, [r2]
    ff44:	e1530002 	cmp	r3, r2
    ff48:	8a000007 	bhi	ff6c <hal_io_video_putc+0x11c>
    ff4c:	e51b2018 	ldr	r2, [fp, #-24]	; 0xffffffe8
    ff50:	e51b1014 	ldr	r1, [fp, #-20]	; 0xffffffec
    ff54:	e3a0000d 	mov	r0, #13
    ff58:	ebffffbc 	bl	fe50 <hal_io_video_putc>
    ff5c:	e51b2018 	ldr	r2, [fp, #-24]	; 0xffffffe8
    ff60:	e51b1014 	ldr	r1, [fp, #-20]	; 0xffffffec
    ff64:	e3a0000a 	mov	r0, #10
    ff68:	ebffffb8 	bl	fe50 <hal_io_video_putc>
    ff6c:	e59f305c 	ldr	r3, [pc, #92]	; ffd0 <hal_io_video_putc+0x180>
    ff70:	e7943003 	ldr	r3, [r4, r3]
    ff74:	e5930000 	ldr	r0, [r3]
    ff78:	e59f304c 	ldr	r3, [pc, #76]	; ffcc <hal_io_video_putc+0x17c>
    ff7c:	e7943003 	ldr	r3, [r4, r3]
    ff80:	e5931000 	ldr	r1, [r3]
    ff84:	e55b200d 	ldrb	r2, [fp, #-13]
    ff88:	e51b3018 	ldr	r3, [fp, #-24]	; 0xffffffe8
    ff8c:	e58d3000 	str	r3, [sp]
    ff90:	e51b3014 	ldr	r3, [fp, #-20]	; 0xffffffec
    ff94:	eb00000e 	bl	ffd4 <hal_io_video_putc_x_y>
    ff98:	e51b3014 	ldr	r3, [fp, #-20]	; 0xffffffec
    ff9c:	e1a02103 	lsl	r2, r3, #2
    ffa0:	e59f3028 	ldr	r3, [pc, #40]	; ffd0 <hal_io_video_putc+0x180>
    ffa4:	e7943003 	ldr	r3, [r4, r3]
    ffa8:	e5933000 	ldr	r3, [r3]
    ffac:	e0823003 	add	r3, r2, r3
    ffb0:	e2832003 	add	r2, r3, #3
    ffb4:	e59f3014 	ldr	r3, [pc, #20]	; ffd0 <hal_io_video_putc+0x180>
    ffb8:	e7943003 	ldr	r3, [r4, r3]
    ffbc:	e5832000 	str	r2, [r3]
    ffc0:	e24bd008 	sub	sp, fp, #8
    ffc4:	e8bd8810 	pop	{r4, fp, pc}
    ffc8:	0000651c 	andeq	r6, r0, ip, lsl r5
    ffcc:	00000034 	andeq	r0, r0, r4, lsr r0
    ffd0:	0000000c 	andeq	r0, r0, ip

0000ffd4 <hal_io_video_putc_x_y>:
    ffd4:	e92d4800 	push	{fp, lr}
    ffd8:	e28db004 	add	fp, sp, #4
    ffdc:	e24dd018 	sub	sp, sp, #24
    ffe0:	e50b0008 	str	r0, [fp, #-8]
    ffe4:	e50b100c 	str	r1, [fp, #-12]
    ffe8:	e50b3014 	str	r3, [fp, #-20]	; 0xffffffec
    ffec:	e1a03002 	mov	r3, r2
    fff0:	e54b300d 	strb	r3, [fp, #-13]
    fff4:	e55b300d 	ldrb	r3, [fp, #-13]
    fff8:	e1a00003 	mov	r0, r3
    fffc:	eb000216 	bl	1085c <fonts_char_to_font>
   10000:	e1a02000 	mov	r2, r0
   10004:	e59b3004 	ldr	r3, [fp, #4]
   10008:	e58d3000 	str	r3, [sp]
   1000c:	e51b3014 	ldr	r3, [fp, #-20]	; 0xffffffec
   10010:	e51b100c 	ldr	r1, [fp, #-12]
   10014:	e51b0008 	ldr	r0, [fp, #-8]
   10018:	eb000002 	bl	10028 <draw_character_raw>
   1001c:	e320f000 	nop	{0}
   10020:	e24bd004 	sub	sp, fp, #4
   10024:	e8bd8800 	pop	{fp, pc}

00010028 <draw_character_raw>:
   10028:	e92d4800 	push	{fp, lr}
   1002c:	e28db004 	add	fp, sp, #4
   10030:	e24dd028 	sub	sp, sp, #40	; 0x28
   10034:	e50b0020 	str	r0, [fp, #-32]	; 0xffffffe0
   10038:	e50b1024 	str	r1, [fp, #-36]	; 0xffffffdc
   1003c:	e50b2028 	str	r2, [fp, #-40]	; 0xffffffd8
   10040:	e50b302c 	str	r3, [fp, #-44]	; 0xffffffd4
   10044:	e3a03000 	mov	r3, #0
   10048:	e50b3008 	str	r3, [fp, #-8]
   1004c:	ea000033 	b	10120 <draw_character_raw+0xf8>
   10050:	e51b2028 	ldr	r2, [fp, #-40]	; 0xffffffd8
   10054:	e51b3008 	ldr	r3, [fp, #-8]
   10058:	e1a03203 	lsl	r3, r3, #4
   1005c:	e0823003 	add	r3, r2, r3
   10060:	e5933004 	ldr	r3, [r3, #4]
   10064:	e1a02003 	mov	r2, r3
   10068:	e51b302c 	ldr	r3, [fp, #-44]	; 0xffffffd4
   1006c:	e0020293 	mul	r2, r3, r2
   10070:	e51b3020 	ldr	r3, [fp, #-32]	; 0xffffffe0
   10074:	e0823003 	add	r3, r2, r3
   10078:	e50b3010 	str	r3, [fp, #-16]
   1007c:	e51b2028 	ldr	r2, [fp, #-40]	; 0xffffffd8
   10080:	e51b3008 	ldr	r3, [fp, #-8]
   10084:	e1a03203 	lsl	r3, r3, #4
   10088:	e0823003 	add	r3, r2, r3
   1008c:	e5933008 	ldr	r3, [r3, #8]
   10090:	e1a02003 	mov	r2, r3
   10094:	e51b302c 	ldr	r3, [fp, #-44]	; 0xffffffd4
   10098:	e0020293 	mul	r2, r3, r2
   1009c:	e51b3024 	ldr	r3, [fp, #-36]	; 0xffffffdc
   100a0:	e0823003 	add	r3, r2, r3
   100a4:	e50b300c 	str	r3, [fp, #-12]
   100a8:	e51b2028 	ldr	r2, [fp, #-40]	; 0xffffffd8
   100ac:	e51b3008 	ldr	r3, [fp, #-8]
   100b0:	e1a03203 	lsl	r3, r3, #4
   100b4:	e0823003 	add	r3, r2, r3
   100b8:	e593300c 	ldr	r3, [r3, #12]
   100bc:	e1a02003 	mov	r2, r3
   100c0:	e51b302c 	ldr	r3, [fp, #-44]	; 0xffffffd4
   100c4:	e0020293 	mul	r2, r3, r2
   100c8:	e51b3020 	ldr	r3, [fp, #-32]	; 0xffffffe0
   100cc:	e0823003 	add	r3, r2, r3
   100d0:	e50b3018 	str	r3, [fp, #-24]	; 0xffffffe8
   100d4:	e51b2028 	ldr	r2, [fp, #-40]	; 0xffffffd8
   100d8:	e51b3008 	ldr	r3, [fp, #-8]
   100dc:	e1a03203 	lsl	r3, r3, #4
   100e0:	e0823003 	add	r3, r2, r3
   100e4:	e5933010 	ldr	r3, [r3, #16]
   100e8:	e1a02003 	mov	r2, r3
   100ec:	e51b302c 	ldr	r3, [fp, #-44]	; 0xffffffd4
   100f0:	e0020293 	mul	r2, r3, r2
   100f4:	e51b3024 	ldr	r3, [fp, #-36]	; 0xffffffdc
   100f8:	e0823003 	add	r3, r2, r3
   100fc:	e50b3014 	str	r3, [fp, #-20]	; 0xffffffec
   10100:	e24b1018 	sub	r1, fp, #24
   10104:	e24b3010 	sub	r3, fp, #16
   10108:	e59b2004 	ldr	r2, [fp, #4]
   1010c:	e1a00003 	mov	r0, r3
   10110:	eb00000a 	bl	10140 <hal_io_video_line>
   10114:	e51b3008 	ldr	r3, [fp, #-8]
   10118:	e2833001 	add	r3, r3, #1
   1011c:	e50b3008 	str	r3, [fp, #-8]
   10120:	e51b3028 	ldr	r3, [fp, #-40]	; 0xffffffd8
   10124:	e5932000 	ldr	r2, [r3]
   10128:	e51b3008 	ldr	r3, [fp, #-8]
   1012c:	e1520003 	cmp	r2, r3
   10130:	8affffc6 	bhi	10050 <draw_character_raw+0x28>
   10134:	e320f000 	nop	{0}
   10138:	e24bd004 	sub	sp, fp, #4
   1013c:	e8bd8800 	pop	{fp, pc}

00010140 <hal_io_video_line>:
   10140:	e92d4800 	push	{fp, lr}
   10144:	e28db004 	add	fp, sp, #4
   10148:	e24dd040 	sub	sp, sp, #64	; 0x40
   1014c:	e50b0038 	str	r0, [fp, #-56]	; 0xffffffc8
   10150:	e50b103c 	str	r1, [fp, #-60]	; 0xffffffc4
   10154:	e50b2040 	str	r2, [fp, #-64]	; 0xffffffc0
   10158:	e51b3038 	ldr	r3, [fp, #-56]	; 0xffffffc8
   1015c:	e5933000 	ldr	r3, [r3]
   10160:	e50b3008 	str	r3, [fp, #-8]
   10164:	e51b3038 	ldr	r3, [fp, #-56]	; 0xffffffc8
   10168:	e5933004 	ldr	r3, [r3, #4]
   1016c:	e50b300c 	str	r3, [fp, #-12]
   10170:	e51b303c 	ldr	r3, [fp, #-60]	; 0xffffffc4
   10174:	e5933000 	ldr	r3, [r3]
   10178:	e50b3014 	str	r3, [fp, #-20]	; 0xffffffec
   1017c:	e51b303c 	ldr	r3, [fp, #-60]	; 0xffffffc4
   10180:	e5933004 	ldr	r3, [r3, #4]
   10184:	e50b3018 	str	r3, [fp, #-24]	; 0xffffffe8
   10188:	e51b2014 	ldr	r2, [fp, #-20]	; 0xffffffec
   1018c:	e51b3008 	ldr	r3, [fp, #-8]
   10190:	e0423003 	sub	r3, r2, r3
   10194:	e1a00003 	mov	r0, r3
   10198:	eb000055 	bl	102f4 <abs>
   1019c:	e50b001c 	str	r0, [fp, #-28]	; 0xffffffe4
   101a0:	e51b2008 	ldr	r2, [fp, #-8]
   101a4:	e51b3014 	ldr	r3, [fp, #-20]	; 0xffffffec
   101a8:	e1520003 	cmp	r2, r3
   101ac:	aa000001 	bge	101b8 <hal_io_video_line+0x78>
   101b0:	e3a03001 	mov	r3, #1
   101b4:	ea000000 	b	101bc <hal_io_video_line+0x7c>
   101b8:	e3e03000 	mvn	r3, #0
   101bc:	e50b3020 	str	r3, [fp, #-32]	; 0xffffffe0
   101c0:	e51b2018 	ldr	r2, [fp, #-24]	; 0xffffffe8
   101c4:	e51b300c 	ldr	r3, [fp, #-12]
   101c8:	e0423003 	sub	r3, r2, r3
   101cc:	e1a00003 	mov	r0, r3
   101d0:	eb000047 	bl	102f4 <abs>
   101d4:	e50b0024 	str	r0, [fp, #-36]	; 0xffffffdc
   101d8:	e51b200c 	ldr	r2, [fp, #-12]
   101dc:	e51b3018 	ldr	r3, [fp, #-24]	; 0xffffffe8
   101e0:	e1520003 	cmp	r2, r3
   101e4:	aa000001 	bge	101f0 <hal_io_video_line+0xb0>
   101e8:	e3a03001 	mov	r3, #1
   101ec:	ea000000 	b	101f4 <hal_io_video_line+0xb4>
   101f0:	e3e03000 	mvn	r3, #0
   101f4:	e50b3028 	str	r3, [fp, #-40]	; 0xffffffd8
   101f8:	e51b201c 	ldr	r2, [fp, #-28]	; 0xffffffe4
   101fc:	e51b3024 	ldr	r3, [fp, #-36]	; 0xffffffdc
   10200:	e1520003 	cmp	r2, r3
   10204:	ca000005 	bgt	10220 <hal_io_video_line+0xe0>
   10208:	e51b3024 	ldr	r3, [fp, #-36]	; 0xffffffdc
   1020c:	e2633000 	rsb	r3, r3, #0
   10210:	e1a02fa3 	lsr	r2, r3, #31
   10214:	e0823003 	add	r3, r2, r3
   10218:	e1a030c3 	asr	r3, r3, #1
   1021c:	ea000003 	b	10230 <hal_io_video_line+0xf0>
   10220:	e51b301c 	ldr	r3, [fp, #-28]	; 0xffffffe4
   10224:	e1a02fa3 	lsr	r2, r3, #31
   10228:	e0823003 	add	r3, r2, r3
   1022c:	e1a030c3 	asr	r3, r3, #1
   10230:	e50b3010 	str	r3, [fp, #-16]
   10234:	e51b3008 	ldr	r3, [fp, #-8]
   10238:	e50b3034 	str	r3, [fp, #-52]	; 0xffffffcc
   1023c:	e51b300c 	ldr	r3, [fp, #-12]
   10240:	e50b3030 	str	r3, [fp, #-48]	; 0xffffffd0
   10244:	e24b3034 	sub	r3, fp, #52	; 0x34
   10248:	e51b1040 	ldr	r1, [fp, #-64]	; 0xffffffc0
   1024c:	e1a00003 	mov	r0, r3
   10250:	eb000036 	bl	10330 <hal_io_video_put_pixel>
   10254:	e51b2008 	ldr	r2, [fp, #-8]
   10258:	e51b3014 	ldr	r3, [fp, #-20]	; 0xffffffec
   1025c:	e1520003 	cmp	r2, r3
   10260:	1a000003 	bne	10274 <hal_io_video_line+0x134>
   10264:	e51b200c 	ldr	r2, [fp, #-12]
   10268:	e51b3018 	ldr	r3, [fp, #-24]	; 0xffffffe8
   1026c:	e1520003 	cmp	r2, r3
   10270:	0a00001b 	beq	102e4 <hal_io_video_line+0x1a4>
   10274:	e51b3010 	ldr	r3, [fp, #-16]
   10278:	e50b302c 	str	r3, [fp, #-44]	; 0xffffffd4
   1027c:	e51b301c 	ldr	r3, [fp, #-28]	; 0xffffffe4
   10280:	e2633000 	rsb	r3, r3, #0
   10284:	e51b202c 	ldr	r2, [fp, #-44]	; 0xffffffd4
   10288:	e1520003 	cmp	r2, r3
   1028c:	da000007 	ble	102b0 <hal_io_video_line+0x170>
   10290:	e51b2010 	ldr	r2, [fp, #-16]
   10294:	e51b3024 	ldr	r3, [fp, #-36]	; 0xffffffdc
   10298:	e0423003 	sub	r3, r2, r3
   1029c:	e50b3010 	str	r3, [fp, #-16]
   102a0:	e51b2008 	ldr	r2, [fp, #-8]
   102a4:	e51b3020 	ldr	r3, [fp, #-32]	; 0xffffffe0
   102a8:	e0823003 	add	r3, r2, r3
   102ac:	e50b3008 	str	r3, [fp, #-8]
   102b0:	e51b202c 	ldr	r2, [fp, #-44]	; 0xffffffd4
   102b4:	e51b3024 	ldr	r3, [fp, #-36]	; 0xffffffdc
   102b8:	e1520003 	cmp	r2, r3
   102bc:	aaffffdc 	bge	10234 <hal_io_video_line+0xf4>
   102c0:	e51b2010 	ldr	r2, [fp, #-16]
   102c4:	e51b301c 	ldr	r3, [fp, #-28]	; 0xffffffe4
   102c8:	e0823003 	add	r3, r2, r3
   102cc:	e50b3010 	str	r3, [fp, #-16]
   102d0:	e51b200c 	ldr	r2, [fp, #-12]
   102d4:	e51b3028 	ldr	r3, [fp, #-40]	; 0xffffffd8
   102d8:	e0823003 	add	r3, r2, r3
   102dc:	e50b300c 	str	r3, [fp, #-12]
   102e0:	eaffffd3 	b	10234 <hal_io_video_line+0xf4>
   102e4:	e320f000 	nop	{0}
   102e8:	e320f000 	nop	{0}
   102ec:	e24bd004 	sub	sp, fp, #4
   102f0:	e8bd8800 	pop	{fp, pc}

000102f4 <abs>:
   102f4:	e52db004 	push	{fp}		; (str fp, [sp, #-4]!)
   102f8:	e28db000 	add	fp, sp, #0
   102fc:	e24dd00c 	sub	sp, sp, #12
   10300:	e50b0008 	str	r0, [fp, #-8]
   10304:	e51b3008 	ldr	r3, [fp, #-8]
   10308:	e3530000 	cmp	r3, #0
   1030c:	aa000002 	bge	1031c <abs+0x28>
   10310:	e51b3008 	ldr	r3, [fp, #-8]
   10314:	e2633000 	rsb	r3, r3, #0
   10318:	ea000000 	b	10320 <abs+0x2c>
   1031c:	e51b3008 	ldr	r3, [fp, #-8]
   10320:	e1a00003 	mov	r0, r3
   10324:	e28bd000 	add	sp, fp, #0
   10328:	e49db004 	pop	{fp}		; (ldr fp, [sp], #4)
   1032c:	e12fff1e 	bx	lr

00010330 <hal_io_video_put_pixel>:
   10330:	e92d4800 	push	{fp, lr}
   10334:	e28db004 	add	fp, sp, #4
   10338:	e24dd008 	sub	sp, sp, #8
   1033c:	e50b0008 	str	r0, [fp, #-8]
   10340:	e50b100c 	str	r1, [fp, #-12]
   10344:	e51b3008 	ldr	r3, [fp, #-8]
   10348:	e5933000 	ldr	r3, [r3]
   1034c:	e1a02003 	mov	r2, r3
   10350:	e51b3008 	ldr	r3, [fp, #-8]
   10354:	e5933004 	ldr	r3, [r3, #4]
   10358:	e1a01003 	mov	r1, r3
   1035c:	e1a00002 	mov	r0, r2
   10360:	eb000035 	bl	1043c <x_y_to_raw>
   10364:	e1a03000 	mov	r3, r0
   10368:	e51b100c 	ldr	r1, [fp, #-12]
   1036c:	e1a00003 	mov	r0, r3
   10370:	ebffdfa7 	bl	8214 <_hal_io_video_put_pixel_raw>
   10374:	e320f000 	nop	{0}
   10378:	e24bd004 	sub	sp, fp, #4
   1037c:	e8bd8800 	pop	{fp, pc}

00010380 <hal_io_clear_screen>:
   10380:	e92d4800 	push	{fp, lr}
   10384:	e28db004 	add	fp, sp, #4
   10388:	e24dd008 	sub	sp, sp, #8
   1038c:	e3a03000 	mov	r3, #0
   10390:	e50b3008 	str	r3, [fp, #-8]
   10394:	ea000014 	b	103ec <hal_io_clear_screen+0x6c>
   10398:	e3a03000 	mov	r3, #0
   1039c:	e50b300c 	str	r3, [fp, #-12]
   103a0:	ea00000b 	b	103d4 <hal_io_clear_screen+0x54>
   103a4:	e51b300c 	ldr	r3, [fp, #-12]
   103a8:	e51b2008 	ldr	r2, [fp, #-8]
   103ac:	e1a01002 	mov	r1, r2
   103b0:	e1a00003 	mov	r0, r3
   103b4:	eb000020 	bl	1043c <x_y_to_raw>
   103b8:	e1a03000 	mov	r3, r0
   103bc:	e3a01000 	mov	r1, #0
   103c0:	e1a00003 	mov	r0, r3
   103c4:	ebffdf92 	bl	8214 <_hal_io_video_put_pixel_raw>
   103c8:	e51b300c 	ldr	r3, [fp, #-12]
   103cc:	e2833001 	add	r3, r3, #1
   103d0:	e50b300c 	str	r3, [fp, #-12]
   103d4:	e51b300c 	ldr	r3, [fp, #-12]
   103d8:	e3530d1e 	cmp	r3, #1920	; 0x780
   103dc:	bafffff0 	blt	103a4 <hal_io_clear_screen+0x24>
   103e0:	e51b3008 	ldr	r3, [fp, #-8]
   103e4:	e2833001 	add	r3, r3, #1
   103e8:	e50b3008 	str	r3, [fp, #-8]
   103ec:	e51b3008 	ldr	r3, [fp, #-8]
   103f0:	e3530e1e 	cmp	r3, #480	; 0x1e0
   103f4:	baffffe7 	blt	10398 <hal_io_clear_screen+0x18>
   103f8:	e320f000 	nop	{0}
   103fc:	e24bd004 	sub	sp, fp, #4
   10400:	e8bd8800 	pop	{fp, pc}

00010404 <x_y_to_raw_byte>:
   10404:	e52db004 	push	{fp}		; (str fp, [sp, #-4]!)
   10408:	e28db000 	add	fp, sp, #0
   1040c:	e24dd00c 	sub	sp, sp, #12
   10410:	e50b0008 	str	r0, [fp, #-8]
   10414:	e50b100c 	str	r1, [fp, #-12]
   10418:	e51b300c 	ldr	r3, [fp, #-12]
   1041c:	e3a02d1e 	mov	r2, #1920	; 0x780
   10420:	e0020392 	mul	r2, r2, r3
   10424:	e51b3008 	ldr	r3, [fp, #-8]
   10428:	e0823003 	add	r3, r2, r3
   1042c:	e1a00003 	mov	r0, r3
   10430:	e28bd000 	add	sp, fp, #0
   10434:	e49db004 	pop	{fp}		; (ldr fp, [sp], #4)
   10438:	e12fff1e 	bx	lr

0001043c <x_y_to_raw>:
   1043c:	e52db004 	push	{fp}		; (str fp, [sp, #-4]!)
   10440:	e28db000 	add	fp, sp, #0
   10444:	e24dd00c 	sub	sp, sp, #12
   10448:	e50b0008 	str	r0, [fp, #-8]
   1044c:	e50b100c 	str	r1, [fp, #-12]
   10450:	e51b300c 	ldr	r3, [fp, #-12]
   10454:	e3a02d1e 	mov	r2, #1920	; 0x780
   10458:	e0020392 	mul	r2, r2, r3
   1045c:	e51b3008 	ldr	r3, [fp, #-8]
   10460:	e3a01003 	mov	r1, #3
   10464:	e0030391 	mul	r3, r1, r3
   10468:	e0823003 	add	r3, r2, r3
   1046c:	e1a00003 	mov	r0, r3
   10470:	e28bd000 	add	sp, fp, #0
   10474:	e49db004 	pop	{fp}		; (ldr fp, [sp], #4)
   10478:	e12fff1e 	bx	lr

0001047c <hal_io_serial_init>:
   1047c:	e92d4800 	push	{fp, lr}
   10480:	e28db004 	add	fp, sp, #4
   10484:	eb000061 	bl	10610 <uart0_init>
   10488:	e320f000 	nop	{0}
   1048c:	e8bd8800 	pop	{fp, pc}

00010490 <hal_io_serial_puts>:
   10490:	e92d4800 	push	{fp, lr}
   10494:	e28db004 	add	fp, sp, #4
   10498:	e24dd008 	sub	sp, sp, #8
   1049c:	e50b0008 	str	r0, [fp, #-8]
   104a0:	e50b100c 	str	r1, [fp, #-12]
   104a4:	ea000006 	b	104c4 <hal_io_serial_puts+0x34>
   104a8:	e51b300c 	ldr	r3, [fp, #-12]
   104ac:	e2832001 	add	r2, r3, #1
   104b0:	e50b200c 	str	r2, [fp, #-12]
   104b4:	e5d33000 	ldrb	r3, [r3]
   104b8:	e1a01003 	mov	r1, r3
   104bc:	e51b0008 	ldr	r0, [fp, #-8]
   104c0:	eb000006 	bl	104e0 <hal_io_serial_putc>
   104c4:	e51b300c 	ldr	r3, [fp, #-12]
   104c8:	e5d33000 	ldrb	r3, [r3]
   104cc:	e3530000 	cmp	r3, #0
   104d0:	1afffff4 	bne	104a8 <hal_io_serial_puts+0x18>
   104d4:	e320f000 	nop	{0}
   104d8:	e24bd004 	sub	sp, fp, #4
   104dc:	e8bd8800 	pop	{fp, pc}

000104e0 <hal_io_serial_putc>:
   104e0:	e92d4800 	push	{fp, lr}
   104e4:	e28db004 	add	fp, sp, #4
   104e8:	e24dd008 	sub	sp, sp, #8
   104ec:	e50b0008 	str	r0, [fp, #-8]
   104f0:	e1a03001 	mov	r3, r1
   104f4:	e54b3009 	strb	r3, [fp, #-9]
   104f8:	e51b3008 	ldr	r3, [fp, #-8]
   104fc:	e3530000 	cmp	r3, #0
   10500:	0a000002 	beq	10510 <hal_io_serial_putc+0x30>
   10504:	e51b3008 	ldr	r3, [fp, #-8]
   10508:	e3530001 	cmp	r3, #1
   1050c:	ea000003 	b	10520 <hal_io_serial_putc+0x40>
   10510:	e55b3009 	ldrb	r3, [fp, #-9]
   10514:	e1a00003 	mov	r0, r3
   10518:	eb000016 	bl	10578 <uart0_putc>
   1051c:	e320f000 	nop	{0}
   10520:	e320f000 	nop	{0}
   10524:	e24bd004 	sub	sp, fp, #4
   10528:	e8bd8800 	pop	{fp, pc}

0001052c <hal_io_serial_getc>:
   1052c:	e92d4800 	push	{fp, lr}
   10530:	e28db004 	add	fp, sp, #4
   10534:	e24dd008 	sub	sp, sp, #8
   10538:	e50b0008 	str	r0, [fp, #-8]
   1053c:	e51b3008 	ldr	r3, [fp, #-8]
   10540:	e3530000 	cmp	r3, #0
   10544:	0a000003 	beq	10558 <hal_io_serial_getc+0x2c>
   10548:	e51b3008 	ldr	r3, [fp, #-8]
   1054c:	e3530001 	cmp	r3, #1
   10550:	0a000003 	beq	10564 <hal_io_serial_getc+0x38>
   10554:	ea000004 	b	1056c <hal_io_serial_getc+0x40>
   10558:	eb00001b 	bl	105cc <uart0_getc>
   1055c:	e1a03000 	mov	r3, r0
   10560:	ea000001 	b	1056c <hal_io_serial_getc+0x40>
   10564:	e3a03000 	mov	r3, #0
   10568:	eaffffff 	b	1056c <hal_io_serial_getc+0x40>
   1056c:	e1a00003 	mov	r0, r3
   10570:	e24bd004 	sub	sp, fp, #4
   10574:	e8bd8800 	pop	{fp, pc}

00010578 <uart0_putc>:
   10578:	e92d4800 	push	{fp, lr}
   1057c:	e28db004 	add	fp, sp, #4
   10580:	e24dd008 	sub	sp, sp, #8
   10584:	e1a03000 	mov	r3, r0
   10588:	e54b3005 	strb	r3, [fp, #-5]
   1058c:	e320f000 	nop	{0}
   10590:	e3010018 	movw	r0, #4120	; 0x1018
   10594:	e3430f20 	movt	r0, #16160	; 0x3f20
   10598:	eb000058 	bl	10700 <ldr>
   1059c:	e1a03000 	mov	r3, r0
   105a0:	e2033020 	and	r3, r3, #32
   105a4:	e3530000 	cmp	r3, #0
   105a8:	1afffff8 	bne	10590 <uart0_putc+0x18>
   105ac:	e55b3005 	ldrb	r3, [fp, #-5]
   105b0:	e1a01003 	mov	r1, r3
   105b4:	e3a00a01 	mov	r0, #4096	; 0x1000
   105b8:	e3430f20 	movt	r0, #16160	; 0x3f20
   105bc:	eb000043 	bl	106d0 <str>
   105c0:	e320f000 	nop	{0}
   105c4:	e24bd004 	sub	sp, fp, #4
   105c8:	e8bd8800 	pop	{fp, pc}

000105cc <uart0_getc>:
   105cc:	e92d4800 	push	{fp, lr}
   105d0:	e28db004 	add	fp, sp, #4
   105d4:	e320f000 	nop	{0}
   105d8:	e3010018 	movw	r0, #4120	; 0x1018
   105dc:	e3430f20 	movt	r0, #16160	; 0x3f20
   105e0:	eb000046 	bl	10700 <ldr>
   105e4:	e1a03000 	mov	r3, r0
   105e8:	e2033010 	and	r3, r3, #16
   105ec:	e3530000 	cmp	r3, #0
   105f0:	1afffff8 	bne	105d8 <uart0_getc+0xc>
   105f4:	e3a00a01 	mov	r0, #4096	; 0x1000
   105f8:	e3430f20 	movt	r0, #16160	; 0x3f20
   105fc:	eb00003f 	bl	10700 <ldr>
   10600:	e1a03000 	mov	r3, r0
   10604:	e6ef3073 	uxtb	r3, r3
   10608:	e1a00003 	mov	r0, r3
   1060c:	e8bd8800 	pop	{fp, pc}

00010610 <uart0_init>:
   10610:	e92d4800 	push	{fp, lr}
   10614:	e28db004 	add	fp, sp, #4
   10618:	e3a01000 	mov	r1, #0
   1061c:	e3010030 	movw	r0, #4144	; 0x1030
   10620:	e3430f20 	movt	r0, #16160	; 0x3f20
   10624:	eb000029 	bl	106d0 <str>
   10628:	e3a01000 	mov	r1, #0
   1062c:	e3a00094 	mov	r0, #148	; 0x94
   10630:	e3430f20 	movt	r0, #16160	; 0x3f20
   10634:	eb000025 	bl	106d0 <str>
   10638:	e3a00096 	mov	r0, #150	; 0x96
   1063c:	eb000039 	bl	10728 <delay>
   10640:	e3a01903 	mov	r1, #49152	; 0xc000
   10644:	e3a00098 	mov	r0, #152	; 0x98
   10648:	e3430f20 	movt	r0, #16160	; 0x3f20
   1064c:	eb00001f 	bl	106d0 <str>
   10650:	e3a00096 	mov	r0, #150	; 0x96
   10654:	eb000033 	bl	10728 <delay>
   10658:	e3a01000 	mov	r1, #0
   1065c:	e3a00098 	mov	r0, #152	; 0x98
   10660:	e3430f20 	movt	r0, #16160	; 0x3f20
   10664:	eb000019 	bl	106d0 <str>
   10668:	e30017ff 	movw	r1, #2047	; 0x7ff
   1066c:	e3010044 	movw	r0, #4164	; 0x1044
   10670:	e3430f20 	movt	r0, #16160	; 0x3f20
   10674:	eb000015 	bl	106d0 <str>
   10678:	e3a01001 	mov	r1, #1
   1067c:	e3010024 	movw	r0, #4132	; 0x1024
   10680:	e3430f20 	movt	r0, #16160	; 0x3f20
   10684:	eb000011 	bl	106d0 <str>
   10688:	e3a01028 	mov	r1, #40	; 0x28
   1068c:	e3010028 	movw	r0, #4136	; 0x1028
   10690:	e3430f20 	movt	r0, #16160	; 0x3f20
   10694:	eb00000d 	bl	106d0 <str>
   10698:	e3a01070 	mov	r1, #112	; 0x70
   1069c:	e301002c 	movw	r0, #4140	; 0x102c
   106a0:	e3430f20 	movt	r0, #16160	; 0x3f20
   106a4:	eb000009 	bl	106d0 <str>
   106a8:	e30017f2 	movw	r1, #2034	; 0x7f2
   106ac:	e3010038 	movw	r0, #4152	; 0x1038
   106b0:	e3430f20 	movt	r0, #16160	; 0x3f20
   106b4:	eb000005 	bl	106d0 <str>
   106b8:	e3001301 	movw	r1, #769	; 0x301
   106bc:	e3010030 	movw	r0, #4144	; 0x1030
   106c0:	e3430f20 	movt	r0, #16160	; 0x3f20
   106c4:	eb000001 	bl	106d0 <str>
   106c8:	e320f000 	nop	{0}
   106cc:	e8bd8800 	pop	{fp, pc}

000106d0 <str>:
   106d0:	e52db004 	push	{fp}		; (str fp, [sp, #-4]!)
   106d4:	e28db000 	add	fp, sp, #0
   106d8:	e24dd00c 	sub	sp, sp, #12
   106dc:	e50b0008 	str	r0, [fp, #-8]
   106e0:	e50b100c 	str	r1, [fp, #-12]
   106e4:	e51b3008 	ldr	r3, [fp, #-8]
   106e8:	e51b200c 	ldr	r2, [fp, #-12]
   106ec:	e5832000 	str	r2, [r3]
   106f0:	e320f000 	nop	{0}
   106f4:	e28bd000 	add	sp, fp, #0
   106f8:	e49db004 	pop	{fp}		; (ldr fp, [sp], #4)
   106fc:	e12fff1e 	bx	lr

00010700 <ldr>:
   10700:	e52db004 	push	{fp}		; (str fp, [sp, #-4]!)
   10704:	e28db000 	add	fp, sp, #0
   10708:	e24dd00c 	sub	sp, sp, #12
   1070c:	e50b0008 	str	r0, [fp, #-8]
   10710:	e51b3008 	ldr	r3, [fp, #-8]
   10714:	e5933000 	ldr	r3, [r3]
   10718:	e1a00003 	mov	r0, r3
   1071c:	e28bd000 	add	sp, fp, #0
   10720:	e49db004 	pop	{fp}		; (ldr fp, [sp], #4)
   10724:	e12fff1e 	bx	lr

00010728 <delay>:
   10728:	e52db004 	push	{fp}		; (str fp, [sp, #-4]!)
   1072c:	e28db000 	add	fp, sp, #0
   10730:	e24dd00c 	sub	sp, sp, #12
   10734:	e50b0008 	str	r0, [fp, #-8]
   10738:	e51b3008 	ldr	r3, [fp, #-8]

0001073c <__delay_1093>:
   1073c:	e2533001 	subs	r3, r3, #1
   10740:	1afffffd 	bne	1073c <__delay_1093>
   10744:	e50b3008 	str	r3, [fp, #-8]
   10748:	e320f000 	nop	{0}
   1074c:	e28bd000 	add	sp, fp, #0
   10750:	e49db004 	pop	{fp}		; (ldr fp, [sp], #4)
   10754:	e12fff1e 	bx	lr

00010758 <main>:
   10758:	e92d4800 	push	{fp, lr}
   1075c:	e28db004 	add	fp, sp, #4
   10760:	e24dd010 	sub	sp, sp, #16
   10764:	e50b0008 	str	r0, [fp, #-8]
   10768:	e50b100c 	str	r1, [fp, #-12]
   1076c:	e50b2010 	str	r2, [fp, #-16]
   10770:	eb000002 	bl	10780 <kernel_init>
   10774:	eb00000f 	bl	107b8 <input_output_init>
   10778:	eb000c84 	bl	13990 <console_begin>
   1077c:	eafffffe 	b	1077c <main+0x24>

00010780 <kernel_init>:
   10780:	e92d4800 	push	{fp, lr}
   10784:	e28db004 	add	fp, sp, #4
   10788:	ebfffd03 	bl	fb9c <hal_io_init>
   1078c:	eb0010b4 	bl	14a64 <hal_nvmem_init>
   10790:	eb0011a1 	bl	14e1c <hal_memreg_init>
   10794:	eb000c5a 	bl	13904 <console_init>
   10798:	eb0011f2 	bl	14f68 <loader_init>
   1079c:	eb001260 	bl	15124 <syscalls_init>
   107a0:	eb001326 	bl	15440 <irq_init>
   107a4:	eb00135d 	bl	15520 <scheduler_init>
   107a8:	e3a00001 	mov	r0, #1
   107ac:	eb0010b2 	bl	14a7c <hal_nvmem_start>
   107b0:	e320f000 	nop	{0}
   107b4:	e8bd8800 	pop	{fp, pc}

000107b8 <input_output_init>:
   107b8:	e92d4800 	push	{fp, lr}
   107bc:	e28db004 	add	fp, sp, #4
   107c0:	e24dd008 	sub	sp, sp, #8
   107c4:	e3a03001 	mov	r3, #1
   107c8:	e50b3008 	str	r3, [fp, #-8]
   107cc:	ebfffcf7 	bl	fbb0 <hal_io_video_init>
   107d0:	e50b0008 	str	r0, [fp, #-8]
   107d4:	e51b3008 	ldr	r3, [fp, #-8]
   107d8:	e3530000 	cmp	r3, #0
   107dc:	1a000004 	bne	107f4 <input_output_init+0x3c>
   107e0:	e59f303c 	ldr	r3, [pc, #60]	; 10824 <input_output_init+0x6c>
   107e4:	e08f3003 	add	r3, pc, r3
   107e8:	e1a00003 	mov	r0, r3
   107ec:	eb00000f 	bl	10830 <sys_info>
   107f0:	ea000003 	b	10804 <input_output_init+0x4c>
   107f4:	e59f302c 	ldr	r3, [pc, #44]	; 10828 <input_output_init+0x70>
   107f8:	e08f3003 	add	r3, pc, r3
   107fc:	e1a00003 	mov	r0, r3
   10800:	eb00000a 	bl	10830 <sys_info>
   10804:	ebffff1c 	bl	1047c <hal_io_serial_init>
   10808:	e59f301c 	ldr	r3, [pc, #28]	; 1082c <input_output_init+0x74>
   1080c:	e08f3003 	add	r3, pc, r3
   10810:	e1a00003 	mov	r0, r3
   10814:	eb000005 	bl	10830 <sys_info>
   10818:	e320f000 	nop	{0}
   1081c:	e24bd004 	sub	sp, fp, #4
   10820:	e8bd8800 	pop	{fp, pc}
   10824:	020b6d8c 	andeq	r6, fp, #140, 26	; 0x2300
   10828:	020b6d8c 	andeq	r6, fp, #140, 26	; 0x2300
   1082c:	020b6d90 	andeq	r6, fp, #144, 26	; 0x2400

00010830 <sys_info>:
   10830:	e92d4800 	push	{fp, lr}
   10834:	e28db004 	add	fp, sp, #4
   10838:	e24dd008 	sub	sp, sp, #8
   1083c:	e50b0008 	str	r0, [fp, #-8]
   10840:	e51b0008 	ldr	r0, [fp, #-8]
   10844:	ebffe1ed 	bl	9000 <printf_video>
   10848:	e51b0008 	ldr	r0, [fp, #-8]
   1084c:	ebffe211 	bl	9098 <printf_serial>
   10850:	e320f000 	nop	{0}
   10854:	e24bd004 	sub	sp, fp, #4
   10858:	e8bd8800 	pop	{fp, pc}

0001085c <fonts_char_to_font>:
   1085c:	e52db004 	push	{fp}		; (str fp, [sp, #-4]!)
   10860:	e28db000 	add	fp, sp, #0
   10864:	e24dd00c 	sub	sp, sp, #12
   10868:	e1a03000 	mov	r3, r0
   1086c:	e54b3005 	strb	r3, [fp, #-5]
   10870:	e15b30d5 	ldrsb	r3, [fp, #-5]
   10874:	e3530000 	cmp	r3, #0
   10878:	aa000003 	bge	1088c <fonts_char_to_font+0x30>
   1087c:	e59f3054 	ldr	r3, [pc, #84]	; 108d8 <fonts_char_to_font+0x7c>
   10880:	e08f3003 	add	r3, pc, r3
   10884:	e2833d32 	add	r3, r3, #3200	; 0xc80
   10888:	ea00000e 	b	108c8 <fonts_char_to_font+0x6c>
   1088c:	e55b3005 	ldrb	r3, [fp, #-5]
   10890:	e3530060 	cmp	r3, #96	; 0x60
   10894:	9a000005 	bls	108b0 <fonts_char_to_font+0x54>
   10898:	e55b3005 	ldrb	r3, [fp, #-5]
   1089c:	e353007a 	cmp	r3, #122	; 0x7a
   108a0:	8a000002 	bhi	108b0 <fonts_char_to_font+0x54>
   108a4:	e55b3005 	ldrb	r3, [fp, #-5]
   108a8:	e2433020 	sub	r3, r3, #32
   108ac:	ea000000 	b	108b4 <fonts_char_to_font+0x58>
   108b0:	e55b3005 	ldrb	r3, [fp, #-5]
   108b4:	e3a02064 	mov	r2, #100	; 0x64
   108b8:	e0030392 	mul	r3, r2, r3
   108bc:	e59f2018 	ldr	r2, [pc, #24]	; 108dc <fonts_char_to_font+0x80>
   108c0:	e08f2002 	add	r2, pc, r2
   108c4:	e0833002 	add	r3, r3, r2
   108c8:	e1a00003 	mov	r0, r3
   108cc:	e28bd000 	add	sp, fp, #0
   108d0:	e49db004 	pop	{fp}		; (ldr fp, [sp], #4)
   108d4:	e12fff1e 	bx	lr
   108d8:	000087a8 	andeq	r8, r0, r8, lsr #15
   108dc:	00008768 	andeq	r8, r0, r8, ror #14

000108e0 <fonts_init>:
   108e0:	e92d4800 	push	{fp, lr}
   108e4:	e28db004 	add	fp, sp, #4
   108e8:	e24dd008 	sub	sp, sp, #8
   108ec:	e59f3014 	ldr	r3, [pc, #20]	; 10908 <fonts_init+0x28>
   108f0:	e08f3003 	add	r3, pc, r3
   108f4:	e3a02000 	mov	r2, #0
   108f8:	e5832000 	str	r2, [r3]
   108fc:	e3a03000 	mov	r3, #0
   10900:	e50b3008 	str	r3, [fp, #-8]
   10904:	ea000103 	b	10d18 <fonts_init+0x438>
   10908:	000086d4 	ldrdeq	r8, [r0], -r4
   1090c:	0000834c 	andeq	r8, r0, ip, asr #6
   10910:	000082d0 	ldrdeq	r8, [r0], -r0
   10914:	0000829c 	muleq	r0, ip, r2
   10918:	000082f0 	strdeq	r8, [r0], -r0
   1091c:	00008284 	andeq	r8, r0, r4, lsl #5
   10920:	00008268 	andeq	r8, r0, r8, ror #4
   10924:	00008258 	andeq	r8, r0, r8, asr r2
   10928:	00008248 	andeq	r8, r0, r8, asr #4
   1092c:	00008238 	andeq	r8, r0, r8, lsr r2
   10930:	00008228 	andeq	r8, r0, r8, lsr #4
   10934:	00008218 	andeq	r8, r0, r8, lsl r2
   10938:	00008208 	andeq	r8, r0, r8, lsl #4
   1093c:	000081f8 	strdeq	r8, [r0], -r8	; <UNPREDICTABLE>
   10940:	000081e8 	andeq	r8, r0, r8, ror #3
   10944:	000081d8 	ldrdeq	r8, [r0], -r8	; <UNPREDICTABLE>
   10948:	000081c8 	andeq	r8, r0, r8, asr #3
   1094c:	000081b8 			; <UNDEFINED> instruction: 0x000081b8
   10950:	000081a8 	andeq	r8, r0, r8, lsr #3
   10954:	000081fc 	strdeq	r8, [r0], -ip
   10958:	0000818c 	andeq	r8, r0, ip, lsl #3
   1095c:	0000816c 	andeq	r8, r0, ip, ror #2
   10960:	0000815c 	andeq	r8, r0, ip, asr r1
   10964:	0000814c 	andeq	r8, r0, ip, asr #2
   10968:	0000813c 	andeq	r8, r0, ip, lsr r1
   1096c:	0000812c 	andeq	r8, r0, ip, lsr #2
   10970:	0000811c 	andeq	r8, r0, ip, lsl r1
   10974:	0000810c 	andeq	r8, r0, ip, lsl #2
   10978:	000080fc 	strdeq	r8, [r0], -ip
   1097c:	000080ec 	andeq	r8, r0, ip, ror #1
   10980:	000080dc 	ldrdeq	r8, [r0], -ip
   10984:	000080cc 	andeq	r8, r0, ip, asr #1
   10988:	000080bc 	strheq	r8, [r0], -ip
   1098c:	000080ac 	andeq	r8, r0, ip, lsr #1
   10990:	0000809c 	muleq	r0, ip, r0
   10994:	0000808c 	andeq	r8, r0, ip, lsl #1
   10998:	0000807c 	andeq	r8, r0, ip, ror r0
   1099c:	0000806c 	andeq	r8, r0, ip, rrx
   109a0:	0000805c 	andeq	r8, r0, ip, asr r0
   109a4:	0000804c 	andeq	r8, r0, ip, asr #32
   109a8:	0000803c 	andeq	r8, r0, ip, lsr r0
   109ac:	0000802c 	andeq	r8, r0, ip, lsr #32
   109b0:	00008080 	andeq	r8, r0, r0, lsl #1
   109b4:	00008010 	andeq	r8, r0, r0, lsl r0
   109b8:	00007ff0 	strdeq	r7, [r0], -r0
   109bc:	00007fe0 	andeq	r7, r0, r0, ror #31
   109c0:	00007fd0 	ldrdeq	r7, [r0], -r0
   109c4:	00007fc0 	andeq	r7, r0, r0, asr #31
   109c8:	00007fb0 			; <UNDEFINED> instruction: 0x00007fb0
   109cc:	00007fa0 	andeq	r7, r0, r0, lsr #31
   109d0:	00007f90 	muleq	r0, r0, pc	; <UNPREDICTABLE>
   109d4:	00007f80 	andeq	r7, r0, r0, lsl #31
   109d8:	00007f70 	andeq	r7, r0, r0, ror pc
   109dc:	00007f60 	andeq	r7, r0, r0, ror #30
   109e0:	00007f50 	andeq	r7, r0, r0, asr pc
   109e4:	00007f40 	andeq	r7, r0, r0, asr #30
   109e8:	00007f30 	andeq	r7, r0, r0, lsr pc
   109ec:	00007f84 	andeq	r7, r0, r4, lsl #31
   109f0:	00007f14 	andeq	r7, r0, r4, lsl pc
   109f4:	00007ef4 	strdeq	r7, [r0], -r4
   109f8:	00007ee4 	andeq	r7, r0, r4, ror #29
   109fc:	00007ed4 	ldrdeq	r7, [r0], -r4
   10a00:	00007ec4 	andeq	r7, r0, r4, asr #29
   10a04:	00007eb4 			; <UNDEFINED> instruction: 0x00007eb4
   10a08:	00007ea4 	andeq	r7, r0, r4, lsr #29
   10a0c:	00007e94 	muleq	r0, r4, lr
   10a10:	00007e84 	andeq	r7, r0, r4, lsl #29
   10a14:	00007e74 	andeq	r7, r0, r4, ror lr
   10a18:	00007e64 	andeq	r7, r0, r4, ror #28
   10a1c:	00007e54 	andeq	r7, r0, r4, asr lr
   10a20:	00007e44 	andeq	r7, r0, r4, asr #28
   10a24:	00007e34 	andeq	r7, r0, r4, lsr lr
   10a28:	00007e88 	andeq	r7, r0, r8, lsl #29
   10a2c:	00007e18 	andeq	r7, r0, r8, lsl lr
   10a30:	00007dfc 	strdeq	r7, [r0], -ip
   10a34:	00007dec 	andeq	r7, r0, ip, ror #27
   10a38:	00007ddc 	ldrdeq	r7, [r0], -ip
   10a3c:	00007dcc 	andeq	r7, r0, ip, asr #27
   10a40:	00007dbc 			; <UNDEFINED> instruction: 0x00007dbc
   10a44:	00007dac 	andeq	r7, r0, ip, lsr #27
   10a48:	00007d9c 	muleq	r0, ip, sp
   10a4c:	00007d8c 	andeq	r7, r0, ip, lsl #27
   10a50:	00007d7c 	andeq	r7, r0, ip, ror sp
   10a54:	00007d6c 	andeq	r7, r0, ip, ror #26
   10a58:	00007d5c 	andeq	r7, r0, ip, asr sp
   10a5c:	00007d4c 	andeq	r7, r0, ip, asr #26
   10a60:	00007d3c 	andeq	r7, r0, ip, lsr sp
   10a64:	00007d2c 	andeq	r7, r0, ip, lsr #26
   10a68:	00007d1c 	andeq	r7, r0, ip, lsl sp
   10a6c:	00007d0c 	andeq	r7, r0, ip, lsl #26
   10a70:	00007cfc 	strdeq	r7, [r0], -ip
   10a74:	00007d50 	andeq	r7, r0, r0, asr sp
   10a78:	00007ce0 	andeq	r7, r0, r0, ror #25
   10a7c:	00007cc0 	andeq	r7, r0, r0, asr #25
   10a80:	00007cb0 			; <UNDEFINED> instruction: 0x00007cb0
   10a84:	00007ca0 	andeq	r7, r0, r0, lsr #25
   10a88:	00007c90 	muleq	r0, r0, ip
   10a8c:	00007c80 	andeq	r7, r0, r0, lsl #25
   10a90:	00007c70 	andeq	r7, r0, r0, ror ip
   10a94:	00007c60 	andeq	r7, r0, r0, ror #24
   10a98:	00007c50 	andeq	r7, r0, r0, asr ip
   10a9c:	00007c40 	andeq	r7, r0, r0, asr #24
   10aa0:	00007c30 	andeq	r7, r0, r0, lsr ip
   10aa4:	00007c20 	andeq	r7, r0, r0, lsr #24
   10aa8:	00007c10 	andeq	r7, r0, r0, lsl ip
   10aac:	00007c00 	andeq	r7, r0, r0, lsl #24
   10ab0:	00007c54 	andeq	r7, r0, r4, asr ip
   10ab4:	00007be4 	andeq	r7, r0, r4, ror #23
   10ab8:	00007bc4 	andeq	r7, r0, r4, asr #23
   10abc:	00007bb4 			; <UNDEFINED> instruction: 0x00007bb4
   10ac0:	00007ba4 	andeq	r7, r0, r4, lsr #23
   10ac4:	00007b94 	muleq	r0, r4, fp
   10ac8:	00007b84 	andeq	r7, r0, r4, lsl #23
   10acc:	00007b74 	andeq	r7, r0, r4, ror fp
   10ad0:	00007b64 	andeq	r7, r0, r4, ror #22
   10ad4:	00007b54 	andeq	r7, r0, r4, asr fp
   10ad8:	00007b44 	andeq	r7, r0, r4, asr #22
   10adc:	00007b34 	andeq	r7, r0, r4, lsr fp
   10ae0:	00007b24 	andeq	r7, r0, r4, lsr #22
   10ae4:	00007b14 	andeq	r7, r0, r4, lsl fp
   10ae8:	00007b04 	andeq	r7, r0, r4, lsl #22
   10aec:	00007af4 	strdeq	r7, [r0], -r4
   10af0:	00007ae4 	andeq	r7, r0, r4, ror #21
   10af4:	00007ad4 	ldrdeq	r7, [r0], -r4
   10af8:	00007ac4 	andeq	r7, r0, r4, asr #21
   10afc:	00007ab4 			; <UNDEFINED> instruction: 0x00007ab4
   10b00:	00007aa4 	andeq	r7, r0, r4, lsr #21
   10b04:	00007a94 	muleq	r0, r4, sl
   10b08:	00007a84 	andeq	r7, r0, r4, lsl #21
   10b0c:	00007ad8 	ldrdeq	r7, [r0], -r8
   10b10:	00007a68 	andeq	r7, r0, r8, ror #20
   10b14:	00007a48 	andeq	r7, r0, r8, asr #20
   10b18:	00007a38 	andeq	r7, r0, r8, lsr sl
   10b1c:	00007a28 	andeq	r7, r0, r8, lsr #20
   10b20:	00007a18 	andeq	r7, r0, r8, lsl sl
   10b24:	00007a08 	andeq	r7, r0, r8, lsl #20
   10b28:	000079f8 	strdeq	r7, [r0], -r8
   10b2c:	000079e8 	andeq	r7, r0, r8, ror #19
   10b30:	000079d8 	ldrdeq	r7, [r0], -r8
   10b34:	000079c8 	andeq	r7, r0, r8, asr #19
   10b38:	000079b8 			; <UNDEFINED> instruction: 0x000079b8
   10b3c:	000079a8 	andeq	r7, r0, r8, lsr #19
   10b40:	00007998 	muleq	r0, r8, r9
   10b44:	00007988 	andeq	r7, r0, r8, lsl #19
   10b48:	000079dc 	ldrdeq	r7, [r0], -ip
   10b4c:	0000796c 	andeq	r7, r0, ip, ror #18
   10b50:	00007950 	andeq	r7, r0, r0, asr r9
   10b54:	00007940 	andeq	r7, r0, r0, asr #18
   10b58:	00007930 	andeq	r7, r0, r0, lsr r9
   10b5c:	00007920 	andeq	r7, r0, r0, lsr #18
   10b60:	00007910 	andeq	r7, r0, r0, lsl r9
   10b64:	00007900 	andeq	r7, r0, r0, lsl #18
   10b68:	000078f0 	strdeq	r7, [r0], -r0
   10b6c:	000078e0 	andeq	r7, r0, r0, ror #17
   10b70:	000078d0 	ldrdeq	r7, [r0], -r0
   10b74:	000078c0 	andeq	r7, r0, r0, asr #17
   10b78:	000078b0 			; <UNDEFINED> instruction: 0x000078b0
   10b7c:	000078a0 	andeq	r7, r0, r0, lsr #17
   10b80:	00007890 	muleq	r0, r0, r8
   10b84:	000078e4 	andeq	r7, r0, r4, ror #17
   10b88:	00007874 	andeq	r7, r0, r4, ror r8
   10b8c:	00007854 	andeq	r7, r0, r4, asr r8
   10b90:	00007844 	andeq	r7, r0, r4, asr #16
   10b94:	00007834 	andeq	r7, r0, r4, lsr r8
   10b98:	00007824 	andeq	r7, r0, r4, lsr #16
   10b9c:	00007814 	andeq	r7, r0, r4, lsl r8
   10ba0:	00007804 	andeq	r7, r0, r4, lsl #16
   10ba4:	000077f4 	strdeq	r7, [r0], -r4
   10ba8:	000077e4 	andeq	r7, r0, r4, ror #15
   10bac:	000077d4 	ldrdeq	r7, [r0], -r4
   10bb0:	000077c4 	andeq	r7, r0, r4, asr #15
   10bb4:	000077b4 			; <UNDEFINED> instruction: 0x000077b4
   10bb8:	000077a4 	andeq	r7, r0, r4, lsr #15
   10bbc:	00007794 	muleq	r0, r4, r7
   10bc0:	000077e8 	andeq	r7, r0, r8, ror #15
   10bc4:	00007778 	andeq	r7, r0, r8, ror r7
   10bc8:	00007758 	andeq	r7, r0, r8, asr r7
   10bcc:	00007748 	andeq	r7, r0, r8, asr #14
   10bd0:	00007738 	andeq	r7, r0, r8, lsr r7
   10bd4:	00007728 	andeq	r7, r0, r8, lsr #14
   10bd8:	00007718 	andeq	r7, r0, r8, lsl r7
   10bdc:	00007708 	andeq	r7, r0, r8, lsl #14
   10be0:	000076f8 	strdeq	r7, [r0], -r8
   10be4:	000076e8 	andeq	r7, r0, r8, ror #13
   10be8:	000076d8 	ldrdeq	r7, [r0], -r8
   10bec:	0000772c 	andeq	r7, r0, ip, lsr #14
   10bf0:	000076bc 			; <UNDEFINED> instruction: 0x000076bc
   10bf4:	000076a0 	andeq	r7, r0, r0, lsr #13
   10bf8:	00007690 	muleq	r0, r0, r6
   10bfc:	00007680 	andeq	r7, r0, r0, lsl #13
   10c00:	00007670 	andeq	r7, r0, r0, ror r6
   10c04:	00007660 	andeq	r7, r0, r0, ror #12
   10c08:	00007650 	andeq	r7, r0, r0, asr r6
   10c0c:	00007640 	andeq	r7, r0, r0, asr #12
   10c10:	00007630 	andeq	r7, r0, r0, lsr r6
   10c14:	00007620 	andeq	r7, r0, r0, lsr #12
   10c18:	00007610 	andeq	r7, r0, r0, lsl r6
   10c1c:	00007600 	andeq	r7, r0, r0, lsl #12
   10c20:	000075f0 	strdeq	r7, [r0], -r0
   10c24:	000075e0 	andeq	r7, r0, r0, ror #11
   10c28:	000075d0 	ldrdeq	r7, [r0], -r0
   10c2c:	000075c0 	andeq	r7, r0, r0, asr #11
   10c30:	000075b0 			; <UNDEFINED> instruction: 0x000075b0
   10c34:	000075a0 	andeq	r7, r0, r0, lsr #11
   10c38:	000075f4 	strdeq	r7, [r0], -r4
   10c3c:	00007584 	andeq	r7, r0, r4, lsl #11
   10c40:	00007564 	andeq	r7, r0, r4, ror #10
   10c44:	00007554 	andeq	r7, r0, r4, asr r5
   10c48:	00007544 	andeq	r7, r0, r4, asr #10
   10c4c:	00007534 	andeq	r7, r0, r4, lsr r5
   10c50:	00007524 	andeq	r7, r0, r4, lsr #10
   10c54:	00007514 	andeq	r7, r0, r4, lsl r5
   10c58:	00007504 	andeq	r7, r0, r4, lsl #10
   10c5c:	000074f4 	strdeq	r7, [r0], -r4
   10c60:	000074e4 	andeq	r7, r0, r4, ror #9
   10c64:	000074d4 	ldrdeq	r7, [r0], -r4
   10c68:	000074c4 	andeq	r7, r0, r4, asr #9
   10c6c:	000074b4 			; <UNDEFINED> instruction: 0x000074b4
   10c70:	000074a4 	andeq	r7, r0, r4, lsr #9
   10c74:	000074f8 	strdeq	r7, [r0], -r8
   10c78:	00007488 	andeq	r7, r0, r8, lsl #9
   10c7c:	00007468 	andeq	r7, r0, r8, ror #8
   10c80:	00007458 	andeq	r7, r0, r8, asr r4
   10c84:	00007448 	andeq	r7, r0, r8, asr #8
   10c88:	00007438 	andeq	r7, r0, r8, lsr r4
   10c8c:	00007428 	andeq	r7, r0, r8, lsr #8
   10c90:	00007418 	andeq	r7, r0, r8, lsl r4
   10c94:	00007408 	andeq	r7, r0, r8, lsl #8
   10c98:	000073f8 	strdeq	r7, [r0], -r8
   10c9c:	000073e8 	andeq	r7, r0, r8, ror #7
   10ca0:	000073d8 	ldrdeq	r7, [r0], -r8
   10ca4:	000073c8 	andeq	r7, r0, r8, asr #7
   10ca8:	000073b8 			; <UNDEFINED> instruction: 0x000073b8
   10cac:	000073a8 	andeq	r7, r0, r8, lsr #7
   10cb0:	00007398 	muleq	r0, r8, r3
   10cb4:	00007388 	andeq	r7, r0, r8, lsl #7
   10cb8:	00007378 	andeq	r7, r0, r8, ror r3
   10cbc:	00007368 	andeq	r7, r0, r8, ror #6
   10cc0:	000073bc 			; <UNDEFINED> instruction: 0x000073bc
   10cc4:	0000734c 	andeq	r7, r0, ip, asr #6
   10cc8:	0000732c 	andeq	r7, r0, ip, lsr #6
   10ccc:	0000731c 	andeq	r7, r0, ip, lsl r3
   10cd0:	0000730c 	andeq	r7, r0, ip, lsl #6
   10cd4:	000072fc 	strdeq	r7, [r0], -ip
   10cd8:	e51f23d4 	ldr	r2, [pc, #-980]	; 1090c <fonts_init+0x2c>
   10cdc:	e08f2002 	add	r2, pc, r2
   10ce0:	e51b3008 	ldr	r3, [fp, #-8]
   10ce4:	e3a01064 	mov	r1, #100	; 0x64
   10ce8:	e0030391 	mul	r3, r1, r3
   10cec:	e0822003 	add	r2, r2, r3
   10cf0:	e51f33e8 	ldr	r3, [pc, #-1000]	; 10910 <fonts_init+0x30>
   10cf4:	e08f3003 	add	r3, pc, r3
   10cf8:	e1a00002 	mov	r0, r2
   10cfc:	e1a01003 	mov	r1, r3
   10d00:	e3a03064 	mov	r3, #100	; 0x64
   10d04:	e1a02003 	mov	r2, r3
   10d08:	fa001294 	blx	15760 <memcpy>
   10d0c:	e51b3008 	ldr	r3, [fp, #-8]
   10d10:	e2833001 	add	r3, r3, #1
   10d14:	e50b3008 	str	r3, [fp, #-8]
   10d18:	e51b3008 	ldr	r3, [fp, #-8]
   10d1c:	e353007e 	cmp	r3, #126	; 0x7e
   10d20:	daffffec 	ble	10cd8 <fonts_init+0x3f8>
   10d24:	e51f3418 	ldr	r3, [pc, #-1048]	; 10914 <fonts_init+0x34>
   10d28:	e08f3003 	add	r3, pc, r3
   10d2c:	e3a02000 	mov	r2, #0
   10d30:	e5832000 	str	r2, [r3]
   10d34:	e51f3424 	ldr	r3, [pc, #-1060]	; 10918 <fonts_init+0x38>
   10d38:	e08f3003 	add	r3, pc, r3
   10d3c:	e51f2428 	ldr	r2, [pc, #-1064]	; 1091c <fonts_init+0x3c>
   10d40:	e08f2002 	add	r2, pc, r2
   10d44:	e2833d32 	add	r3, r3, #3200	; 0xc80
   10d48:	e1a01002 	mov	r1, r2
   10d4c:	e3a02064 	mov	r2, #100	; 0x64
   10d50:	e1a00003 	mov	r0, r3
   10d54:	fa001281 	blx	15760 <memcpy>
   10d58:	e51f3440 	ldr	r3, [pc, #-1088]	; 10920 <fonts_init+0x40>
   10d5c:	e08f3003 	add	r3, pc, r3
   10d60:	e3a02003 	mov	r2, #3
   10d64:	e5832000 	str	r2, [r3]
   10d68:	e51f344c 	ldr	r3, [pc, #-1100]	; 10924 <fonts_init+0x44>
   10d6c:	e08f3003 	add	r3, pc, r3
   10d70:	e3a02000 	mov	r2, #0
   10d74:	e5832004 	str	r2, [r3, #4]
   10d78:	e51f3458 	ldr	r3, [pc, #-1112]	; 10928 <fonts_init+0x48>
   10d7c:	e08f3003 	add	r3, pc, r3
   10d80:	e3a02000 	mov	r2, #0
   10d84:	e5832008 	str	r2, [r3, #8]
   10d88:	e51f3464 	ldr	r3, [pc, #-1124]	; 1092c <fonts_init+0x4c>
   10d8c:	e08f3003 	add	r3, pc, r3
   10d90:	e3a02002 	mov	r2, #2
   10d94:	e583200c 	str	r2, [r3, #12]
   10d98:	e51f3470 	ldr	r3, [pc, #-1136]	; 10930 <fonts_init+0x50>
   10d9c:	e08f3003 	add	r3, pc, r3
   10da0:	e3e02005 	mvn	r2, #5
   10da4:	e5832010 	str	r2, [r3, #16]
   10da8:	e51f347c 	ldr	r3, [pc, #-1148]	; 10934 <fonts_init+0x54>
   10dac:	e08f3003 	add	r3, pc, r3
   10db0:	e3a02002 	mov	r2, #2
   10db4:	e5832014 	str	r2, [r3, #20]
   10db8:	e51f3488 	ldr	r3, [pc, #-1160]	; 10938 <fonts_init+0x58>
   10dbc:	e08f3003 	add	r3, pc, r3
   10dc0:	e3e02005 	mvn	r2, #5
   10dc4:	e5832018 	str	r2, [r3, #24]
   10dc8:	e51f3494 	ldr	r3, [pc, #-1172]	; 1093c <fonts_init+0x5c>
   10dcc:	e08f3003 	add	r3, pc, r3
   10dd0:	e3a02004 	mov	r2, #4
   10dd4:	e583201c 	str	r2, [r3, #28]
   10dd8:	e51f34a0 	ldr	r3, [pc, #-1184]	; 10940 <fonts_init+0x60>
   10ddc:	e08f3003 	add	r3, pc, r3
   10de0:	e3a02000 	mov	r2, #0
   10de4:	e5832020 	str	r2, [r3, #32]
   10de8:	e51f34ac 	ldr	r3, [pc, #-1196]	; 10944 <fonts_init+0x64>
   10dec:	e08f3003 	add	r3, pc, r3
   10df0:	e3a02001 	mov	r2, #1
   10df4:	e5832024 	str	r2, [r3, #36]	; 0x24
   10df8:	e51f34b8 	ldr	r3, [pc, #-1208]	; 10948 <fonts_init+0x68>
   10dfc:	e08f3003 	add	r3, pc, r3
   10e00:	e3e02001 	mvn	r2, #1
   10e04:	e5832028 	str	r2, [r3, #40]	; 0x28
   10e08:	e51f34c4 	ldr	r3, [pc, #-1220]	; 1094c <fonts_init+0x6c>
   10e0c:	e08f3003 	add	r3, pc, r3
   10e10:	e3a02003 	mov	r2, #3
   10e14:	e583202c 	str	r2, [r3, #44]	; 0x2c
   10e18:	e51f34d0 	ldr	r3, [pc, #-1232]	; 10950 <fonts_init+0x70>
   10e1c:	e08f3003 	add	r3, pc, r3
   10e20:	e3e02001 	mvn	r2, #1
   10e24:	e5832030 	str	r2, [r3, #48]	; 0x30
   10e28:	e51f34dc 	ldr	r3, [pc, #-1244]	; 10954 <fonts_init+0x74>
   10e2c:	e08f3003 	add	r3, pc, r3
   10e30:	e2833a01 	add	r3, r3, #4096	; 0x1000
   10e34:	e51f24e4 	ldr	r2, [pc, #-1252]	; 10958 <fonts_init+0x78>
   10e38:	e08f2002 	add	r2, pc, r2
   10e3c:	e2833e96 	add	r3, r3, #2400	; 0x960
   10e40:	e2833004 	add	r3, r3, #4
   10e44:	e1a01002 	mov	r1, r2
   10e48:	e3a02064 	mov	r2, #100	; 0x64
   10e4c:	e1a00003 	mov	r0, r3
   10e50:	fa001242 	blx	15760 <memcpy>
   10e54:	e51f3500 	ldr	r3, [pc, #-1280]	; 1095c <fonts_init+0x7c>
   10e58:	e08f3003 	add	r3, pc, r3
   10e5c:	e3a02005 	mov	r2, #5
   10e60:	e5832000 	str	r2, [r3]
   10e64:	e51f350c 	ldr	r3, [pc, #-1292]	; 10960 <fonts_init+0x80>
   10e68:	e08f3003 	add	r3, pc, r3
   10e6c:	e3a02000 	mov	r2, #0
   10e70:	e5832004 	str	r2, [r3, #4]
   10e74:	e51f3518 	ldr	r3, [pc, #-1304]	; 10964 <fonts_init+0x84>
   10e78:	e08f3003 	add	r3, pc, r3
   10e7c:	e3a02000 	mov	r2, #0
   10e80:	e5832008 	str	r2, [r3, #8]
   10e84:	e51f3524 	ldr	r3, [pc, #-1316]	; 10968 <fonts_init+0x88>
   10e88:	e08f3003 	add	r3, pc, r3
   10e8c:	e3a02000 	mov	r2, #0
   10e90:	e583200c 	str	r2, [r3, #12]
   10e94:	e51f3530 	ldr	r3, [pc, #-1328]	; 1096c <fonts_init+0x8c>
   10e98:	e08f3003 	add	r3, pc, r3
   10e9c:	e3e02005 	mvn	r2, #5
   10ea0:	e5832010 	str	r2, [r3, #16]
   10ea4:	e51f353c 	ldr	r3, [pc, #-1340]	; 10970 <fonts_init+0x90>
   10ea8:	e08f3003 	add	r3, pc, r3
   10eac:	e3a02000 	mov	r2, #0
   10eb0:	e5832014 	str	r2, [r3, #20]
   10eb4:	e51f3548 	ldr	r3, [pc, #-1352]	; 10974 <fonts_init+0x94>
   10eb8:	e08f3003 	add	r3, pc, r3
   10ebc:	e3e02005 	mvn	r2, #5
   10ec0:	e5832018 	str	r2, [r3, #24]
   10ec4:	e51f3554 	ldr	r3, [pc, #-1364]	; 10978 <fonts_init+0x98>
   10ec8:	e08f3003 	add	r3, pc, r3
   10ecc:	e3a02004 	mov	r2, #4
   10ed0:	e583201c 	str	r2, [r3, #28]
   10ed4:	e51f3560 	ldr	r3, [pc, #-1376]	; 1097c <fonts_init+0x9c>
   10ed8:	e08f3003 	add	r3, pc, r3
   10edc:	e3e02003 	mvn	r2, #3
   10ee0:	e5832020 	str	r2, [r3, #32]
   10ee4:	e51f356c 	ldr	r3, [pc, #-1388]	; 10980 <fonts_init+0xa0>
   10ee8:	e08f3003 	add	r3, pc, r3
   10eec:	e3a02004 	mov	r2, #4
   10ef0:	e5832024 	str	r2, [r3, #36]	; 0x24
   10ef4:	e51f3578 	ldr	r3, [pc, #-1400]	; 10984 <fonts_init+0xa4>
   10ef8:	e08f3003 	add	r3, pc, r3
   10efc:	e3e02003 	mvn	r2, #3
   10f00:	e5832028 	str	r2, [r3, #40]	; 0x28
   10f04:	e51f3584 	ldr	r3, [pc, #-1412]	; 10988 <fonts_init+0xa8>
   10f08:	e08f3003 	add	r3, pc, r3
   10f0c:	e3a02000 	mov	r2, #0
   10f10:	e583202c 	str	r2, [r3, #44]	; 0x2c
   10f14:	e51f3590 	ldr	r3, [pc, #-1424]	; 1098c <fonts_init+0xac>
   10f18:	e08f3003 	add	r3, pc, r3
   10f1c:	e3e02002 	mvn	r2, #2
   10f20:	e5832030 	str	r2, [r3, #48]	; 0x30
   10f24:	e51f359c 	ldr	r3, [pc, #-1436]	; 10990 <fonts_init+0xb0>
   10f28:	e08f3003 	add	r3, pc, r3
   10f2c:	e3a02000 	mov	r2, #0
   10f30:	e5832034 	str	r2, [r3, #52]	; 0x34
   10f34:	e51f35a8 	ldr	r3, [pc, #-1448]	; 10994 <fonts_init+0xb4>
   10f38:	e08f3003 	add	r3, pc, r3
   10f3c:	e3e02002 	mvn	r2, #2
   10f40:	e5832038 	str	r2, [r3, #56]	; 0x38
   10f44:	e51f35b4 	ldr	r3, [pc, #-1460]	; 10998 <fonts_init+0xb8>
   10f48:	e08f3003 	add	r3, pc, r3
   10f4c:	e3a02004 	mov	r2, #4
   10f50:	e583203c 	str	r2, [r3, #60]	; 0x3c
   10f54:	e51f35c0 	ldr	r3, [pc, #-1472]	; 1099c <fonts_init+0xbc>
   10f58:	e08f3003 	add	r3, pc, r3
   10f5c:	e3e02001 	mvn	r2, #1
   10f60:	e5832040 	str	r2, [r3, #64]	; 0x40
   10f64:	e51f35cc 	ldr	r3, [pc, #-1484]	; 109a0 <fonts_init+0xc0>
   10f68:	e08f3003 	add	r3, pc, r3
   10f6c:	e3a02004 	mov	r2, #4
   10f70:	e5832044 	str	r2, [r3, #68]	; 0x44
   10f74:	e51f35d8 	ldr	r3, [pc, #-1496]	; 109a4 <fonts_init+0xc4>
   10f78:	e08f3003 	add	r3, pc, r3
   10f7c:	e3e02001 	mvn	r2, #1
   10f80:	e5832048 	str	r2, [r3, #72]	; 0x48
   10f84:	e51f35e4 	ldr	r3, [pc, #-1508]	; 109a8 <fonts_init+0xc8>
   10f88:	e08f3003 	add	r3, pc, r3
   10f8c:	e3a02000 	mov	r2, #0
   10f90:	e583204c 	str	r2, [r3, #76]	; 0x4c
   10f94:	e51f35f0 	ldr	r3, [pc, #-1520]	; 109ac <fonts_init+0xcc>
   10f98:	e08f3003 	add	r3, pc, r3
   10f9c:	e3a02000 	mov	r2, #0
   10fa0:	e5832050 	str	r2, [r3, #80]	; 0x50
   10fa4:	e51f35fc 	ldr	r3, [pc, #-1532]	; 109b0 <fonts_init+0xd0>
   10fa8:	e08f3003 	add	r3, pc, r3
   10fac:	e2833a01 	add	r3, r3, #4096	; 0x1000
   10fb0:	e51f2604 	ldr	r2, [pc, #-1540]	; 109b4 <fonts_init+0xd4>
   10fb4:	e08f2002 	add	r2, pc, r2
   10fb8:	e2833d27 	add	r3, r3, #2496	; 0x9c0
   10fbc:	e2833008 	add	r3, r3, #8
   10fc0:	e1a01002 	mov	r1, r2
   10fc4:	e3a02064 	mov	r2, #100	; 0x64
   10fc8:	e1a00003 	mov	r0, r3
   10fcc:	fa0011e3 	blx	15760 <memcpy>
   10fd0:	e51f3620 	ldr	r3, [pc, #-1568]	; 109b8 <fonts_init+0xd8>
   10fd4:	e08f3003 	add	r3, pc, r3
   10fd8:	e3a02003 	mov	r2, #3
   10fdc:	e5832000 	str	r2, [r3]
   10fe0:	e51f362c 	ldr	r3, [pc, #-1580]	; 109bc <fonts_init+0xdc>
   10fe4:	e08f3003 	add	r3, pc, r3
   10fe8:	e3a02000 	mov	r2, #0
   10fec:	e5832004 	str	r2, [r3, #4]
   10ff0:	e51f3638 	ldr	r3, [pc, #-1592]	; 109c0 <fonts_init+0xe0>
   10ff4:	e08f3003 	add	r3, pc, r3
   10ff8:	e3a02000 	mov	r2, #0
   10ffc:	e5832008 	str	r2, [r3, #8]
   11000:	e51f3644 	ldr	r3, [pc, #-1604]	; 109c4 <fonts_init+0xe4>
   11004:	e08f3003 	add	r3, pc, r3
   11008:	e3a02004 	mov	r2, #4
   1100c:	e583200c 	str	r2, [r3, #12]
   11010:	e51f3650 	ldr	r3, [pc, #-1616]	; 109c8 <fonts_init+0xe8>
   11014:	e08f3003 	add	r3, pc, r3
   11018:	e3a02000 	mov	r2, #0
   1101c:	e5832010 	str	r2, [r3, #16]
   11020:	e51f365c 	ldr	r3, [pc, #-1628]	; 109cc <fonts_init+0xec>
   11024:	e08f3003 	add	r3, pc, r3
   11028:	e3a02000 	mov	r2, #0
   1102c:	e5832014 	str	r2, [r3, #20]
   11030:	e51f3668 	ldr	r3, [pc, #-1640]	; 109d0 <fonts_init+0xf0>
   11034:	e08f3003 	add	r3, pc, r3
   11038:	e3e02005 	mvn	r2, #5
   1103c:	e5832018 	str	r2, [r3, #24]
   11040:	e51f3674 	ldr	r3, [pc, #-1652]	; 109d4 <fonts_init+0xf4>
   11044:	e08f3003 	add	r3, pc, r3
   11048:	e3a02004 	mov	r2, #4
   1104c:	e583201c 	str	r2, [r3, #28]
   11050:	e51f3680 	ldr	r3, [pc, #-1664]	; 109d8 <fonts_init+0xf8>
   11054:	e08f3003 	add	r3, pc, r3
   11058:	e3e02005 	mvn	r2, #5
   1105c:	e5832020 	str	r2, [r3, #32]
   11060:	e51f368c 	ldr	r3, [pc, #-1676]	; 109dc <fonts_init+0xfc>
   11064:	e08f3003 	add	r3, pc, r3
   11068:	e3a02000 	mov	r2, #0
   1106c:	e5832024 	str	r2, [r3, #36]	; 0x24
   11070:	e51f3698 	ldr	r3, [pc, #-1688]	; 109e0 <fonts_init+0x100>
   11074:	e08f3003 	add	r3, pc, r3
   11078:	e3e02005 	mvn	r2, #5
   1107c:	e5832028 	str	r2, [r3, #40]	; 0x28
   11080:	e51f36a4 	ldr	r3, [pc, #-1700]	; 109e4 <fonts_init+0x104>
   11084:	e08f3003 	add	r3, pc, r3
   11088:	e3a02000 	mov	r2, #0
   1108c:	e583202c 	str	r2, [r3, #44]	; 0x2c
   11090:	e51f36b0 	ldr	r3, [pc, #-1712]	; 109e8 <fonts_init+0x108>
   11094:	e08f3003 	add	r3, pc, r3
   11098:	e3a02000 	mov	r2, #0
   1109c:	e5832030 	str	r2, [r3, #48]	; 0x30
   110a0:	e51f36bc 	ldr	r3, [pc, #-1724]	; 109ec <fonts_init+0x10c>
   110a4:	e08f3003 	add	r3, pc, r3
   110a8:	e2833a01 	add	r3, r3, #4096	; 0x1000
   110ac:	e51f26c4 	ldr	r2, [pc, #-1732]	; 109f0 <fonts_init+0x110>
   110b0:	e08f2002 	add	r2, pc, r2
   110b4:	e2833ea2 	add	r3, r3, #2592	; 0xa20
   110b8:	e283300c 	add	r3, r3, #12
   110bc:	e1a01002 	mov	r1, r2
   110c0:	e3a02064 	mov	r2, #100	; 0x64
   110c4:	e1a00003 	mov	r0, r3
   110c8:	fa0011a4 	blx	15760 <memcpy>
   110cc:	e51f36e0 	ldr	r3, [pc, #-1760]	; 109f4 <fonts_init+0x114>
   110d0:	e08f3003 	add	r3, pc, r3
   110d4:	e3a02003 	mov	r2, #3
   110d8:	e5832000 	str	r2, [r3]
   110dc:	e51f36ec 	ldr	r3, [pc, #-1772]	; 109f8 <fonts_init+0x118>
   110e0:	e08f3003 	add	r3, pc, r3
   110e4:	e3a02000 	mov	r2, #0
   110e8:	e5832004 	str	r2, [r3, #4]
   110ec:	e51f36f8 	ldr	r3, [pc, #-1784]	; 109fc <fonts_init+0x11c>
   110f0:	e08f3003 	add	r3, pc, r3
   110f4:	e3a02000 	mov	r2, #0
   110f8:	e5832008 	str	r2, [r3, #8]
   110fc:	e51f3704 	ldr	r3, [pc, #-1796]	; 10a00 <fonts_init+0x120>
   11100:	e08f3003 	add	r3, pc, r3
   11104:	e3a02000 	mov	r2, #0
   11108:	e583200c 	str	r2, [r3, #12]
   1110c:	e51f3710 	ldr	r3, [pc, #-1808]	; 10a04 <fonts_init+0x124>
   11110:	e08f3003 	add	r3, pc, r3
   11114:	e3e02005 	mvn	r2, #5
   11118:	e5832010 	str	r2, [r3, #16]
   1111c:	e51f371c 	ldr	r3, [pc, #-1820]	; 10a08 <fonts_init+0x128>
   11120:	e08f3003 	add	r3, pc, r3
   11124:	e3a02000 	mov	r2, #0
   11128:	e5832014 	str	r2, [r3, #20]
   1112c:	e51f3728 	ldr	r3, [pc, #-1832]	; 10a0c <fonts_init+0x12c>
   11130:	e08f3003 	add	r3, pc, r3
   11134:	e3e02005 	mvn	r2, #5
   11138:	e5832018 	str	r2, [r3, #24]
   1113c:	e51f3734 	ldr	r3, [pc, #-1844]	; 10a10 <fonts_init+0x130>
   11140:	e08f3003 	add	r3, pc, r3
   11144:	e3a02004 	mov	r2, #4
   11148:	e583201c 	str	r2, [r3, #28]
   1114c:	e51f3740 	ldr	r3, [pc, #-1856]	; 10a14 <fonts_init+0x134>
   11150:	e08f3003 	add	r3, pc, r3
   11154:	e3e02002 	mvn	r2, #2
   11158:	e5832020 	str	r2, [r3, #32]
   1115c:	e51f374c 	ldr	r3, [pc, #-1868]	; 10a18 <fonts_init+0x138>
   11160:	e08f3003 	add	r3, pc, r3
   11164:	e3a02004 	mov	r2, #4
   11168:	e5832024 	str	r2, [r3, #36]	; 0x24
   1116c:	e51f3758 	ldr	r3, [pc, #-1880]	; 10a1c <fonts_init+0x13c>
   11170:	e08f3003 	add	r3, pc, r3
   11174:	e3e02002 	mvn	r2, #2
   11178:	e5832028 	str	r2, [r3, #40]	; 0x28
   1117c:	e51f3764 	ldr	r3, [pc, #-1892]	; 10a20 <fonts_init+0x140>
   11180:	e08f3003 	add	r3, pc, r3
   11184:	e3a02000 	mov	r2, #0
   11188:	e583202c 	str	r2, [r3, #44]	; 0x2c
   1118c:	e51f3770 	ldr	r3, [pc, #-1904]	; 10a24 <fonts_init+0x144>
   11190:	e08f3003 	add	r3, pc, r3
   11194:	e3a02000 	mov	r2, #0
   11198:	e5832030 	str	r2, [r3, #48]	; 0x30
   1119c:	e51f377c 	ldr	r3, [pc, #-1916]	; 10a28 <fonts_init+0x148>
   111a0:	e08f3003 	add	r3, pc, r3
   111a4:	e2833a01 	add	r3, r3, #4096	; 0x1000
   111a8:	e51f2784 	ldr	r2, [pc, #-1924]	; 10a2c <fonts_init+0x14c>
   111ac:	e08f2002 	add	r2, pc, r2
   111b0:	e2833ea9 	add	r3, r3, #2704	; 0xa90
   111b4:	e1a01002 	mov	r1, r2
   111b8:	e3a02064 	mov	r2, #100	; 0x64
   111bc:	e1a00003 	mov	r0, r3
   111c0:	fa001166 	blx	15760 <memcpy>
   111c4:	e51f379c 	ldr	r3, [pc, #-1948]	; 10a30 <fonts_init+0x150>
   111c8:	e08f3003 	add	r3, pc, r3
   111cc:	e3a02004 	mov	r2, #4
   111d0:	e5832000 	str	r2, [r3]
   111d4:	e51f37a8 	ldr	r3, [pc, #-1960]	; 10a34 <fonts_init+0x154>
   111d8:	e08f3003 	add	r3, pc, r3
   111dc:	e3a02000 	mov	r2, #0
   111e0:	e5832004 	str	r2, [r3, #4]
   111e4:	e51f37b4 	ldr	r3, [pc, #-1972]	; 10a38 <fonts_init+0x158>
   111e8:	e08f3003 	add	r3, pc, r3
   111ec:	e3a02000 	mov	r2, #0
   111f0:	e5832008 	str	r2, [r3, #8]
   111f4:	e51f37c0 	ldr	r3, [pc, #-1984]	; 10a3c <fonts_init+0x15c>
   111f8:	e08f3003 	add	r3, pc, r3
   111fc:	e3a02004 	mov	r2, #4
   11200:	e583200c 	str	r2, [r3, #12]
   11204:	e51f37cc 	ldr	r3, [pc, #-1996]	; 10a40 <fonts_init+0x160>
   11208:	e08f3003 	add	r3, pc, r3
   1120c:	e3a02000 	mov	r2, #0
   11210:	e5832010 	str	r2, [r3, #16]
   11214:	e51f37d8 	ldr	r3, [pc, #-2008]	; 10a44 <fonts_init+0x164>
   11218:	e08f3003 	add	r3, pc, r3
   1121c:	e3a02000 	mov	r2, #0
   11220:	e5832014 	str	r2, [r3, #20]
   11224:	e51f37e4 	ldr	r3, [pc, #-2020]	; 10a48 <fonts_init+0x168>
   11228:	e08f3003 	add	r3, pc, r3
   1122c:	e3e02005 	mvn	r2, #5
   11230:	e5832018 	str	r2, [r3, #24]
   11234:	e51f37f0 	ldr	r3, [pc, #-2032]	; 10a4c <fonts_init+0x16c>
   11238:	e08f3003 	add	r3, pc, r3
   1123c:	e3a02004 	mov	r2, #4
   11240:	e583201c 	str	r2, [r3, #28]
   11244:	e51f37fc 	ldr	r3, [pc, #-2044]	; 10a50 <fonts_init+0x170>
   11248:	e08f3003 	add	r3, pc, r3
   1124c:	e3e02005 	mvn	r2, #5
   11250:	e5832020 	str	r2, [r3, #32]
   11254:	e51f3808 	ldr	r3, [pc, #-2056]	; 10a54 <fonts_init+0x174>
   11258:	e08f3003 	add	r3, pc, r3
   1125c:	e3a02000 	mov	r2, #0
   11260:	e5832024 	str	r2, [r3, #36]	; 0x24
   11264:	e51f3814 	ldr	r3, [pc, #-2068]	; 10a58 <fonts_init+0x178>
   11268:	e08f3003 	add	r3, pc, r3
   1126c:	e3e02002 	mvn	r2, #2
   11270:	e5832028 	str	r2, [r3, #40]	; 0x28
   11274:	e51f3820 	ldr	r3, [pc, #-2080]	; 10a5c <fonts_init+0x17c>
   11278:	e08f3003 	add	r3, pc, r3
   1127c:	e3a02004 	mov	r2, #4
   11280:	e583202c 	str	r2, [r3, #44]	; 0x2c
   11284:	e51f382c 	ldr	r3, [pc, #-2092]	; 10a60 <fonts_init+0x180>
   11288:	e08f3003 	add	r3, pc, r3
   1128c:	e3e02002 	mvn	r2, #2
   11290:	e5832030 	str	r2, [r3, #48]	; 0x30
   11294:	e51f3838 	ldr	r3, [pc, #-2104]	; 10a64 <fonts_init+0x184>
   11298:	e08f3003 	add	r3, pc, r3
   1129c:	e3a02000 	mov	r2, #0
   112a0:	e5832034 	str	r2, [r3, #52]	; 0x34
   112a4:	e51f3844 	ldr	r3, [pc, #-2116]	; 10a68 <fonts_init+0x188>
   112a8:	e08f3003 	add	r3, pc, r3
   112ac:	e3e02005 	mvn	r2, #5
   112b0:	e5832038 	str	r2, [r3, #56]	; 0x38
   112b4:	e51f3850 	ldr	r3, [pc, #-2128]	; 10a6c <fonts_init+0x18c>
   112b8:	e08f3003 	add	r3, pc, r3
   112bc:	e3a02000 	mov	r2, #0
   112c0:	e583203c 	str	r2, [r3, #60]	; 0x3c
   112c4:	e51f385c 	ldr	r3, [pc, #-2140]	; 10a70 <fonts_init+0x190>
   112c8:	e08f3003 	add	r3, pc, r3
   112cc:	e3a02000 	mov	r2, #0
   112d0:	e5832040 	str	r2, [r3, #64]	; 0x40
   112d4:	e51f3868 	ldr	r3, [pc, #-2152]	; 10a74 <fonts_init+0x194>
   112d8:	e08f3003 	add	r3, pc, r3
   112dc:	e2833a01 	add	r3, r3, #4096	; 0x1000
   112e0:	e51f2870 	ldr	r2, [pc, #-2160]	; 10a78 <fonts_init+0x198>
   112e4:	e08f2002 	add	r2, pc, r2
   112e8:	e2833eaf 	add	r3, r3, #2800	; 0xaf0
   112ec:	e2833004 	add	r3, r3, #4
   112f0:	e1a01002 	mov	r1, r2
   112f4:	e3a02064 	mov	r2, #100	; 0x64
   112f8:	e1a00003 	mov	r0, r3
   112fc:	fa001117 	blx	15760 <memcpy>
   11300:	e51f388c 	ldr	r3, [pc, #-2188]	; 10a7c <fonts_init+0x19c>
   11304:	e08f3003 	add	r3, pc, r3
   11308:	e3a02003 	mov	r2, #3
   1130c:	e5832000 	str	r2, [r3]
   11310:	e51f3898 	ldr	r3, [pc, #-2200]	; 10a80 <fonts_init+0x1a0>
   11314:	e08f3003 	add	r3, pc, r3
   11318:	e3a02000 	mov	r2, #0
   1131c:	e5832004 	str	r2, [r3, #4]
   11320:	e51f38a4 	ldr	r3, [pc, #-2212]	; 10a84 <fonts_init+0x1a4>
   11324:	e08f3003 	add	r3, pc, r3
   11328:	e3e02005 	mvn	r2, #5
   1132c:	e5832008 	str	r2, [r3, #8]
   11330:	e51f38b0 	ldr	r3, [pc, #-2224]	; 10a88 <fonts_init+0x1a8>
   11334:	e08f3003 	add	r3, pc, r3
   11338:	e3a02004 	mov	r2, #4
   1133c:	e583200c 	str	r2, [r3, #12]
   11340:	e51f38bc 	ldr	r3, [pc, #-2236]	; 10a8c <fonts_init+0x1ac>
   11344:	e08f3003 	add	r3, pc, r3
   11348:	e3e02005 	mvn	r2, #5
   1134c:	e5832010 	str	r2, [r3, #16]
   11350:	e51f38c8 	ldr	r3, [pc, #-2248]	; 10a90 <fonts_init+0x1b0>
   11354:	e08f3003 	add	r3, pc, r3
   11358:	e3a02000 	mov	r2, #0
   1135c:	e5832014 	str	r2, [r3, #20]
   11360:	e51f38d4 	ldr	r3, [pc, #-2260]	; 10a94 <fonts_init+0x1b4>
   11364:	e08f3003 	add	r3, pc, r3
   11368:	e3e02002 	mvn	r2, #2
   1136c:	e5832018 	str	r2, [r3, #24]
   11370:	e51f38e0 	ldr	r3, [pc, #-2272]	; 10a98 <fonts_init+0x1b8>
   11374:	e08f3003 	add	r3, pc, r3
   11378:	e3a02004 	mov	r2, #4
   1137c:	e583201c 	str	r2, [r3, #28]
   11380:	e51f38ec 	ldr	r3, [pc, #-2284]	; 10a9c <fonts_init+0x1bc>
   11384:	e08f3003 	add	r3, pc, r3
   11388:	e3e02002 	mvn	r2, #2
   1138c:	e5832020 	str	r2, [r3, #32]
   11390:	e51f38f8 	ldr	r3, [pc, #-2296]	; 10aa0 <fonts_init+0x1c0>
   11394:	e08f3003 	add	r3, pc, r3
   11398:	e3a02000 	mov	r2, #0
   1139c:	e5832024 	str	r2, [r3, #36]	; 0x24
   113a0:	e51f3904 	ldr	r3, [pc, #-2308]	; 10aa4 <fonts_init+0x1c4>
   113a4:	e08f3003 	add	r3, pc, r3
   113a8:	e3e02005 	mvn	r2, #5
   113ac:	e5832028 	str	r2, [r3, #40]	; 0x28
   113b0:	e51f3910 	ldr	r3, [pc, #-2320]	; 10aa8 <fonts_init+0x1c8>
   113b4:	e08f3003 	add	r3, pc, r3
   113b8:	e3a02000 	mov	r2, #0
   113bc:	e583202c 	str	r2, [r3, #44]	; 0x2c
   113c0:	e51f391c 	ldr	r3, [pc, #-2332]	; 10aac <fonts_init+0x1cc>
   113c4:	e08f3003 	add	r3, pc, r3
   113c8:	e3a02000 	mov	r2, #0
   113cc:	e5832030 	str	r2, [r3, #48]	; 0x30
   113d0:	e51f3928 	ldr	r3, [pc, #-2344]	; 10ab0 <fonts_init+0x1d0>
   113d4:	e08f3003 	add	r3, pc, r3
   113d8:	e2833a01 	add	r3, r3, #4096	; 0x1000
   113dc:	e51f2930 	ldr	r2, [pc, #-2352]	; 10ab4 <fonts_init+0x1d4>
   113e0:	e08f2002 	add	r2, pc, r2
   113e4:	e2833eb5 	add	r3, r3, #2896	; 0xb50
   113e8:	e2833008 	add	r3, r3, #8
   113ec:	e1a01002 	mov	r1, r2
   113f0:	e3a02064 	mov	r2, #100	; 0x64
   113f4:	e1a00003 	mov	r0, r3
   113f8:	fa0010d8 	blx	15760 <memcpy>
   113fc:	e51f394c 	ldr	r3, [pc, #-2380]	; 10ab8 <fonts_init+0x1d8>
   11400:	e08f3003 	add	r3, pc, r3
   11404:	e3a02005 	mov	r2, #5
   11408:	e5832000 	str	r2, [r3]
   1140c:	e51f3958 	ldr	r3, [pc, #-2392]	; 10abc <fonts_init+0x1dc>
   11410:	e08f3003 	add	r3, pc, r3
   11414:	e3a02000 	mov	r2, #0
   11418:	e5832004 	str	r2, [r3, #4]
   1141c:	e51f3964 	ldr	r3, [pc, #-2404]	; 10ac0 <fonts_init+0x1e0>
   11420:	e08f3003 	add	r3, pc, r3
   11424:	e3a02000 	mov	r2, #0
   11428:	e5832008 	str	r2, [r3, #8]
   1142c:	e51f3970 	ldr	r3, [pc, #-2416]	; 10ac4 <fonts_init+0x1e4>
   11430:	e08f3003 	add	r3, pc, r3
   11434:	e3a02004 	mov	r2, #4
   11438:	e583200c 	str	r2, [r3, #12]
   1143c:	e51f397c 	ldr	r3, [pc, #-2428]	; 10ac8 <fonts_init+0x1e8>
   11440:	e08f3003 	add	r3, pc, r3
   11444:	e3a02000 	mov	r2, #0
   11448:	e5832010 	str	r2, [r3, #16]
   1144c:	e51f3988 	ldr	r3, [pc, #-2440]	; 10acc <fonts_init+0x1ec>
   11450:	e08f3003 	add	r3, pc, r3
   11454:	e3a02000 	mov	r2, #0
   11458:	e5832014 	str	r2, [r3, #20]
   1145c:	e51f3994 	ldr	r3, [pc, #-2452]	; 10ad0 <fonts_init+0x1f0>
   11460:	e08f3003 	add	r3, pc, r3
   11464:	e3e02005 	mvn	r2, #5
   11468:	e5832018 	str	r2, [r3, #24]
   1146c:	e51f39a0 	ldr	r3, [pc, #-2464]	; 10ad4 <fonts_init+0x1f4>
   11470:	e08f3003 	add	r3, pc, r3
   11474:	e3a02004 	mov	r2, #4
   11478:	e583201c 	str	r2, [r3, #28]
   1147c:	e51f39ac 	ldr	r3, [pc, #-2476]	; 10ad8 <fonts_init+0x1f8>
   11480:	e08f3003 	add	r3, pc, r3
   11484:	e3e02005 	mvn	r2, #5
   11488:	e5832020 	str	r2, [r3, #32]
   1148c:	e51f39b8 	ldr	r3, [pc, #-2488]	; 10adc <fonts_init+0x1fc>
   11490:	e08f3003 	add	r3, pc, r3
   11494:	e3a02000 	mov	r2, #0
   11498:	e5832024 	str	r2, [r3, #36]	; 0x24
   1149c:	e51f39c4 	ldr	r3, [pc, #-2500]	; 10ae0 <fonts_init+0x200>
   114a0:	e08f3003 	add	r3, pc, r3
   114a4:	e3e02002 	mvn	r2, #2
   114a8:	e5832028 	str	r2, [r3, #40]	; 0x28
   114ac:	e51f39d0 	ldr	r3, [pc, #-2512]	; 10ae4 <fonts_init+0x204>
   114b0:	e08f3003 	add	r3, pc, r3
   114b4:	e3a02004 	mov	r2, #4
   114b8:	e583202c 	str	r2, [r3, #44]	; 0x2c
   114bc:	e51f39dc 	ldr	r3, [pc, #-2524]	; 10ae8 <fonts_init+0x208>
   114c0:	e08f3003 	add	r3, pc, r3
   114c4:	e3e02002 	mvn	r2, #2
   114c8:	e5832030 	str	r2, [r3, #48]	; 0x30
   114cc:	e51f39e8 	ldr	r3, [pc, #-2536]	; 10aec <fonts_init+0x20c>
   114d0:	e08f3003 	add	r3, pc, r3
   114d4:	e3a02000 	mov	r2, #0
   114d8:	e5832034 	str	r2, [r3, #52]	; 0x34
   114dc:	e51f39f4 	ldr	r3, [pc, #-2548]	; 10af0 <fonts_init+0x210>
   114e0:	e08f3003 	add	r3, pc, r3
   114e4:	e3e02005 	mvn	r2, #5
   114e8:	e5832038 	str	r2, [r3, #56]	; 0x38
   114ec:	e51f3a00 	ldr	r3, [pc, #-2560]	; 10af4 <fonts_init+0x214>
   114f0:	e08f3003 	add	r3, pc, r3
   114f4:	e3a02000 	mov	r2, #0
   114f8:	e583203c 	str	r2, [r3, #60]	; 0x3c
   114fc:	e51f3a0c 	ldr	r3, [pc, #-2572]	; 10af8 <fonts_init+0x218>
   11500:	e08f3003 	add	r3, pc, r3
   11504:	e3a02000 	mov	r2, #0
   11508:	e5832040 	str	r2, [r3, #64]	; 0x40
   1150c:	e51f3a18 	ldr	r3, [pc, #-2584]	; 10afc <fonts_init+0x21c>
   11510:	e08f3003 	add	r3, pc, r3
   11514:	e3a02004 	mov	r2, #4
   11518:	e5832044 	str	r2, [r3, #68]	; 0x44
   1151c:	e51f3a24 	ldr	r3, [pc, #-2596]	; 10b00 <fonts_init+0x220>
   11520:	e08f3003 	add	r3, pc, r3
   11524:	e3a02000 	mov	r2, #0
   11528:	e5832048 	str	r2, [r3, #72]	; 0x48
   1152c:	e51f3a30 	ldr	r3, [pc, #-2608]	; 10b04 <fonts_init+0x224>
   11530:	e08f3003 	add	r3, pc, r3
   11534:	e3a02004 	mov	r2, #4
   11538:	e583204c 	str	r2, [r3, #76]	; 0x4c
   1153c:	e51f3a3c 	ldr	r3, [pc, #-2620]	; 10b08 <fonts_init+0x228>
   11540:	e08f3003 	add	r3, pc, r3
   11544:	e3e02002 	mvn	r2, #2
   11548:	e5832050 	str	r2, [r3, #80]	; 0x50
   1154c:	e51f3a48 	ldr	r3, [pc, #-2632]	; 10b0c <fonts_init+0x22c>
   11550:	e08f3003 	add	r3, pc, r3
   11554:	e2833a01 	add	r3, r3, #4096	; 0x1000
   11558:	e51f2a50 	ldr	r2, [pc, #-2640]	; 10b10 <fonts_init+0x230>
   1155c:	e08f2002 	add	r2, pc, r2
   11560:	e2833ebb 	add	r3, r3, #2992	; 0xbb0
   11564:	e283300c 	add	r3, r3, #12
   11568:	e1a01002 	mov	r1, r2
   1156c:	e3a02064 	mov	r2, #100	; 0x64
   11570:	e1a00003 	mov	r0, r3
   11574:	fa001079 	blx	15760 <memcpy>
   11578:	e51f3a6c 	ldr	r3, [pc, #-2668]	; 10b14 <fonts_init+0x234>
   1157c:	e08f3003 	add	r3, pc, r3
   11580:	e3a02003 	mov	r2, #3
   11584:	e5832000 	str	r2, [r3]
   11588:	e51f3a78 	ldr	r3, [pc, #-2680]	; 10b18 <fonts_init+0x238>
   1158c:	e08f3003 	add	r3, pc, r3
   11590:	e3a02000 	mov	r2, #0
   11594:	e5832004 	str	r2, [r3, #4]
   11598:	e51f3a84 	ldr	r3, [pc, #-2692]	; 10b1c <fonts_init+0x23c>
   1159c:	e08f3003 	add	r3, pc, r3
   115a0:	e3a02000 	mov	r2, #0
   115a4:	e5832008 	str	r2, [r3, #8]
   115a8:	e51f3a90 	ldr	r3, [pc, #-2704]	; 10b20 <fonts_init+0x240>
   115ac:	e08f3003 	add	r3, pc, r3
   115b0:	e3a02000 	mov	r2, #0
   115b4:	e583200c 	str	r2, [r3, #12]
   115b8:	e51f3a9c 	ldr	r3, [pc, #-2716]	; 10b24 <fonts_init+0x244>
   115bc:	e08f3003 	add	r3, pc, r3
   115c0:	e3e02005 	mvn	r2, #5
   115c4:	e5832010 	str	r2, [r3, #16]
   115c8:	e51f3aa8 	ldr	r3, [pc, #-2728]	; 10b28 <fonts_init+0x248>
   115cc:	e08f3003 	add	r3, pc, r3
   115d0:	e3a02004 	mov	r2, #4
   115d4:	e5832014 	str	r2, [r3, #20]
   115d8:	e51f3ab4 	ldr	r3, [pc, #-2740]	; 10b2c <fonts_init+0x24c>
   115dc:	e08f3003 	add	r3, pc, r3
   115e0:	e3e02005 	mvn	r2, #5
   115e4:	e5832018 	str	r2, [r3, #24]
   115e8:	e51f3ac0 	ldr	r3, [pc, #-2752]	; 10b30 <fonts_init+0x250>
   115ec:	e08f3003 	add	r3, pc, r3
   115f0:	e3a02004 	mov	r2, #4
   115f4:	e583201c 	str	r2, [r3, #28]
   115f8:	e51f3acc 	ldr	r3, [pc, #-2764]	; 10b34 <fonts_init+0x254>
   115fc:	e08f3003 	add	r3, pc, r3
   11600:	e3a02000 	mov	r2, #0
   11604:	e5832020 	str	r2, [r3, #32]
   11608:	e51f3ad8 	ldr	r3, [pc, #-2776]	; 10b38 <fonts_init+0x258>
   1160c:	e08f3003 	add	r3, pc, r3
   11610:	e3a02000 	mov	r2, #0
   11614:	e5832024 	str	r2, [r3, #36]	; 0x24
   11618:	e51f3ae4 	ldr	r3, [pc, #-2788]	; 10b3c <fonts_init+0x25c>
   1161c:	e08f3003 	add	r3, pc, r3
   11620:	e3e02002 	mvn	r2, #2
   11624:	e5832028 	str	r2, [r3, #40]	; 0x28
   11628:	e51f3af0 	ldr	r3, [pc, #-2800]	; 10b40 <fonts_init+0x260>
   1162c:	e08f3003 	add	r3, pc, r3
   11630:	e3a02004 	mov	r2, #4
   11634:	e583202c 	str	r2, [r3, #44]	; 0x2c
   11638:	e51f3afc 	ldr	r3, [pc, #-2812]	; 10b44 <fonts_init+0x264>
   1163c:	e08f3003 	add	r3, pc, r3
   11640:	e3e02002 	mvn	r2, #2
   11644:	e5832030 	str	r2, [r3, #48]	; 0x30
   11648:	e51f3b08 	ldr	r3, [pc, #-2824]	; 10b48 <fonts_init+0x268>
   1164c:	e08f3003 	add	r3, pc, r3
   11650:	e2833a01 	add	r3, r3, #4096	; 0x1000
   11654:	e51f2b10 	ldr	r2, [pc, #-2832]	; 10b4c <fonts_init+0x26c>
   11658:	e08f2002 	add	r2, pc, r2
   1165c:	e2833ec2 	add	r3, r3, #3104	; 0xc20
   11660:	e1a01002 	mov	r1, r2
   11664:	e3a02064 	mov	r2, #100	; 0x64
   11668:	e1a00003 	mov	r0, r3
   1166c:	fa00103b 	blx	15760 <memcpy>
   11670:	e51f3b28 	ldr	r3, [pc, #-2856]	; 10b50 <fonts_init+0x270>
   11674:	e08f3003 	add	r3, pc, r3
   11678:	e3a02003 	mov	r2, #3
   1167c:	e5832000 	str	r2, [r3]
   11680:	e51f3b34 	ldr	r3, [pc, #-2868]	; 10b54 <fonts_init+0x274>
   11684:	e08f3003 	add	r3, pc, r3
   11688:	e3a02000 	mov	r2, #0
   1168c:	e5832004 	str	r2, [r3, #4]
   11690:	e51f3b40 	ldr	r3, [pc, #-2880]	; 10b58 <fonts_init+0x278>
   11694:	e08f3003 	add	r3, pc, r3
   11698:	e3a02000 	mov	r2, #0
   1169c:	e5832008 	str	r2, [r3, #8]
   116a0:	e51f3b4c 	ldr	r3, [pc, #-2892]	; 10b5c <fonts_init+0x27c>
   116a4:	e08f3003 	add	r3, pc, r3
   116a8:	e3a02004 	mov	r2, #4
   116ac:	e583200c 	str	r2, [r3, #12]
   116b0:	e51f3b58 	ldr	r3, [pc, #-2904]	; 10b60 <fonts_init+0x280>
   116b4:	e08f3003 	add	r3, pc, r3
   116b8:	e3a02000 	mov	r2, #0
   116bc:	e5832010 	str	r2, [r3, #16]
   116c0:	e51f3b64 	ldr	r3, [pc, #-2916]	; 10b64 <fonts_init+0x284>
   116c4:	e08f3003 	add	r3, pc, r3
   116c8:	e3a02000 	mov	r2, #0
   116cc:	e5832014 	str	r2, [r3, #20]
   116d0:	e51f3b70 	ldr	r3, [pc, #-2928]	; 10b68 <fonts_init+0x288>
   116d4:	e08f3003 	add	r3, pc, r3
   116d8:	e3e02005 	mvn	r2, #5
   116dc:	e5832018 	str	r2, [r3, #24]
   116e0:	e51f3b7c 	ldr	r3, [pc, #-2940]	; 10b6c <fonts_init+0x28c>
   116e4:	e08f3003 	add	r3, pc, r3
   116e8:	e3a02004 	mov	r2, #4
   116ec:	e583201c 	str	r2, [r3, #28]
   116f0:	e51f3b88 	ldr	r3, [pc, #-2952]	; 10b70 <fonts_init+0x290>
   116f4:	e08f3003 	add	r3, pc, r3
   116f8:	e3e02005 	mvn	r2, #5
   116fc:	e5832020 	str	r2, [r3, #32]
   11700:	e51f3b94 	ldr	r3, [pc, #-2964]	; 10b74 <fonts_init+0x294>
   11704:	e08f3003 	add	r3, pc, r3
   11708:	e3a02002 	mov	r2, #2
   1170c:	e5832024 	str	r2, [r3, #36]	; 0x24
   11710:	e51f3ba0 	ldr	r3, [pc, #-2976]	; 10b78 <fonts_init+0x298>
   11714:	e08f3003 	add	r3, pc, r3
   11718:	e3e02005 	mvn	r2, #5
   1171c:	e5832028 	str	r2, [r3, #40]	; 0x28
   11720:	e51f3bac 	ldr	r3, [pc, #-2988]	; 10b7c <fonts_init+0x29c>
   11724:	e08f3003 	add	r3, pc, r3
   11728:	e3a02002 	mov	r2, #2
   1172c:	e583202c 	str	r2, [r3, #44]	; 0x2c
   11730:	e51f3bb8 	ldr	r3, [pc, #-3000]	; 10b80 <fonts_init+0x2a0>
   11734:	e08f3003 	add	r3, pc, r3
   11738:	e3a02000 	mov	r2, #0
   1173c:	e5832030 	str	r2, [r3, #48]	; 0x30
   11740:	e51f3bc4 	ldr	r3, [pc, #-3012]	; 10b84 <fonts_init+0x2a4>
   11744:	e08f3003 	add	r3, pc, r3
   11748:	e2833a01 	add	r3, r3, #4096	; 0x1000
   1174c:	e51f2bcc 	ldr	r2, [pc, #-3020]	; 10b88 <fonts_init+0x2a8>
   11750:	e08f2002 	add	r2, pc, r2
   11754:	e2833d32 	add	r3, r3, #3200	; 0xc80
   11758:	e2833004 	add	r3, r3, #4
   1175c:	e1a01002 	mov	r1, r2
   11760:	e3a02064 	mov	r2, #100	; 0x64
   11764:	e1a00003 	mov	r0, r3
   11768:	fa000ffc 	blx	15760 <memcpy>
   1176c:	e51f3be8 	ldr	r3, [pc, #-3048]	; 10b8c <fonts_init+0x2ac>
   11770:	e08f3003 	add	r3, pc, r3
   11774:	e3a02003 	mov	r2, #3
   11778:	e5832000 	str	r2, [r3]
   1177c:	e51f3bf4 	ldr	r3, [pc, #-3060]	; 10b90 <fonts_init+0x2b0>
   11780:	e08f3003 	add	r3, pc, r3
   11784:	e3a02000 	mov	r2, #0
   11788:	e5832004 	str	r2, [r3, #4]
   1178c:	e51f3c00 	ldr	r3, [pc, #-3072]	; 10b94 <fonts_init+0x2b4>
   11790:	e08f3003 	add	r3, pc, r3
   11794:	e3a02000 	mov	r2, #0
   11798:	e5832008 	str	r2, [r3, #8]
   1179c:	e51f3c0c 	ldr	r3, [pc, #-3084]	; 10b98 <fonts_init+0x2b8>
   117a0:	e08f3003 	add	r3, pc, r3
   117a4:	e3a02000 	mov	r2, #0
   117a8:	e583200c 	str	r2, [r3, #12]
   117ac:	e51f3c18 	ldr	r3, [pc, #-3096]	; 10b9c <fonts_init+0x2bc>
   117b0:	e08f3003 	add	r3, pc, r3
   117b4:	e3e02005 	mvn	r2, #5
   117b8:	e5832010 	str	r2, [r3, #16]
   117bc:	e51f3c24 	ldr	r3, [pc, #-3108]	; 10ba0 <fonts_init+0x2c0>
   117c0:	e08f3003 	add	r3, pc, r3
   117c4:	e3a02000 	mov	r2, #0
   117c8:	e5832014 	str	r2, [r3, #20]
   117cc:	e51f3c30 	ldr	r3, [pc, #-3120]	; 10ba4 <fonts_init+0x2c4>
   117d0:	e08f3003 	add	r3, pc, r3
   117d4:	e3e02002 	mvn	r2, #2
   117d8:	e5832018 	str	r2, [r3, #24]
   117dc:	e51f3c3c 	ldr	r3, [pc, #-3132]	; 10ba8 <fonts_init+0x2c8>
   117e0:	e08f3003 	add	r3, pc, r3
   117e4:	e3a02004 	mov	r2, #4
   117e8:	e583201c 	str	r2, [r3, #28]
   117ec:	e51f3c48 	ldr	r3, [pc, #-3144]	; 10bac <fonts_init+0x2cc>
   117f0:	e08f3003 	add	r3, pc, r3
   117f4:	e3e02005 	mvn	r2, #5
   117f8:	e5832020 	str	r2, [r3, #32]
   117fc:	e51f3c54 	ldr	r3, [pc, #-3156]	; 10bb0 <fonts_init+0x2d0>
   11800:	e08f3003 	add	r3, pc, r3
   11804:	e3a02000 	mov	r2, #0
   11808:	e5832024 	str	r2, [r3, #36]	; 0x24
   1180c:	e51f3c60 	ldr	r3, [pc, #-3168]	; 10bb4 <fonts_init+0x2d4>
   11810:	e08f3003 	add	r3, pc, r3
   11814:	e3e02002 	mvn	r2, #2
   11818:	e5832028 	str	r2, [r3, #40]	; 0x28
   1181c:	e51f3c6c 	ldr	r3, [pc, #-3180]	; 10bb8 <fonts_init+0x2d8>
   11820:	e08f3003 	add	r3, pc, r3
   11824:	e3a02004 	mov	r2, #4
   11828:	e583202c 	str	r2, [r3, #44]	; 0x2c
   1182c:	e51f3c78 	ldr	r3, [pc, #-3192]	; 10bbc <fonts_init+0x2dc>
   11830:	e08f3003 	add	r3, pc, r3
   11834:	e3a02000 	mov	r2, #0
   11838:	e5832030 	str	r2, [r3, #48]	; 0x30
   1183c:	e51f3c84 	ldr	r3, [pc, #-3204]	; 10bc0 <fonts_init+0x2e0>
   11840:	e08f3003 	add	r3, pc, r3
   11844:	e2833a01 	add	r3, r3, #4096	; 0x1000
   11848:	e51f2c8c 	ldr	r2, [pc, #-3212]	; 10bc4 <fonts_init+0x2e4>
   1184c:	e08f2002 	add	r2, pc, r2
   11850:	e2833d35 	add	r3, r3, #3392	; 0xd40
   11854:	e283300c 	add	r3, r3, #12
   11858:	e1a01002 	mov	r1, r2
   1185c:	e3a02064 	mov	r2, #100	; 0x64
   11860:	e1a00003 	mov	r0, r3
   11864:	fa000fbd 	blx	15760 <memcpy>
   11868:	e51f3ca8 	ldr	r3, [pc, #-3240]	; 10bc8 <fonts_init+0x2e8>
   1186c:	e08f3003 	add	r3, pc, r3
   11870:	e3a02002 	mov	r2, #2
   11874:	e5832000 	str	r2, [r3]
   11878:	e51f3cb4 	ldr	r3, [pc, #-3252]	; 10bcc <fonts_init+0x2ec>
   1187c:	e08f3003 	add	r3, pc, r3
   11880:	e3a02000 	mov	r2, #0
   11884:	e5832004 	str	r2, [r3, #4]
   11888:	e51f3cc0 	ldr	r3, [pc, #-3264]	; 10bd0 <fonts_init+0x2f0>
   1188c:	e08f3003 	add	r3, pc, r3
   11890:	e3a02000 	mov	r2, #0
   11894:	e5832008 	str	r2, [r3, #8]
   11898:	e51f3ccc 	ldr	r3, [pc, #-3276]	; 10bd4 <fonts_init+0x2f4>
   1189c:	e08f3003 	add	r3, pc, r3
   118a0:	e3a02004 	mov	r2, #4
   118a4:	e583200c 	str	r2, [r3, #12]
   118a8:	e51f3cd8 	ldr	r3, [pc, #-3288]	; 10bd8 <fonts_init+0x2f8>
   118ac:	e08f3003 	add	r3, pc, r3
   118b0:	e3a02000 	mov	r2, #0
   118b4:	e5832010 	str	r2, [r3, #16]
   118b8:	e51f3ce4 	ldr	r3, [pc, #-3300]	; 10bdc <fonts_init+0x2fc>
   118bc:	e08f3003 	add	r3, pc, r3
   118c0:	e3a02000 	mov	r2, #0
   118c4:	e5832014 	str	r2, [r3, #20]
   118c8:	e51f3cf0 	ldr	r3, [pc, #-3312]	; 10be0 <fonts_init+0x300>
   118cc:	e08f3003 	add	r3, pc, r3
   118d0:	e3e02005 	mvn	r2, #5
   118d4:	e5832018 	str	r2, [r3, #24]
   118d8:	e51f3cfc 	ldr	r3, [pc, #-3324]	; 10be4 <fonts_init+0x304>
   118dc:	e08f3003 	add	r3, pc, r3
   118e0:	e3a02000 	mov	r2, #0
   118e4:	e583201c 	str	r2, [r3, #28]
   118e8:	e51f3d08 	ldr	r3, [pc, #-3336]	; 10be8 <fonts_init+0x308>
   118ec:	e08f3003 	add	r3, pc, r3
   118f0:	e3a02000 	mov	r2, #0
   118f4:	e5832020 	str	r2, [r3, #32]
   118f8:	e51f3d14 	ldr	r3, [pc, #-3348]	; 10bec <fonts_init+0x30c>
   118fc:	e08f3003 	add	r3, pc, r3
   11900:	e2833a01 	add	r3, r3, #4096	; 0x1000
   11904:	e51f2d1c 	ldr	r2, [pc, #-3356]	; 10bf0 <fonts_init+0x310>
   11908:	e08f2002 	add	r2, pc, r2
   1190c:	e2833edb 	add	r3, r3, #3504	; 0xdb0
   11910:	e1a01002 	mov	r1, r2
   11914:	e3a02064 	mov	r2, #100	; 0x64
   11918:	e1a00003 	mov	r0, r3
   1191c:	fa000f8f 	blx	15760 <memcpy>
   11920:	e51f3d34 	ldr	r3, [pc, #-3380]	; 10bf4 <fonts_init+0x314>
   11924:	e08f3003 	add	r3, pc, r3
   11928:	e3a02004 	mov	r2, #4
   1192c:	e5832000 	str	r2, [r3]
   11930:	e51f3d40 	ldr	r3, [pc, #-3392]	; 10bf8 <fonts_init+0x318>
   11934:	e08f3003 	add	r3, pc, r3
   11938:	e3a02000 	mov	r2, #0
   1193c:	e5832004 	str	r2, [r3, #4]
   11940:	e51f3d4c 	ldr	r3, [pc, #-3404]	; 10bfc <fonts_init+0x31c>
   11944:	e08f3003 	add	r3, pc, r3
   11948:	e3e02005 	mvn	r2, #5
   1194c:	e5832008 	str	r2, [r3, #8]
   11950:	e51f3d58 	ldr	r3, [pc, #-3416]	; 10c00 <fonts_init+0x320>
   11954:	e08f3003 	add	r3, pc, r3
   11958:	e3a02000 	mov	r2, #0
   1195c:	e583200c 	str	r2, [r3, #12]
   11960:	e51f3d64 	ldr	r3, [pc, #-3428]	; 10c04 <fonts_init+0x324>
   11964:	e08f3003 	add	r3, pc, r3
   11968:	e3a02000 	mov	r2, #0
   1196c:	e5832010 	str	r2, [r3, #16]
   11970:	e51f3d70 	ldr	r3, [pc, #-3440]	; 10c08 <fonts_init+0x328>
   11974:	e08f3003 	add	r3, pc, r3
   11978:	e3a02000 	mov	r2, #0
   1197c:	e5832014 	str	r2, [r3, #20]
   11980:	e51f3d7c 	ldr	r3, [pc, #-3452]	; 10c0c <fonts_init+0x32c>
   11984:	e08f3003 	add	r3, pc, r3
   11988:	e3e02005 	mvn	r2, #5
   1198c:	e5832018 	str	r2, [r3, #24]
   11990:	e51f3d88 	ldr	r3, [pc, #-3464]	; 10c10 <fonts_init+0x330>
   11994:	e08f3003 	add	r3, pc, r3
   11998:	e3a02002 	mov	r2, #2
   1199c:	e583201c 	str	r2, [r3, #28]
   119a0:	e51f3d94 	ldr	r3, [pc, #-3476]	; 10c14 <fonts_init+0x334>
   119a4:	e08f3003 	add	r3, pc, r3
   119a8:	e3e02000 	mvn	r2, #0
   119ac:	e5832020 	str	r2, [r3, #32]
   119b0:	e51f3da0 	ldr	r3, [pc, #-3488]	; 10c18 <fonts_init+0x338>
   119b4:	e08f3003 	add	r3, pc, r3
   119b8:	e3a02002 	mov	r2, #2
   119bc:	e5832024 	str	r2, [r3, #36]	; 0x24
   119c0:	e51f3dac 	ldr	r3, [pc, #-3500]	; 10c1c <fonts_init+0x33c>
   119c4:	e08f3003 	add	r3, pc, r3
   119c8:	e3e02000 	mvn	r2, #0
   119cc:	e5832028 	str	r2, [r3, #40]	; 0x28
   119d0:	e51f3db8 	ldr	r3, [pc, #-3512]	; 10c20 <fonts_init+0x340>
   119d4:	e08f3003 	add	r3, pc, r3
   119d8:	e3a02004 	mov	r2, #4
   119dc:	e583202c 	str	r2, [r3, #44]	; 0x2c
   119e0:	e51f3dc4 	ldr	r3, [pc, #-3524]	; 10c24 <fonts_init+0x344>
   119e4:	e08f3003 	add	r3, pc, r3
   119e8:	e3e02005 	mvn	r2, #5
   119ec:	e5832030 	str	r2, [r3, #48]	; 0x30
   119f0:	e51f3dd0 	ldr	r3, [pc, #-3536]	; 10c28 <fonts_init+0x348>
   119f4:	e08f3003 	add	r3, pc, r3
   119f8:	e3a02004 	mov	r2, #4
   119fc:	e5832034 	str	r2, [r3, #52]	; 0x34
   11a00:	e51f3ddc 	ldr	r3, [pc, #-3548]	; 10c2c <fonts_init+0x34c>
   11a04:	e08f3003 	add	r3, pc, r3
   11a08:	e3e02005 	mvn	r2, #5
   11a0c:	e5832038 	str	r2, [r3, #56]	; 0x38
   11a10:	e51f3de8 	ldr	r3, [pc, #-3560]	; 10c30 <fonts_init+0x350>
   11a14:	e08f3003 	add	r3, pc, r3
   11a18:	e3a02004 	mov	r2, #4
   11a1c:	e583203c 	str	r2, [r3, #60]	; 0x3c
   11a20:	e51f3df4 	ldr	r3, [pc, #-3572]	; 10c34 <fonts_init+0x354>
   11a24:	e08f3003 	add	r3, pc, r3
   11a28:	e3a02000 	mov	r2, #0
   11a2c:	e5832040 	str	r2, [r3, #64]	; 0x40
   11a30:	e51f3e00 	ldr	r3, [pc, #-3584]	; 10c38 <fonts_init+0x358>
   11a34:	e08f3003 	add	r3, pc, r3
   11a38:	e2833a01 	add	r3, r3, #4096	; 0x1000
   11a3c:	e51f2e08 	ldr	r2, [pc, #-3592]	; 10c3c <fonts_init+0x35c>
   11a40:	e08f2002 	add	r2, pc, r2
   11a44:	e2833ee1 	add	r3, r3, #3600	; 0xe10
   11a48:	e2833004 	add	r3, r3, #4
   11a4c:	e1a01002 	mov	r1, r2
   11a50:	e3a02064 	mov	r2, #100	; 0x64
   11a54:	e1a00003 	mov	r0, r3
   11a58:	fa000f40 	blx	15760 <memcpy>
   11a5c:	e51f3e24 	ldr	r3, [pc, #-3620]	; 10c40 <fonts_init+0x360>
   11a60:	e08f3003 	add	r3, pc, r3
   11a64:	e3a02003 	mov	r2, #3
   11a68:	e5832000 	str	r2, [r3]
   11a6c:	e51f3e30 	ldr	r3, [pc, #-3632]	; 10c44 <fonts_init+0x364>
   11a70:	e08f3003 	add	r3, pc, r3
   11a74:	e3a02000 	mov	r2, #0
   11a78:	e5832004 	str	r2, [r3, #4]
   11a7c:	e51f3e3c 	ldr	r3, [pc, #-3644]	; 10c48 <fonts_init+0x368>
   11a80:	e08f3003 	add	r3, pc, r3
   11a84:	e3e02005 	mvn	r2, #5
   11a88:	e5832008 	str	r2, [r3, #8]
   11a8c:	e51f3e48 	ldr	r3, [pc, #-3656]	; 10c4c <fonts_init+0x36c>
   11a90:	e08f3003 	add	r3, pc, r3
   11a94:	e3a02000 	mov	r2, #0
   11a98:	e583200c 	str	r2, [r3, #12]
   11a9c:	e51f3e54 	ldr	r3, [pc, #-3668]	; 10c50 <fonts_init+0x370>
   11aa0:	e08f3003 	add	r3, pc, r3
   11aa4:	e3a02000 	mov	r2, #0
   11aa8:	e5832010 	str	r2, [r3, #16]
   11aac:	e51f3e60 	ldr	r3, [pc, #-3680]	; 10c54 <fonts_init+0x374>
   11ab0:	e08f3003 	add	r3, pc, r3
   11ab4:	e3a02000 	mov	r2, #0
   11ab8:	e5832014 	str	r2, [r3, #20]
   11abc:	e51f3e6c 	ldr	r3, [pc, #-3692]	; 10c58 <fonts_init+0x378>
   11ac0:	e08f3003 	add	r3, pc, r3
   11ac4:	e3e02005 	mvn	r2, #5
   11ac8:	e5832018 	str	r2, [r3, #24]
   11acc:	e51f3e78 	ldr	r3, [pc, #-3704]	; 10c5c <fonts_init+0x37c>
   11ad0:	e08f3003 	add	r3, pc, r3
   11ad4:	e3a02004 	mov	r2, #4
   11ad8:	e583201c 	str	r2, [r3, #28]
   11adc:	e51f3e84 	ldr	r3, [pc, #-3716]	; 10c60 <fonts_init+0x380>
   11ae0:	e08f3003 	add	r3, pc, r3
   11ae4:	e3a02000 	mov	r2, #0
   11ae8:	e5832020 	str	r2, [r3, #32]
   11aec:	e51f3e90 	ldr	r3, [pc, #-3728]	; 10c64 <fonts_init+0x384>
   11af0:	e08f3003 	add	r3, pc, r3
   11af4:	e3a02004 	mov	r2, #4
   11af8:	e5832024 	str	r2, [r3, #36]	; 0x24
   11afc:	e51f3e9c 	ldr	r3, [pc, #-3740]	; 10c68 <fonts_init+0x388>
   11b00:	e08f3003 	add	r3, pc, r3
   11b04:	e3a02000 	mov	r2, #0
   11b08:	e5832028 	str	r2, [r3, #40]	; 0x28
   11b0c:	e51f3ea8 	ldr	r3, [pc, #-3752]	; 10c6c <fonts_init+0x38c>
   11b10:	e08f3003 	add	r3, pc, r3
   11b14:	e3a02004 	mov	r2, #4
   11b18:	e583202c 	str	r2, [r3, #44]	; 0x2c
   11b1c:	e51f3eb4 	ldr	r3, [pc, #-3764]	; 10c70 <fonts_init+0x390>
   11b20:	e08f3003 	add	r3, pc, r3
   11b24:	e3e02005 	mvn	r2, #5
   11b28:	e5832030 	str	r2, [r3, #48]	; 0x30
   11b2c:	e51f3ec0 	ldr	r3, [pc, #-3776]	; 10c74 <fonts_init+0x394>
   11b30:	e08f3003 	add	r3, pc, r3
   11b34:	e2833a01 	add	r3, r3, #4096	; 0x1000
   11b38:	e51f2ec8 	ldr	r2, [pc, #-3784]	; 10c78 <fonts_init+0x398>
   11b3c:	e08f2002 	add	r2, pc, r2
   11b40:	e2833ee7 	add	r3, r3, #3696	; 0xe70
   11b44:	e2833008 	add	r3, r3, #8
   11b48:	e1a01002 	mov	r1, r2
   11b4c:	e3a02064 	mov	r2, #100	; 0x64
   11b50:	e1a00003 	mov	r0, r3
   11b54:	fa000f01 	blx	15760 <memcpy>
   11b58:	e51f3ee4 	ldr	r3, [pc, #-3812]	; 10c7c <fonts_init+0x39c>
   11b5c:	e08f3003 	add	r3, pc, r3
   11b60:	e3a02004 	mov	r2, #4
   11b64:	e5832000 	str	r2, [r3]
   11b68:	e51f3ef0 	ldr	r3, [pc, #-3824]	; 10c80 <fonts_init+0x3a0>
   11b6c:	e08f3003 	add	r3, pc, r3
   11b70:	e3a02000 	mov	r2, #0
   11b74:	e5832004 	str	r2, [r3, #4]
   11b78:	e51f3efc 	ldr	r3, [pc, #-3836]	; 10c84 <fonts_init+0x3a4>
   11b7c:	e08f3003 	add	r3, pc, r3
   11b80:	e3a02000 	mov	r2, #0
   11b84:	e5832008 	str	r2, [r3, #8]
   11b88:	e51f3f08 	ldr	r3, [pc, #-3848]	; 10c88 <fonts_init+0x3a8>
   11b8c:	e08f3003 	add	r3, pc, r3
   11b90:	e3a02004 	mov	r2, #4
   11b94:	e583200c 	str	r2, [r3, #12]
   11b98:	e51f3f14 	ldr	r3, [pc, #-3860]	; 10c8c <fonts_init+0x3ac>
   11b9c:	e08f3003 	add	r3, pc, r3
   11ba0:	e3a02000 	mov	r2, #0
   11ba4:	e5832010 	str	r2, [r3, #16]
   11ba8:	e51f3f20 	ldr	r3, [pc, #-3872]	; 10c90 <fonts_init+0x3b0>
   11bac:	e08f3003 	add	r3, pc, r3
   11bb0:	e3a02000 	mov	r2, #0
   11bb4:	e5832014 	str	r2, [r3, #20]
   11bb8:	e51f3f2c 	ldr	r3, [pc, #-3884]	; 10c94 <fonts_init+0x3b4>
   11bbc:	e08f3003 	add	r3, pc, r3
   11bc0:	e3e02005 	mvn	r2, #5
   11bc4:	e5832018 	str	r2, [r3, #24]
   11bc8:	e51f3f38 	ldr	r3, [pc, #-3896]	; 10c98 <fonts_init+0x3b8>
   11bcc:	e08f3003 	add	r3, pc, r3
   11bd0:	e3a02000 	mov	r2, #0
   11bd4:	e583201c 	str	r2, [r3, #28]
   11bd8:	e51f3f44 	ldr	r3, [pc, #-3908]	; 10c9c <fonts_init+0x3bc>
   11bdc:	e08f3003 	add	r3, pc, r3
   11be0:	e3a02000 	mov	r2, #0
   11be4:	e5832020 	str	r2, [r3, #32]
   11be8:	e51f3f50 	ldr	r3, [pc, #-3920]	; 10ca0 <fonts_init+0x3c0>
   11bec:	e08f3003 	add	r3, pc, r3
   11bf0:	e3a02000 	mov	r2, #0
   11bf4:	e5832024 	str	r2, [r3, #36]	; 0x24
   11bf8:	e51f3f5c 	ldr	r3, [pc, #-3932]	; 10ca4 <fonts_init+0x3c4>
   11bfc:	e08f3003 	add	r3, pc, r3
   11c00:	e3e02005 	mvn	r2, #5
   11c04:	e5832028 	str	r2, [r3, #40]	; 0x28
   11c08:	e51f3f68 	ldr	r3, [pc, #-3944]	; 10ca8 <fonts_init+0x3c8>
   11c0c:	e08f3003 	add	r3, pc, r3
   11c10:	e3a02004 	mov	r2, #4
   11c14:	e583202c 	str	r2, [r3, #44]	; 0x2c
   11c18:	e51f3f74 	ldr	r3, [pc, #-3956]	; 10cac <fonts_init+0x3cc>
   11c1c:	e08f3003 	add	r3, pc, r3
   11c20:	e3e02005 	mvn	r2, #5
   11c24:	e5832030 	str	r2, [r3, #48]	; 0x30
   11c28:	e51f3f80 	ldr	r3, [pc, #-3968]	; 10cb0 <fonts_init+0x3d0>
   11c2c:	e08f3003 	add	r3, pc, r3
   11c30:	e3a02004 	mov	r2, #4
   11c34:	e5832034 	str	r2, [r3, #52]	; 0x34
   11c38:	e51f3f8c 	ldr	r3, [pc, #-3980]	; 10cb4 <fonts_init+0x3d4>
   11c3c:	e08f3003 	add	r3, pc, r3
   11c40:	e3e02005 	mvn	r2, #5
   11c44:	e5832038 	str	r2, [r3, #56]	; 0x38
   11c48:	e51f3f98 	ldr	r3, [pc, #-3992]	; 10cb8 <fonts_init+0x3d8>
   11c4c:	e08f3003 	add	r3, pc, r3
   11c50:	e3a02004 	mov	r2, #4
   11c54:	e583203c 	str	r2, [r3, #60]	; 0x3c
   11c58:	e51f3fa4 	ldr	r3, [pc, #-4004]	; 10cbc <fonts_init+0x3dc>
   11c5c:	e08f3003 	add	r3, pc, r3
   11c60:	e3a02000 	mov	r2, #0
   11c64:	e5832040 	str	r2, [r3, #64]	; 0x40
   11c68:	e51f3fb0 	ldr	r3, [pc, #-4016]	; 10cc0 <fonts_init+0x3e0>
   11c6c:	e08f3003 	add	r3, pc, r3
   11c70:	e2833a01 	add	r3, r3, #4096	; 0x1000
   11c74:	e51f2fb8 	ldr	r2, [pc, #-4024]	; 10cc4 <fonts_init+0x3e4>
   11c78:	e08f2002 	add	r2, pc, r2
   11c7c:	e2833eed 	add	r3, r3, #3792	; 0xed0
   11c80:	e283300c 	add	r3, r3, #12
   11c84:	e1a01002 	mov	r1, r2
   11c88:	e3a02064 	mov	r2, #100	; 0x64
   11c8c:	e1a00003 	mov	r0, r3
   11c90:	fa000eb2 	blx	15760 <memcpy>
   11c94:	e51f3fd4 	ldr	r3, [pc, #-4052]	; 10cc8 <fonts_init+0x3e8>
   11c98:	e08f3003 	add	r3, pc, r3
   11c9c:	e3a02003 	mov	r2, #3
   11ca0:	e5832000 	str	r2, [r3]
   11ca4:	e51f3fe0 	ldr	r3, [pc, #-4064]	; 10ccc <fonts_init+0x3ec>
   11ca8:	e08f3003 	add	r3, pc, r3
   11cac:	e3a02000 	mov	r2, #0
   11cb0:	e5832004 	str	r2, [r3, #4]
   11cb4:	e51f3fec 	ldr	r3, [pc, #-4076]	; 10cd0 <fonts_init+0x3f0>
   11cb8:	e08f3003 	add	r3, pc, r3
   11cbc:	e3e02005 	mvn	r2, #5
   11cc0:	e5832008 	str	r2, [r3, #8]
   11cc4:	e51f3ff8 	ldr	r3, [pc, #-4088]	; 10cd4 <fonts_init+0x3f4>
   11cc8:	e08f3003 	add	r3, pc, r3
   11ccc:	e3a02000 	mov	r2, #0
   11cd0:	e583200c 	str	r2, [r3, #12]
   11cd4:	e59f3ff8 	ldr	r3, [pc, #4088]	; 12cd4 <fonts_init+0x23f4>
   11cd8:	e08f3003 	add	r3, pc, r3
   11cdc:	e3a02000 	mov	r2, #0
   11ce0:	e5832010 	str	r2, [r3, #16]
   11ce4:	e59f3fec 	ldr	r3, [pc, #4076]	; 12cd8 <fonts_init+0x23f8>
   11ce8:	e08f3003 	add	r3, pc, r3
   11cec:	e3a02000 	mov	r2, #0
   11cf0:	e5832014 	str	r2, [r3, #20]
   11cf4:	e59f3fe0 	ldr	r3, [pc, #4064]	; 12cdc <fonts_init+0x23fc>
   11cf8:	e08f3003 	add	r3, pc, r3
   11cfc:	e3e02005 	mvn	r2, #5
   11d00:	e5832018 	str	r2, [r3, #24]
   11d04:	e59f3fd4 	ldr	r3, [pc, #4052]	; 12ce0 <fonts_init+0x2400>
   11d08:	e08f3003 	add	r3, pc, r3
   11d0c:	e3a02004 	mov	r2, #4
   11d10:	e583201c 	str	r2, [r3, #28]
   11d14:	e59f3fc8 	ldr	r3, [pc, #4040]	; 12ce4 <fonts_init+0x2404>
   11d18:	e08f3003 	add	r3, pc, r3
   11d1c:	e3e02003 	mvn	r2, #3
   11d20:	e5832020 	str	r2, [r3, #32]
   11d24:	e59f3fbc 	ldr	r3, [pc, #4028]	; 12ce8 <fonts_init+0x2408>
   11d28:	e08f3003 	add	r3, pc, r3
   11d2c:	e3a02004 	mov	r2, #4
   11d30:	e5832024 	str	r2, [r3, #36]	; 0x24
   11d34:	e59f3fb0 	ldr	r3, [pc, #4016]	; 12cec <fonts_init+0x240c>
   11d38:	e08f3003 	add	r3, pc, r3
   11d3c:	e3e02003 	mvn	r2, #3
   11d40:	e5832028 	str	r2, [r3, #40]	; 0x28
   11d44:	e59f3fa4 	ldr	r3, [pc, #4004]	; 12cf0 <fonts_init+0x2410>
   11d48:	e08f3003 	add	r3, pc, r3
   11d4c:	e3a02000 	mov	r2, #0
   11d50:	e583202c 	str	r2, [r3, #44]	; 0x2c
   11d54:	e59f3f98 	ldr	r3, [pc, #3992]	; 12cf4 <fonts_init+0x2414>
   11d58:	e08f3003 	add	r3, pc, r3
   11d5c:	e3e02001 	mvn	r2, #1
   11d60:	e5832030 	str	r2, [r3, #48]	; 0x30
   11d64:	e59f3f8c 	ldr	r3, [pc, #3980]	; 12cf8 <fonts_init+0x2418>
   11d68:	e08f3003 	add	r3, pc, r3
   11d6c:	e2833a01 	add	r3, r3, #4096	; 0x1000
   11d70:	e59f2f84 	ldr	r2, [pc, #3972]	; 12cfc <fonts_init+0x241c>
   11d74:	e08f2002 	add	r2, pc, r2
   11d78:	e2833d3d 	add	r3, r3, #3904	; 0xf40
   11d7c:	e1a01002 	mov	r1, r2
   11d80:	e3a02064 	mov	r2, #100	; 0x64
   11d84:	e1a00003 	mov	r0, r3
   11d88:	fa000e74 	blx	15760 <memcpy>
   11d8c:	e59f3f6c 	ldr	r3, [pc, #3948]	; 12d00 <fonts_init+0x2420>
   11d90:	e08f3003 	add	r3, pc, r3
   11d94:	e3a02004 	mov	r2, #4
   11d98:	e5832000 	str	r2, [r3]
   11d9c:	e59f3f60 	ldr	r3, [pc, #3936]	; 12d04 <fonts_init+0x2424>
   11da0:	e08f3003 	add	r3, pc, r3
   11da4:	e3a02000 	mov	r2, #0
   11da8:	e5832004 	str	r2, [r3, #4]
   11dac:	e59f3f54 	ldr	r3, [pc, #3924]	; 12d08 <fonts_init+0x2428>
   11db0:	e08f3003 	add	r3, pc, r3
   11db4:	e3e02005 	mvn	r2, #5
   11db8:	e5832008 	str	r2, [r3, #8]
   11dbc:	e59f3f48 	ldr	r3, [pc, #3912]	; 12d0c <fonts_init+0x242c>
   11dc0:	e08f3003 	add	r3, pc, r3
   11dc4:	e3a02000 	mov	r2, #0
   11dc8:	e583200c 	str	r2, [r3, #12]
   11dcc:	e59f3f3c 	ldr	r3, [pc, #3900]	; 12d10 <fonts_init+0x2430>
   11dd0:	e08f3003 	add	r3, pc, r3
   11dd4:	e3a02000 	mov	r2, #0
   11dd8:	e5832010 	str	r2, [r3, #16]
   11ddc:	e59f3f30 	ldr	r3, [pc, #3888]	; 12d14 <fonts_init+0x2434>
   11de0:	e08f3003 	add	r3, pc, r3
   11de4:	e3a02000 	mov	r2, #0
   11de8:	e5832014 	str	r2, [r3, #20]
   11dec:	e59f3f24 	ldr	r3, [pc, #3876]	; 12d18 <fonts_init+0x2438>
   11df0:	e08f3003 	add	r3, pc, r3
   11df4:	e3e02005 	mvn	r2, #5
   11df8:	e5832018 	str	r2, [r3, #24]
   11dfc:	e59f3f18 	ldr	r3, [pc, #3864]	; 12d1c <fonts_init+0x243c>
   11e00:	e08f3003 	add	r3, pc, r3
   11e04:	e3a02004 	mov	r2, #4
   11e08:	e583201c 	str	r2, [r3, #28]
   11e0c:	e59f3f0c 	ldr	r3, [pc, #3852]	; 12d20 <fonts_init+0x2440>
   11e10:	e08f3003 	add	r3, pc, r3
   11e14:	e3e02003 	mvn	r2, #3
   11e18:	e5832020 	str	r2, [r3, #32]
   11e1c:	e59f3f00 	ldr	r3, [pc, #3840]	; 12d24 <fonts_init+0x2444>
   11e20:	e08f3003 	add	r3, pc, r3
   11e24:	e3a02004 	mov	r2, #4
   11e28:	e5832024 	str	r2, [r3, #36]	; 0x24
   11e2c:	e59f3ef4 	ldr	r3, [pc, #3828]	; 12d28 <fonts_init+0x2448>
   11e30:	e08f3003 	add	r3, pc, r3
   11e34:	e3e02003 	mvn	r2, #3
   11e38:	e5832028 	str	r2, [r3, #40]	; 0x28
   11e3c:	e59f3ee8 	ldr	r3, [pc, #3816]	; 12d2c <fonts_init+0x244c>
   11e40:	e08f3003 	add	r3, pc, r3
   11e44:	e3a02000 	mov	r2, #0
   11e48:	e583202c 	str	r2, [r3, #44]	; 0x2c
   11e4c:	e59f3edc 	ldr	r3, [pc, #3804]	; 12d30 <fonts_init+0x2450>
   11e50:	e08f3003 	add	r3, pc, r3
   11e54:	e3e02001 	mvn	r2, #1
   11e58:	e5832030 	str	r2, [r3, #48]	; 0x30
   11e5c:	e59f3ed0 	ldr	r3, [pc, #3792]	; 12d34 <fonts_init+0x2454>
   11e60:	e08f3003 	add	r3, pc, r3
   11e64:	e3a02000 	mov	r2, #0
   11e68:	e5832034 	str	r2, [r3, #52]	; 0x34
   11e6c:	e59f3ec4 	ldr	r3, [pc, #3780]	; 12d38 <fonts_init+0x2458>
   11e70:	e08f3003 	add	r3, pc, r3
   11e74:	e3e02001 	mvn	r2, #1
   11e78:	e5832038 	str	r2, [r3, #56]	; 0x38
   11e7c:	e59f3eb8 	ldr	r3, [pc, #3768]	; 12d3c <fonts_init+0x245c>
   11e80:	e08f3003 	add	r3, pc, r3
   11e84:	e3a02004 	mov	r2, #4
   11e88:	e583203c 	str	r2, [r3, #60]	; 0x3c
   11e8c:	e59f3eac 	ldr	r3, [pc, #3756]	; 12d40 <fonts_init+0x2460>
   11e90:	e08f3003 	add	r3, pc, r3
   11e94:	e3a02000 	mov	r2, #0
   11e98:	e5832040 	str	r2, [r3, #64]	; 0x40
   11e9c:	e59f3ea0 	ldr	r3, [pc, #3744]	; 12d44 <fonts_init+0x2464>
   11ea0:	e08f3003 	add	r3, pc, r3
   11ea4:	e2833a02 	add	r3, r3, #8192	; 0x2000
   11ea8:	e59f2e98 	ldr	r2, [pc, #3736]	; 12d48 <fonts_init+0x2468>
   11eac:	e08f2002 	add	r2, pc, r2
   11eb0:	e2833008 	add	r3, r3, #8
   11eb4:	e1a01002 	mov	r1, r2
   11eb8:	e3a02064 	mov	r2, #100	; 0x64
   11ebc:	e1a00003 	mov	r0, r3
   11ec0:	fa000e26 	blx	15760 <memcpy>
   11ec4:	e59f3e80 	ldr	r3, [pc, #3712]	; 12d4c <fonts_init+0x246c>
   11ec8:	e08f3003 	add	r3, pc, r3
   11ecc:	e3a02005 	mov	r2, #5
   11ed0:	e5832000 	str	r2, [r3]
   11ed4:	e59f3e74 	ldr	r3, [pc, #3700]	; 12d50 <fonts_init+0x2470>
   11ed8:	e08f3003 	add	r3, pc, r3
   11edc:	e3a02000 	mov	r2, #0
   11ee0:	e5832004 	str	r2, [r3, #4]
   11ee4:	e59f3e68 	ldr	r3, [pc, #3688]	; 12d54 <fonts_init+0x2474>
   11ee8:	e08f3003 	add	r3, pc, r3
   11eec:	e3a02000 	mov	r2, #0
   11ef0:	e5832008 	str	r2, [r3, #8]
   11ef4:	e59f3e5c 	ldr	r3, [pc, #3676]	; 12d58 <fonts_init+0x2478>
   11ef8:	e08f3003 	add	r3, pc, r3
   11efc:	e3a02004 	mov	r2, #4
   11f00:	e583200c 	str	r2, [r3, #12]
   11f04:	e59f3e50 	ldr	r3, [pc, #3664]	; 12d5c <fonts_init+0x247c>
   11f08:	e08f3003 	add	r3, pc, r3
   11f0c:	e3a02000 	mov	r2, #0
   11f10:	e5832010 	str	r2, [r3, #16]
   11f14:	e59f3e44 	ldr	r3, [pc, #3652]	; 12d60 <fonts_init+0x2480>
   11f18:	e08f3003 	add	r3, pc, r3
   11f1c:	e3a02000 	mov	r2, #0
   11f20:	e5832014 	str	r2, [r3, #20]
   11f24:	e59f3e38 	ldr	r3, [pc, #3640]	; 12d64 <fonts_init+0x2484>
   11f28:	e08f3003 	add	r3, pc, r3
   11f2c:	e3e02005 	mvn	r2, #5
   11f30:	e5832018 	str	r2, [r3, #24]
   11f34:	e59f3e2c 	ldr	r3, [pc, #3628]	; 12d68 <fonts_init+0x2488>
   11f38:	e08f3003 	add	r3, pc, r3
   11f3c:	e3a02004 	mov	r2, #4
   11f40:	e583201c 	str	r2, [r3, #28]
   11f44:	e59f3e20 	ldr	r3, [pc, #3616]	; 12d6c <fonts_init+0x248c>
   11f48:	e08f3003 	add	r3, pc, r3
   11f4c:	e3e02005 	mvn	r2, #5
   11f50:	e5832020 	str	r2, [r3, #32]
   11f54:	e59f3e14 	ldr	r3, [pc, #3604]	; 12d70 <fonts_init+0x2490>
   11f58:	e08f3003 	add	r3, pc, r3
   11f5c:	e3a02000 	mov	r2, #0
   11f60:	e5832024 	str	r2, [r3, #36]	; 0x24
   11f64:	e59f3e08 	ldr	r3, [pc, #3592]	; 12d74 <fonts_init+0x2494>
   11f68:	e08f3003 	add	r3, pc, r3
   11f6c:	e3e02002 	mvn	r2, #2
   11f70:	e5832028 	str	r2, [r3, #40]	; 0x28
   11f74:	e59f3dfc 	ldr	r3, [pc, #3580]	; 12d78 <fonts_init+0x2498>
   11f78:	e08f3003 	add	r3, pc, r3
   11f7c:	e3a02004 	mov	r2, #4
   11f80:	e583202c 	str	r2, [r3, #44]	; 0x2c
   11f84:	e59f3df0 	ldr	r3, [pc, #3568]	; 12d7c <fonts_init+0x249c>
   11f88:	e08f3003 	add	r3, pc, r3
   11f8c:	e3e02002 	mvn	r2, #2
   11f90:	e5832030 	str	r2, [r3, #48]	; 0x30
   11f94:	e59f3de4 	ldr	r3, [pc, #3556]	; 12d80 <fonts_init+0x24a0>
   11f98:	e08f3003 	add	r3, pc, r3
   11f9c:	e3a02000 	mov	r2, #0
   11fa0:	e5832034 	str	r2, [r3, #52]	; 0x34
   11fa4:	e59f3dd8 	ldr	r3, [pc, #3544]	; 12d84 <fonts_init+0x24a4>
   11fa8:	e08f3003 	add	r3, pc, r3
   11fac:	e3e02005 	mvn	r2, #5
   11fb0:	e5832038 	str	r2, [r3, #56]	; 0x38
   11fb4:	e59f3dcc 	ldr	r3, [pc, #3532]	; 12d88 <fonts_init+0x24a8>
   11fb8:	e08f3003 	add	r3, pc, r3
   11fbc:	e3a02000 	mov	r2, #0
   11fc0:	e583203c 	str	r2, [r3, #60]	; 0x3c
   11fc4:	e59f3dc0 	ldr	r3, [pc, #3520]	; 12d8c <fonts_init+0x24ac>
   11fc8:	e08f3003 	add	r3, pc, r3
   11fcc:	e3e02002 	mvn	r2, #2
   11fd0:	e5832040 	str	r2, [r3, #64]	; 0x40
   11fd4:	e59f3db4 	ldr	r3, [pc, #3508]	; 12d90 <fonts_init+0x24b0>
   11fd8:	e08f3003 	add	r3, pc, r3
   11fdc:	e3a02004 	mov	r2, #4
   11fe0:	e5832044 	str	r2, [r3, #68]	; 0x44
   11fe4:	e59f3da8 	ldr	r3, [pc, #3496]	; 12d94 <fonts_init+0x24b4>
   11fe8:	e08f3003 	add	r3, pc, r3
   11fec:	e3a02000 	mov	r2, #0
   11ff0:	e5832048 	str	r2, [r3, #72]	; 0x48
   11ff4:	e59f3d9c 	ldr	r3, [pc, #3484]	; 12d98 <fonts_init+0x24b8>
   11ff8:	e08f3003 	add	r3, pc, r3
   11ffc:	e3a02004 	mov	r2, #4
   12000:	e583204c 	str	r2, [r3, #76]	; 0x4c
   12004:	e59f3d90 	ldr	r3, [pc, #3472]	; 12d9c <fonts_init+0x24bc>
   12008:	e08f3003 	add	r3, pc, r3
   1200c:	e3e02002 	mvn	r2, #2
   12010:	e5832050 	str	r2, [r3, #80]	; 0x50
   12014:	e59f3d84 	ldr	r3, [pc, #3460]	; 12da0 <fonts_init+0x24c0>
   12018:	e08f3003 	add	r3, pc, r3
   1201c:	e2833a02 	add	r3, r3, #8192	; 0x2000
   12020:	e59f2d7c 	ldr	r2, [pc, #3452]	; 12da4 <fonts_init+0x24c4>
   12024:	e08f2002 	add	r2, pc, r2
   12028:	e283306c 	add	r3, r3, #108	; 0x6c
   1202c:	e1a01002 	mov	r1, r2
   12030:	e3a02064 	mov	r2, #100	; 0x64
   12034:	e1a00003 	mov	r0, r3
   12038:	fa000dc8 	blx	15760 <memcpy>
   1203c:	e59f3d64 	ldr	r3, [pc, #3428]	; 12da8 <fonts_init+0x24c8>
   12040:	e08f3003 	add	r3, pc, r3
   12044:	e3a02002 	mov	r2, #2
   12048:	e5832000 	str	r2, [r3]
   1204c:	e59f3d58 	ldr	r3, [pc, #3416]	; 12dac <fonts_init+0x24cc>
   12050:	e08f3003 	add	r3, pc, r3
   12054:	e3a02000 	mov	r2, #0
   12058:	e5832004 	str	r2, [r3, #4]
   1205c:	e59f3d4c 	ldr	r3, [pc, #3404]	; 12db0 <fonts_init+0x24d0>
   12060:	e08f3003 	add	r3, pc, r3
   12064:	e3e02005 	mvn	r2, #5
   12068:	e5832008 	str	r2, [r3, #8]
   1206c:	e59f3d40 	ldr	r3, [pc, #3392]	; 12db4 <fonts_init+0x24d4>
   12070:	e08f3003 	add	r3, pc, r3
   12074:	e3a02004 	mov	r2, #4
   12078:	e583200c 	str	r2, [r3, #12]
   1207c:	e59f3d34 	ldr	r3, [pc, #3380]	; 12db8 <fonts_init+0x24d8>
   12080:	e08f3003 	add	r3, pc, r3
   12084:	e3e02005 	mvn	r2, #5
   12088:	e5832010 	str	r2, [r3, #16]
   1208c:	e59f3d28 	ldr	r3, [pc, #3368]	; 12dbc <fonts_init+0x24dc>
   12090:	e08f3003 	add	r3, pc, r3
   12094:	e3a02002 	mov	r2, #2
   12098:	e5832014 	str	r2, [r3, #20]
   1209c:	e59f3d1c 	ldr	r3, [pc, #3356]	; 12dc0 <fonts_init+0x24e0>
   120a0:	e08f3003 	add	r3, pc, r3
   120a4:	e3e02005 	mvn	r2, #5
   120a8:	e5832018 	str	r2, [r3, #24]
   120ac:	e59f3d10 	ldr	r3, [pc, #3344]	; 12dc4 <fonts_init+0x24e4>
   120b0:	e08f3003 	add	r3, pc, r3
   120b4:	e3a02002 	mov	r2, #2
   120b8:	e583201c 	str	r2, [r3, #28]
   120bc:	e59f3d04 	ldr	r3, [pc, #3332]	; 12dc8 <fonts_init+0x24e8>
   120c0:	e08f3003 	add	r3, pc, r3
   120c4:	e3a02000 	mov	r2, #0
   120c8:	e5832020 	str	r2, [r3, #32]
   120cc:	e59f3cf8 	ldr	r3, [pc, #3320]	; 12dcc <fonts_init+0x24ec>
   120d0:	e08f3003 	add	r3, pc, r3
   120d4:	e2833a02 	add	r3, r3, #8192	; 0x2000
   120d8:	e59f2cf0 	ldr	r2, [pc, #3312]	; 12dd0 <fonts_init+0x24f0>
   120dc:	e08f2002 	add	r2, pc, r2
   120e0:	e28330d0 	add	r3, r3, #208	; 0xd0
   120e4:	e1a01002 	mov	r1, r2
   120e8:	e3a02064 	mov	r2, #100	; 0x64
   120ec:	e1a00003 	mov	r0, r3
   120f0:	fa000d9a 	blx	15760 <memcpy>
   120f4:	e59f3cd8 	ldr	r3, [pc, #3288]	; 12dd4 <fonts_init+0x24f4>
   120f8:	e08f3003 	add	r3, pc, r3
   120fc:	e3a02003 	mov	r2, #3
   12100:	e5832000 	str	r2, [r3]
   12104:	e59f3ccc 	ldr	r3, [pc, #3276]	; 12dd8 <fonts_init+0x24f8>
   12108:	e08f3003 	add	r3, pc, r3
   1210c:	e3a02000 	mov	r2, #0
   12110:	e5832004 	str	r2, [r3, #4]
   12114:	e59f3cc0 	ldr	r3, [pc, #3264]	; 12ddc <fonts_init+0x24fc>
   12118:	e08f3003 	add	r3, pc, r3
   1211c:	e3a02000 	mov	r2, #0
   12120:	e5832008 	str	r2, [r3, #8]
   12124:	e59f3cb4 	ldr	r3, [pc, #3252]	; 12de0 <fonts_init+0x2500>
   12128:	e08f3003 	add	r3, pc, r3
   1212c:	e3a02000 	mov	r2, #0
   12130:	e583200c 	str	r2, [r3, #12]
   12134:	e59f3ca8 	ldr	r3, [pc, #3240]	; 12de4 <fonts_init+0x2504>
   12138:	e08f3003 	add	r3, pc, r3
   1213c:	e3e02005 	mvn	r2, #5
   12140:	e5832010 	str	r2, [r3, #16]
   12144:	e59f3c9c 	ldr	r3, [pc, #3228]	; 12de8 <fonts_init+0x2508>
   12148:	e08f3003 	add	r3, pc, r3
   1214c:	e3a02004 	mov	r2, #4
   12150:	e5832014 	str	r2, [r3, #20]
   12154:	e59f3c90 	ldr	r3, [pc, #3216]	; 12dec <fonts_init+0x250c>
   12158:	e08f3003 	add	r3, pc, r3
   1215c:	e3a02000 	mov	r2, #0
   12160:	e5832018 	str	r2, [r3, #24]
   12164:	e59f3c84 	ldr	r3, [pc, #3204]	; 12df0 <fonts_init+0x2510>
   12168:	e08f3003 	add	r3, pc, r3
   1216c:	e3a02004 	mov	r2, #4
   12170:	e583201c 	str	r2, [r3, #28]
   12174:	e59f3c78 	ldr	r3, [pc, #3192]	; 12df4 <fonts_init+0x2514>
   12178:	e08f3003 	add	r3, pc, r3
   1217c:	e3e02005 	mvn	r2, #5
   12180:	e5832020 	str	r2, [r3, #32]
   12184:	e59f3c6c 	ldr	r3, [pc, #3180]	; 12df8 <fonts_init+0x2518>
   12188:	e08f3003 	add	r3, pc, r3
   1218c:	e3a02000 	mov	r2, #0
   12190:	e5832024 	str	r2, [r3, #36]	; 0x24
   12194:	e59f3c60 	ldr	r3, [pc, #3168]	; 12dfc <fonts_init+0x251c>
   12198:	e08f3003 	add	r3, pc, r3
   1219c:	e3a02000 	mov	r2, #0
   121a0:	e5832028 	str	r2, [r3, #40]	; 0x28
   121a4:	e59f3c54 	ldr	r3, [pc, #3156]	; 12e00 <fonts_init+0x2520>
   121a8:	e08f3003 	add	r3, pc, r3
   121ac:	e3a02004 	mov	r2, #4
   121b0:	e583202c 	str	r2, [r3, #44]	; 0x2c
   121b4:	e59f3c48 	ldr	r3, [pc, #3144]	; 12e04 <fonts_init+0x2524>
   121b8:	e08f3003 	add	r3, pc, r3
   121bc:	e3a02000 	mov	r2, #0
   121c0:	e5832030 	str	r2, [r3, #48]	; 0x30
   121c4:	e59f3c3c 	ldr	r3, [pc, #3132]	; 12e08 <fonts_init+0x2528>
   121c8:	e08f3003 	add	r3, pc, r3
   121cc:	e2833a02 	add	r3, r3, #8192	; 0x2000
   121d0:	e59f2c34 	ldr	r2, [pc, #3124]	; 12e0c <fonts_init+0x252c>
   121d4:	e08f2002 	add	r2, pc, r2
   121d8:	e2833f4d 	add	r3, r3, #308	; 0x134
   121dc:	e1a01002 	mov	r1, r2
   121e0:	e3a02064 	mov	r2, #100	; 0x64
   121e4:	e1a00003 	mov	r0, r3
   121e8:	fa000d5c 	blx	15760 <memcpy>
   121ec:	e59f3c1c 	ldr	r3, [pc, #3100]	; 12e10 <fonts_init+0x2530>
   121f0:	e08f3003 	add	r3, pc, r3
   121f4:	e3a02002 	mov	r2, #2
   121f8:	e5832000 	str	r2, [r3]
   121fc:	e59f3c10 	ldr	r3, [pc, #3088]	; 12e14 <fonts_init+0x2534>
   12200:	e08f3003 	add	r3, pc, r3
   12204:	e3a02002 	mov	r2, #2
   12208:	e5832004 	str	r2, [r3, #4]
   1220c:	e59f3c04 	ldr	r3, [pc, #3076]	; 12e18 <fonts_init+0x2538>
   12210:	e08f3003 	add	r3, pc, r3
   12214:	e3a02000 	mov	r2, #0
   12218:	e5832008 	str	r2, [r3, #8]
   1221c:	e59f3bf8 	ldr	r3, [pc, #3064]	; 12e1c <fonts_init+0x253c>
   12220:	e08f3003 	add	r3, pc, r3
   12224:	e3a02000 	mov	r2, #0
   12228:	e583200c 	str	r2, [r3, #12]
   1222c:	e59f3bec 	ldr	r3, [pc, #3052]	; 12e20 <fonts_init+0x2540>
   12230:	e08f3003 	add	r3, pc, r3
   12234:	e3e02005 	mvn	r2, #5
   12238:	e5832010 	str	r2, [r3, #16]
   1223c:	e59f3be0 	ldr	r3, [pc, #3040]	; 12e24 <fonts_init+0x2544>
   12240:	e08f3003 	add	r3, pc, r3
   12244:	e3a02002 	mov	r2, #2
   12248:	e5832014 	str	r2, [r3, #20]
   1224c:	e59f3bd4 	ldr	r3, [pc, #3028]	; 12e28 <fonts_init+0x2548>
   12250:	e08f3003 	add	r3, pc, r3
   12254:	e3a02000 	mov	r2, #0
   12258:	e5832018 	str	r2, [r3, #24]
   1225c:	e59f3bc8 	ldr	r3, [pc, #3016]	; 12e2c <fonts_init+0x254c>
   12260:	e08f3003 	add	r3, pc, r3
   12264:	e3a02004 	mov	r2, #4
   12268:	e583201c 	str	r2, [r3, #28]
   1226c:	e59f3bbc 	ldr	r3, [pc, #3004]	; 12e30 <fonts_init+0x2550>
   12270:	e08f3003 	add	r3, pc, r3
   12274:	e3e02005 	mvn	r2, #5
   12278:	e5832020 	str	r2, [r3, #32]
   1227c:	e59f3bb0 	ldr	r3, [pc, #2992]	; 12e34 <fonts_init+0x2554>
   12280:	e08f3003 	add	r3, pc, r3
   12284:	e2833a02 	add	r3, r3, #8192	; 0x2000
   12288:	e59f2ba8 	ldr	r2, [pc, #2984]	; 12e38 <fonts_init+0x2558>
   1228c:	e08f2002 	add	r2, pc, r2
   12290:	e2833f66 	add	r3, r3, #408	; 0x198
   12294:	e1a01002 	mov	r1, r2
   12298:	e3a02064 	mov	r2, #100	; 0x64
   1229c:	e1a00003 	mov	r0, r3
   122a0:	fa000d2e 	blx	15760 <memcpy>
   122a4:	e59f3b90 	ldr	r3, [pc, #2960]	; 12e3c <fonts_init+0x255c>
   122a8:	e08f3003 	add	r3, pc, r3
   122ac:	e3a02004 	mov	r2, #4
   122b0:	e5832000 	str	r2, [r3]
   122b4:	e59f3b84 	ldr	r3, [pc, #2948]	; 12e40 <fonts_init+0x2560>
   122b8:	e08f3003 	add	r3, pc, r3
   122bc:	e3a02000 	mov	r2, #0
   122c0:	e5832004 	str	r2, [r3, #4]
   122c4:	e59f3b78 	ldr	r3, [pc, #2936]	; 12e44 <fonts_init+0x2564>
   122c8:	e08f3003 	add	r3, pc, r3
   122cc:	e3e02005 	mvn	r2, #5
   122d0:	e5832008 	str	r2, [r3, #8]
   122d4:	e59f3b6c 	ldr	r3, [pc, #2924]	; 12e48 <fonts_init+0x2568>
   122d8:	e08f3003 	add	r3, pc, r3
   122dc:	e3a02001 	mov	r2, #1
   122e0:	e583200c 	str	r2, [r3, #12]
   122e4:	e59f3b60 	ldr	r3, [pc, #2912]	; 12e4c <fonts_init+0x256c>
   122e8:	e08f3003 	add	r3, pc, r3
   122ec:	e3a02000 	mov	r2, #0
   122f0:	e5832010 	str	r2, [r3, #16]
   122f4:	e59f3b54 	ldr	r3, [pc, #2900]	; 12e50 <fonts_init+0x2570>
   122f8:	e08f3003 	add	r3, pc, r3
   122fc:	e3a02001 	mov	r2, #1
   12300:	e5832014 	str	r2, [r3, #20]
   12304:	e59f3b48 	ldr	r3, [pc, #2888]	; 12e54 <fonts_init+0x2574>
   12308:	e08f3003 	add	r3, pc, r3
   1230c:	e3a02000 	mov	r2, #0
   12310:	e5832018 	str	r2, [r3, #24]
   12314:	e59f3b3c 	ldr	r3, [pc, #2876]	; 12e58 <fonts_init+0x2578>
   12318:	e08f3003 	add	r3, pc, r3
   1231c:	e3a02002 	mov	r2, #2
   12320:	e583201c 	str	r2, [r3, #28]
   12324:	e59f3b30 	ldr	r3, [pc, #2864]	; 12e5c <fonts_init+0x257c>
   12328:	e08f3003 	add	r3, pc, r3
   1232c:	e3e02002 	mvn	r2, #2
   12330:	e5832020 	str	r2, [r3, #32]
   12334:	e59f3b24 	ldr	r3, [pc, #2852]	; 12e60 <fonts_init+0x2580>
   12338:	e08f3003 	add	r3, pc, r3
   1233c:	e3a02002 	mov	r2, #2
   12340:	e5832024 	str	r2, [r3, #36]	; 0x24
   12344:	e59f3b18 	ldr	r3, [pc, #2840]	; 12e64 <fonts_init+0x2584>
   12348:	e08f3003 	add	r3, pc, r3
   1234c:	e3e02002 	mvn	r2, #2
   12350:	e5832028 	str	r2, [r3, #40]	; 0x28
   12354:	e59f3b0c 	ldr	r3, [pc, #2828]	; 12e68 <fonts_init+0x2588>
   12358:	e08f3003 	add	r3, pc, r3
   1235c:	e3a02004 	mov	r2, #4
   12360:	e583202c 	str	r2, [r3, #44]	; 0x2c
   12364:	e59f3b00 	ldr	r3, [pc, #2816]	; 12e6c <fonts_init+0x258c>
   12368:	e08f3003 	add	r3, pc, r3
   1236c:	e3a02000 	mov	r2, #0
   12370:	e5832030 	str	r2, [r3, #48]	; 0x30
   12374:	e59f3af4 	ldr	r3, [pc, #2804]	; 12e70 <fonts_init+0x2590>
   12378:	e08f3003 	add	r3, pc, r3
   1237c:	e3a02004 	mov	r2, #4
   12380:	e5832034 	str	r2, [r3, #52]	; 0x34
   12384:	e59f3ae8 	ldr	r3, [pc, #2792]	; 12e74 <fonts_init+0x2594>
   12388:	e08f3003 	add	r3, pc, r3
   1238c:	e3e02005 	mvn	r2, #5
   12390:	e5832038 	str	r2, [r3, #56]	; 0x38
   12394:	e59f3adc 	ldr	r3, [pc, #2780]	; 12e78 <fonts_init+0x2598>
   12398:	e08f3003 	add	r3, pc, r3
   1239c:	e3a02004 	mov	r2, #4
   123a0:	e583203c 	str	r2, [r3, #60]	; 0x3c
   123a4:	e59f3ad0 	ldr	r3, [pc, #2768]	; 12e7c <fonts_init+0x259c>
   123a8:	e08f3003 	add	r3, pc, r3
   123ac:	e3a02000 	mov	r2, #0
   123b0:	e5832040 	str	r2, [r3, #64]	; 0x40
   123b4:	e59f3ac4 	ldr	r3, [pc, #2756]	; 12e80 <fonts_init+0x25a0>
   123b8:	e08f3003 	add	r3, pc, r3
   123bc:	e2833a02 	add	r3, r3, #8192	; 0x2000
   123c0:	e59f2abc 	ldr	r2, [pc, #2748]	; 12e84 <fonts_init+0x25a4>
   123c4:	e08f2002 	add	r2, pc, r2
   123c8:	e2833f7f 	add	r3, r3, #508	; 0x1fc
   123cc:	e1a01002 	mov	r1, r2
   123d0:	e3a02064 	mov	r2, #100	; 0x64
   123d4:	e1a00003 	mov	r0, r3
   123d8:	fa000ce0 	blx	15760 <memcpy>
   123dc:	e59f3aa4 	ldr	r3, [pc, #2724]	; 12e88 <fonts_init+0x25a8>
   123e0:	e08f3003 	add	r3, pc, r3
   123e4:	e3a02002 	mov	r2, #2
   123e8:	e5832000 	str	r2, [r3]
   123ec:	e59f3a98 	ldr	r3, [pc, #2712]	; 12e8c <fonts_init+0x25ac>
   123f0:	e08f3003 	add	r3, pc, r3
   123f4:	e3a02000 	mov	r2, #0
   123f8:	e5832004 	str	r2, [r3, #4]
   123fc:	e59f3a8c 	ldr	r3, [pc, #2700]	; 12e90 <fonts_init+0x25b0>
   12400:	e08f3003 	add	r3, pc, r3
   12404:	e3e02005 	mvn	r2, #5
   12408:	e5832008 	str	r2, [r3, #8]
   1240c:	e59f3a80 	ldr	r3, [pc, #2688]	; 12e94 <fonts_init+0x25b4>
   12410:	e08f3003 	add	r3, pc, r3
   12414:	e3a02004 	mov	r2, #4
   12418:	e583200c 	str	r2, [r3, #12]
   1241c:	e59f3a74 	ldr	r3, [pc, #2676]	; 12e98 <fonts_init+0x25b8>
   12420:	e08f3003 	add	r3, pc, r3
   12424:	e3a02000 	mov	r2, #0
   12428:	e5832010 	str	r2, [r3, #16]
   1242c:	e59f3a68 	ldr	r3, [pc, #2664]	; 12e9c <fonts_init+0x25bc>
   12430:	e08f3003 	add	r3, pc, r3
   12434:	e3a02000 	mov	r2, #0
   12438:	e5832014 	str	r2, [r3, #20]
   1243c:	e59f3a5c 	ldr	r3, [pc, #2652]	; 12ea0 <fonts_init+0x25c0>
   12440:	e08f3003 	add	r3, pc, r3
   12444:	e3a02000 	mov	r2, #0
   12448:	e5832018 	str	r2, [r3, #24]
   1244c:	e59f3a50 	ldr	r3, [pc, #2640]	; 12ea4 <fonts_init+0x25c4>
   12450:	e08f3003 	add	r3, pc, r3
   12454:	e3a02004 	mov	r2, #4
   12458:	e583201c 	str	r2, [r3, #28]
   1245c:	e59f3a44 	ldr	r3, [pc, #2628]	; 12ea8 <fonts_init+0x25c8>
   12460:	e08f3003 	add	r3, pc, r3
   12464:	e3e02005 	mvn	r2, #5
   12468:	e5832020 	str	r2, [r3, #32]
   1246c:	e59f3a38 	ldr	r3, [pc, #2616]	; 12eac <fonts_init+0x25cc>
   12470:	e08f3003 	add	r3, pc, r3
   12474:	e2833a02 	add	r3, r3, #8192	; 0x2000
   12478:	e59f2a30 	ldr	r2, [pc, #2608]	; 12eb0 <fonts_init+0x25d0>
   1247c:	e08f2002 	add	r2, pc, r2
   12480:	e2833e26 	add	r3, r3, #608	; 0x260
   12484:	e1a01002 	mov	r1, r2
   12488:	e3a02064 	mov	r2, #100	; 0x64
   1248c:	e1a00003 	mov	r0, r3
   12490:	fa000cb2 	blx	15760 <memcpy>
   12494:	e59f3a18 	ldr	r3, [pc, #2584]	; 12eb4 <fonts_init+0x25d4>
   12498:	e08f3003 	add	r3, pc, r3
   1249c:	e3a02003 	mov	r2, #3
   124a0:	e5832000 	str	r2, [r3]
   124a4:	e59f3a0c 	ldr	r3, [pc, #2572]	; 12eb8 <fonts_init+0x25d8>
   124a8:	e08f3003 	add	r3, pc, r3
   124ac:	e3a02002 	mov	r2, #2
   124b0:	e5832004 	str	r2, [r3, #4]
   124b4:	e59f3a00 	ldr	r3, [pc, #2560]	; 12ebc <fonts_init+0x25dc>
   124b8:	e08f3003 	add	r3, pc, r3
   124bc:	e3a02000 	mov	r2, #0
   124c0:	e5832008 	str	r2, [r3, #8]
   124c4:	e59f39f4 	ldr	r3, [pc, #2548]	; 12ec0 <fonts_init+0x25e0>
   124c8:	e08f3003 	add	r3, pc, r3
   124cc:	e3a02002 	mov	r2, #2
   124d0:	e583200c 	str	r2, [r3, #12]
   124d4:	e59f39e8 	ldr	r3, [pc, #2536]	; 12ec4 <fonts_init+0x25e4>
   124d8:	e08f3003 	add	r3, pc, r3
   124dc:	e3e02002 	mvn	r2, #2
   124e0:	e5832010 	str	r2, [r3, #16]
   124e4:	e59f39dc 	ldr	r3, [pc, #2524]	; 12ec8 <fonts_init+0x25e8>
   124e8:	e08f3003 	add	r3, pc, r3
   124ec:	e3a02002 	mov	r2, #2
   124f0:	e5832014 	str	r2, [r3, #20]
   124f4:	e59f39d0 	ldr	r3, [pc, #2512]	; 12ecc <fonts_init+0x25ec>
   124f8:	e08f3003 	add	r3, pc, r3
   124fc:	e3e02002 	mvn	r2, #2
   12500:	e5832018 	str	r2, [r3, #24]
   12504:	e59f39c4 	ldr	r3, [pc, #2500]	; 12ed0 <fonts_init+0x25f0>
   12508:	e08f3003 	add	r3, pc, r3
   1250c:	e3a02000 	mov	r2, #0
   12510:	e583201c 	str	r2, [r3, #28]
   12514:	e59f39b8 	ldr	r3, [pc, #2488]	; 12ed4 <fonts_init+0x25f4>
   12518:	e08f3003 	add	r3, pc, r3
   1251c:	e3e02005 	mvn	r2, #5
   12520:	e5832020 	str	r2, [r3, #32]
   12524:	e59f39ac 	ldr	r3, [pc, #2476]	; 12ed8 <fonts_init+0x25f8>
   12528:	e08f3003 	add	r3, pc, r3
   1252c:	e3a02002 	mov	r2, #2
   12530:	e5832024 	str	r2, [r3, #36]	; 0x24
   12534:	e59f39a0 	ldr	r3, [pc, #2464]	; 12edc <fonts_init+0x25fc>
   12538:	e08f3003 	add	r3, pc, r3
   1253c:	e3e02002 	mvn	r2, #2
   12540:	e5832028 	str	r2, [r3, #40]	; 0x28
   12544:	e59f3994 	ldr	r3, [pc, #2452]	; 12ee0 <fonts_init+0x2600>
   12548:	e08f3003 	add	r3, pc, r3
   1254c:	e3a02004 	mov	r2, #4
   12550:	e583202c 	str	r2, [r3, #44]	; 0x2c
   12554:	e59f3988 	ldr	r3, [pc, #2440]	; 12ee4 <fonts_init+0x2604>
   12558:	e08f3003 	add	r3, pc, r3
   1255c:	e3e02005 	mvn	r2, #5
   12560:	e5832030 	str	r2, [r3, #48]	; 0x30
   12564:	e59f397c 	ldr	r3, [pc, #2428]	; 12ee8 <fonts_init+0x2608>
   12568:	e08f3003 	add	r3, pc, r3
   1256c:	e2833a02 	add	r3, r3, #8192	; 0x2000
   12570:	e59f2974 	ldr	r2, [pc, #2420]	; 12eec <fonts_init+0x260c>
   12574:	e08f2002 	add	r2, pc, r2
   12578:	e2833fb1 	add	r3, r3, #708	; 0x2c4
   1257c:	e1a01002 	mov	r1, r2
   12580:	e3a02064 	mov	r2, #100	; 0x64
   12584:	e1a00003 	mov	r0, r3
   12588:	fa000c74 	blx	15760 <memcpy>
   1258c:	e59f395c 	ldr	r3, [pc, #2396]	; 12ef0 <fonts_init+0x2610>
   12590:	e08f3003 	add	r3, pc, r3
   12594:	e3a02003 	mov	r2, #3
   12598:	e5832000 	str	r2, [r3]
   1259c:	e59f3950 	ldr	r3, [pc, #2384]	; 12ef4 <fonts_init+0x2614>
   125a0:	e08f3003 	add	r3, pc, r3
   125a4:	e3a02000 	mov	r2, #0
   125a8:	e5832004 	str	r2, [r3, #4]
   125ac:	e59f3944 	ldr	r3, [pc, #2372]	; 12ef8 <fonts_init+0x2618>
   125b0:	e08f3003 	add	r3, pc, r3
   125b4:	e3e02005 	mvn	r2, #5
   125b8:	e5832008 	str	r2, [r3, #8]
   125bc:	e59f3938 	ldr	r3, [pc, #2360]	; 12efc <fonts_init+0x261c>
   125c0:	e08f3003 	add	r3, pc, r3
   125c4:	e3a02004 	mov	r2, #4
   125c8:	e583200c 	str	r2, [r3, #12]
   125cc:	e59f392c 	ldr	r3, [pc, #2348]	; 12f00 <fonts_init+0x2620>
   125d0:	e08f3003 	add	r3, pc, r3
   125d4:	e3e02005 	mvn	r2, #5
   125d8:	e5832010 	str	r2, [r3, #16]
   125dc:	e59f3920 	ldr	r3, [pc, #2336]	; 12f04 <fonts_init+0x2624>
   125e0:	e08f3003 	add	r3, pc, r3
   125e4:	e3a02004 	mov	r2, #4
   125e8:	e5832014 	str	r2, [r3, #20]
   125ec:	e59f3914 	ldr	r3, [pc, #2324]	; 12f08 <fonts_init+0x2628>
   125f0:	e08f3003 	add	r3, pc, r3
   125f4:	e3e02005 	mvn	r2, #5
   125f8:	e5832018 	str	r2, [r3, #24]
   125fc:	e59f3908 	ldr	r3, [pc, #2312]	; 12f0c <fonts_init+0x262c>
   12600:	e08f3003 	add	r3, pc, r3
   12604:	e3a02000 	mov	r2, #0
   12608:	e583201c 	str	r2, [r3, #28]
   1260c:	e59f38fc 	ldr	r3, [pc, #2300]	; 12f10 <fonts_init+0x2630>
   12610:	e08f3003 	add	r3, pc, r3
   12614:	e3a02000 	mov	r2, #0
   12618:	e5832020 	str	r2, [r3, #32]
   1261c:	e59f38f0 	ldr	r3, [pc, #2288]	; 12f14 <fonts_init+0x2634>
   12620:	e08f3003 	add	r3, pc, r3
   12624:	e3a02000 	mov	r2, #0
   12628:	e5832024 	str	r2, [r3, #36]	; 0x24
   1262c:	e59f38e4 	ldr	r3, [pc, #2276]	; 12f18 <fonts_init+0x2638>
   12630:	e08f3003 	add	r3, pc, r3
   12634:	e3a02000 	mov	r2, #0
   12638:	e5832028 	str	r2, [r3, #40]	; 0x28
   1263c:	e59f38d8 	ldr	r3, [pc, #2264]	; 12f1c <fonts_init+0x263c>
   12640:	e08f3003 	add	r3, pc, r3
   12644:	e3a02004 	mov	r2, #4
   12648:	e583202c 	str	r2, [r3, #44]	; 0x2c
   1264c:	e59f38cc 	ldr	r3, [pc, #2252]	; 12f20 <fonts_init+0x2640>
   12650:	e08f3003 	add	r3, pc, r3
   12654:	e3a02000 	mov	r2, #0
   12658:	e5832030 	str	r2, [r3, #48]	; 0x30
   1265c:	e59f38c0 	ldr	r3, [pc, #2240]	; 12f24 <fonts_init+0x2644>
   12660:	e08f3003 	add	r3, pc, r3
   12664:	e2833a02 	add	r3, r3, #8192	; 0x2000
   12668:	e59f28b8 	ldr	r2, [pc, #2232]	; 12f28 <fonts_init+0x2648>
   1266c:	e08f2002 	add	r2, pc, r2
   12670:	e2833fca 	add	r3, r3, #808	; 0x328
   12674:	e1a01002 	mov	r1, r2
   12678:	e3a02064 	mov	r2, #100	; 0x64
   1267c:	e1a00003 	mov	r0, r3
   12680:	fa000c36 	blx	15760 <memcpy>
   12684:	e59f38a0 	ldr	r3, [pc, #2208]	; 12f2c <fonts_init+0x264c>
   12688:	e08f3003 	add	r3, pc, r3
   1268c:	e3a02001 	mov	r2, #1
   12690:	e5832000 	str	r2, [r3]
   12694:	e59f3894 	ldr	r3, [pc, #2196]	; 12f30 <fonts_init+0x2650>
   12698:	e08f3003 	add	r3, pc, r3
   1269c:	e3a02002 	mov	r2, #2
   126a0:	e5832004 	str	r2, [r3, #4]
   126a4:	e59f3888 	ldr	r3, [pc, #2184]	; 12f34 <fonts_init+0x2654>
   126a8:	e08f3003 	add	r3, pc, r3
   126ac:	e3a02000 	mov	r2, #0
   126b0:	e5832008 	str	r2, [r3, #8]
   126b4:	e59f387c 	ldr	r3, [pc, #2172]	; 12f38 <fonts_init+0x2658>
   126b8:	e08f3003 	add	r3, pc, r3
   126bc:	e3a02002 	mov	r2, #2
   126c0:	e583200c 	str	r2, [r3, #12]
   126c4:	e59f3870 	ldr	r3, [pc, #2160]	; 12f3c <fonts_init+0x265c>
   126c8:	e08f3003 	add	r3, pc, r3
   126cc:	e3e02005 	mvn	r2, #5
   126d0:	e5832010 	str	r2, [r3, #16]
   126d4:	e59f3864 	ldr	r3, [pc, #2148]	; 12f40 <fonts_init+0x2660>
   126d8:	e08f3003 	add	r3, pc, r3
   126dc:	e2833a01 	add	r3, r3, #4096	; 0x1000
   126e0:	e59f285c 	ldr	r2, [pc, #2140]	; 12f44 <fonts_init+0x2664>
   126e4:	e08f2002 	add	r2, pc, r2
   126e8:	e2833fc9 	add	r3, r3, #804	; 0x324
   126ec:	e1a01002 	mov	r1, r2
   126f0:	e3a02064 	mov	r2, #100	; 0x64
   126f4:	e1a00003 	mov	r0, r3
   126f8:	fa000c18 	blx	15760 <memcpy>
   126fc:	e59f3844 	ldr	r3, [pc, #2116]	; 12f48 <fonts_init+0x2668>
   12700:	e08f3003 	add	r3, pc, r3
   12704:	e3a02003 	mov	r2, #3
   12708:	e5832000 	str	r2, [r3]
   1270c:	e59f3838 	ldr	r3, [pc, #2104]	; 12f4c <fonts_init+0x266c>
   12710:	e08f3003 	add	r3, pc, r3
   12714:	e3a02000 	mov	r2, #0
   12718:	e5832004 	str	r2, [r3, #4]
   1271c:	e59f382c 	ldr	r3, [pc, #2092]	; 12f50 <fonts_init+0x2670>
   12720:	e08f3003 	add	r3, pc, r3
   12724:	e3e02005 	mvn	r2, #5
   12728:	e5832008 	str	r2, [r3, #8]
   1272c:	e59f3820 	ldr	r3, [pc, #2080]	; 12f54 <fonts_init+0x2674>
   12730:	e08f3003 	add	r3, pc, r3
   12734:	e3a02004 	mov	r2, #4
   12738:	e583200c 	str	r2, [r3, #12]
   1273c:	e59f3814 	ldr	r3, [pc, #2068]	; 12f58 <fonts_init+0x2678>
   12740:	e08f3003 	add	r3, pc, r3
   12744:	e3e02004 	mvn	r2, #4
   12748:	e5832010 	str	r2, [r3, #16]
   1274c:	e59f3808 	ldr	r3, [pc, #2056]	; 12f5c <fonts_init+0x267c>
   12750:	e08f3003 	add	r3, pc, r3
   12754:	e3a02004 	mov	r2, #4
   12758:	e5832014 	str	r2, [r3, #20]
   1275c:	e59f37fc 	ldr	r3, [pc, #2044]	; 12f60 <fonts_init+0x2680>
   12760:	e08f3003 	add	r3, pc, r3
   12764:	e3e02004 	mvn	r2, #4
   12768:	e5832018 	str	r2, [r3, #24]
   1276c:	e59f37f0 	ldr	r3, [pc, #2032]	; 12f64 <fonts_init+0x2684>
   12770:	e08f3003 	add	r3, pc, r3
   12774:	e3a02000 	mov	r2, #0
   12778:	e583201c 	str	r2, [r3, #28]
   1277c:	e59f37e4 	ldr	r3, [pc, #2020]	; 12f68 <fonts_init+0x2688>
   12780:	e08f3003 	add	r3, pc, r3
   12784:	e3a02000 	mov	r2, #0
   12788:	e5832020 	str	r2, [r3, #32]
   1278c:	e59f37d8 	ldr	r3, [pc, #2008]	; 12f6c <fonts_init+0x268c>
   12790:	e08f3003 	add	r3, pc, r3
   12794:	e3a02000 	mov	r2, #0
   12798:	e5832024 	str	r2, [r3, #36]	; 0x24
   1279c:	e59f37cc 	ldr	r3, [pc, #1996]	; 12f70 <fonts_init+0x2690>
   127a0:	e08f3003 	add	r3, pc, r3
   127a4:	e3a02000 	mov	r2, #0
   127a8:	e5832028 	str	r2, [r3, #40]	; 0x28
   127ac:	e59f37c0 	ldr	r3, [pc, #1984]	; 12f74 <fonts_init+0x2694>
   127b0:	e08f3003 	add	r3, pc, r3
   127b4:	e3a02004 	mov	r2, #4
   127b8:	e583202c 	str	r2, [r3, #44]	; 0x2c
   127bc:	e59f37b4 	ldr	r3, [pc, #1972]	; 12f78 <fonts_init+0x2698>
   127c0:	e08f3003 	add	r3, pc, r3
   127c4:	e3a02000 	mov	r2, #0
   127c8:	e5832030 	str	r2, [r3, #48]	; 0x30
   127cc:	e59f37a8 	ldr	r3, [pc, #1960]	; 12f7c <fonts_init+0x269c>
   127d0:	e08f3003 	add	r3, pc, r3
   127d4:	e2833a01 	add	r3, r3, #4096	; 0x1000
   127d8:	e59f27a0 	ldr	r2, [pc, #1952]	; 12f80 <fonts_init+0x26a0>
   127dc:	e08f2002 	add	r2, pc, r2
   127e0:	e2833fe2 	add	r3, r3, #904	; 0x388
   127e4:	e1a01002 	mov	r1, r2
   127e8:	e3a02064 	mov	r2, #100	; 0x64
   127ec:	e1a00003 	mov	r0, r3
   127f0:	fa000bda 	blx	15760 <memcpy>
   127f4:	e59f3788 	ldr	r3, [pc, #1928]	; 12f84 <fonts_init+0x26a4>
   127f8:	e08f3003 	add	r3, pc, r3
   127fc:	e3a02004 	mov	r2, #4
   12800:	e5832000 	str	r2, [r3]
   12804:	e59f377c 	ldr	r3, [pc, #1916]	; 12f88 <fonts_init+0x26a8>
   12808:	e08f3003 	add	r3, pc, r3
   1280c:	e3a02000 	mov	r2, #0
   12810:	e5832004 	str	r2, [r3, #4]
   12814:	e59f3770 	ldr	r3, [pc, #1904]	; 12f8c <fonts_init+0x26ac>
   12818:	e08f3003 	add	r3, pc, r3
   1281c:	e3a02000 	mov	r2, #0
   12820:	e5832008 	str	r2, [r3, #8]
   12824:	e59f3764 	ldr	r3, [pc, #1892]	; 12f90 <fonts_init+0x26b0>
   12828:	e08f3003 	add	r3, pc, r3
   1282c:	e3a02004 	mov	r2, #4
   12830:	e583200c 	str	r2, [r3, #12]
   12834:	e59f3758 	ldr	r3, [pc, #1880]	; 12f94 <fonts_init+0x26b4>
   12838:	e08f3003 	add	r3, pc, r3
   1283c:	e3a02000 	mov	r2, #0
   12840:	e5832010 	str	r2, [r3, #16]
   12844:	e59f374c 	ldr	r3, [pc, #1868]	; 12f98 <fonts_init+0x26b8>
   12848:	e08f3003 	add	r3, pc, r3
   1284c:	e3a02000 	mov	r2, #0
   12850:	e5832014 	str	r2, [r3, #20]
   12854:	e59f3740 	ldr	r3, [pc, #1856]	; 12f9c <fonts_init+0x26bc>
   12858:	e08f3003 	add	r3, pc, r3
   1285c:	e3e02005 	mvn	r2, #5
   12860:	e5832018 	str	r2, [r3, #24]
   12864:	e59f3734 	ldr	r3, [pc, #1844]	; 12fa0 <fonts_init+0x26c0>
   12868:	e08f3003 	add	r3, pc, r3
   1286c:	e3a02004 	mov	r2, #4
   12870:	e583201c 	str	r2, [r3, #28]
   12874:	e59f3728 	ldr	r3, [pc, #1832]	; 12fa4 <fonts_init+0x26c4>
   12878:	e08f3003 	add	r3, pc, r3
   1287c:	e3e02005 	mvn	r2, #5
   12880:	e5832020 	str	r2, [r3, #32]
   12884:	e59f371c 	ldr	r3, [pc, #1820]	; 12fa8 <fonts_init+0x26c8>
   12888:	e08f3003 	add	r3, pc, r3
   1288c:	e3a02000 	mov	r2, #0
   12890:	e5832024 	str	r2, [r3, #36]	; 0x24
   12894:	e59f3710 	ldr	r3, [pc, #1808]	; 12fac <fonts_init+0x26cc>
   12898:	e08f3003 	add	r3, pc, r3
   1289c:	e3e02002 	mvn	r2, #2
   128a0:	e5832028 	str	r2, [r3, #40]	; 0x28
   128a4:	e59f3704 	ldr	r3, [pc, #1796]	; 12fb0 <fonts_init+0x26d0>
   128a8:	e08f3003 	add	r3, pc, r3
   128ac:	e3a02004 	mov	r2, #4
   128b0:	e583202c 	str	r2, [r3, #44]	; 0x2c
   128b4:	e59f36f8 	ldr	r3, [pc, #1784]	; 12fb4 <fonts_init+0x26d4>
   128b8:	e08f3003 	add	r3, pc, r3
   128bc:	e3e02002 	mvn	r2, #2
   128c0:	e5832030 	str	r2, [r3, #48]	; 0x30
   128c4:	e59f36ec 	ldr	r3, [pc, #1772]	; 12fb8 <fonts_init+0x26d8>
   128c8:	e08f3003 	add	r3, pc, r3
   128cc:	e3a02004 	mov	r2, #4
   128d0:	e5832034 	str	r2, [r3, #52]	; 0x34
   128d4:	e59f36e0 	ldr	r3, [pc, #1760]	; 12fbc <fonts_init+0x26dc>
   128d8:	e08f3003 	add	r3, pc, r3
   128dc:	e3e02005 	mvn	r2, #5
   128e0:	e5832038 	str	r2, [r3, #56]	; 0x38
   128e4:	e59f36d4 	ldr	r3, [pc, #1748]	; 12fc0 <fonts_init+0x26e0>
   128e8:	e08f3003 	add	r3, pc, r3
   128ec:	e3a02004 	mov	r2, #4
   128f0:	e583203c 	str	r2, [r3, #60]	; 0x3c
   128f4:	e59f36c8 	ldr	r3, [pc, #1736]	; 12fc4 <fonts_init+0x26e4>
   128f8:	e08f3003 	add	r3, pc, r3
   128fc:	e3a02000 	mov	r2, #0
   12900:	e5832040 	str	r2, [r3, #64]	; 0x40
   12904:	e59f36bc 	ldr	r3, [pc, #1724]	; 12fc8 <fonts_init+0x26e8>
   12908:	e08f3003 	add	r3, pc, r3
   1290c:	e2833a01 	add	r3, r3, #4096	; 0x1000
   12910:	e59f26b4 	ldr	r2, [pc, #1716]	; 12fcc <fonts_init+0x26ec>
   12914:	e08f2002 	add	r2, pc, r2
   12918:	e2833ffb 	add	r3, r3, #1004	; 0x3ec
   1291c:	e1a01002 	mov	r1, r2
   12920:	e3a02064 	mov	r2, #100	; 0x64
   12924:	e1a00003 	mov	r0, r3
   12928:	fa000b8c 	blx	15760 <memcpy>
   1292c:	e59f369c 	ldr	r3, [pc, #1692]	; 12fd0 <fonts_init+0x26f0>
   12930:	e08f3003 	add	r3, pc, r3
   12934:	e3a02003 	mov	r2, #3
   12938:	e5832000 	str	r2, [r3]
   1293c:	e59f3690 	ldr	r3, [pc, #1680]	; 12fd4 <fonts_init+0x26f4>
   12940:	e08f3003 	add	r3, pc, r3
   12944:	e3a02004 	mov	r2, #4
   12948:	e5832004 	str	r2, [r3, #4]
   1294c:	e59f3684 	ldr	r3, [pc, #1668]	; 12fd8 <fonts_init+0x26f8>
   12950:	e08f3003 	add	r3, pc, r3
   12954:	e3a02000 	mov	r2, #0
   12958:	e5832008 	str	r2, [r3, #8]
   1295c:	e59f3678 	ldr	r3, [pc, #1656]	; 12fdc <fonts_init+0x26fc>
   12960:	e08f3003 	add	r3, pc, r3
   12964:	e3a02004 	mov	r2, #4
   12968:	e583200c 	str	r2, [r3, #12]
   1296c:	e59f366c 	ldr	r3, [pc, #1644]	; 12fe0 <fonts_init+0x2700>
   12970:	e08f3003 	add	r3, pc, r3
   12974:	e3e02005 	mvn	r2, #5
   12978:	e5832010 	str	r2, [r3, #16]
   1297c:	e59f3660 	ldr	r3, [pc, #1632]	; 12fe4 <fonts_init+0x2704>
   12980:	e08f3003 	add	r3, pc, r3
   12984:	e3a02004 	mov	r2, #4
   12988:	e5832014 	str	r2, [r3, #20]
   1298c:	e59f3654 	ldr	r3, [pc, #1620]	; 12fe8 <fonts_init+0x2708>
   12990:	e08f3003 	add	r3, pc, r3
   12994:	e3e02005 	mvn	r2, #5
   12998:	e5832018 	str	r2, [r3, #24]
   1299c:	e59f3648 	ldr	r3, [pc, #1608]	; 12fec <fonts_init+0x270c>
   129a0:	e08f3003 	add	r3, pc, r3
   129a4:	e3a02000 	mov	r2, #0
   129a8:	e583201c 	str	r2, [r3, #28]
   129ac:	e59f363c 	ldr	r3, [pc, #1596]	; 12ff0 <fonts_init+0x2710>
   129b0:	e08f3003 	add	r3, pc, r3
   129b4:	e3e02002 	mvn	r2, #2
   129b8:	e5832020 	str	r2, [r3, #32]
   129bc:	e59f3630 	ldr	r3, [pc, #1584]	; 12ff4 <fonts_init+0x2714>
   129c0:	e08f3003 	add	r3, pc, r3
   129c4:	e3a02000 	mov	r2, #0
   129c8:	e5832024 	str	r2, [r3, #36]	; 0x24
   129cc:	e59f3624 	ldr	r3, [pc, #1572]	; 12ff8 <fonts_init+0x2718>
   129d0:	e08f3003 	add	r3, pc, r3
   129d4:	e3e02002 	mvn	r2, #2
   129d8:	e5832028 	str	r2, [r3, #40]	; 0x28
   129dc:	e59f3618 	ldr	r3, [pc, #1560]	; 12ffc <fonts_init+0x271c>
   129e0:	e08f3003 	add	r3, pc, r3
   129e4:	e3a02004 	mov	r2, #4
   129e8:	e583202c 	str	r2, [r3, #44]	; 0x2c
   129ec:	e59f360c 	ldr	r3, [pc, #1548]	; 13000 <fonts_init+0x2720>
   129f0:	e08f3003 	add	r3, pc, r3
   129f4:	e3e02002 	mvn	r2, #2
   129f8:	e5832030 	str	r2, [r3, #48]	; 0x30
   129fc:	e59f3600 	ldr	r3, [pc, #1536]	; 13004 <fonts_init+0x2724>
   12a00:	e08f3003 	add	r3, pc, r3
   12a04:	e2833a01 	add	r3, r3, #4096	; 0x1000
   12a08:	e59f25f8 	ldr	r2, [pc, #1528]	; 13008 <fonts_init+0x2728>
   12a0c:	e08f2002 	add	r2, pc, r2
   12a10:	e2833e45 	add	r3, r3, #1104	; 0x450
   12a14:	e1a01002 	mov	r1, r2
   12a18:	e3a02064 	mov	r2, #100	; 0x64
   12a1c:	e1a00003 	mov	r0, r3
   12a20:	fa000b4e 	blx	15760 <memcpy>
   12a24:	e59f35e0 	ldr	r3, [pc, #1504]	; 1300c <fonts_init+0x272c>
   12a28:	e08f3003 	add	r3, pc, r3
   12a2c:	e3a02005 	mov	r2, #5
   12a30:	e5832000 	str	r2, [r3]
   12a34:	e59f35d4 	ldr	r3, [pc, #1492]	; 13010 <fonts_init+0x2730>
   12a38:	e08f3003 	add	r3, pc, r3
   12a3c:	e3a02000 	mov	r2, #0
   12a40:	e5832004 	str	r2, [r3, #4]
   12a44:	e59f35c8 	ldr	r3, [pc, #1480]	; 13014 <fonts_init+0x2734>
   12a48:	e08f3003 	add	r3, pc, r3
   12a4c:	e3a02000 	mov	r2, #0
   12a50:	e5832008 	str	r2, [r3, #8]
   12a54:	e59f35bc 	ldr	r3, [pc, #1468]	; 13018 <fonts_init+0x2738>
   12a58:	e08f3003 	add	r3, pc, r3
   12a5c:	e3a02004 	mov	r2, #4
   12a60:	e583200c 	str	r2, [r3, #12]
   12a64:	e59f35b0 	ldr	r3, [pc, #1456]	; 1301c <fonts_init+0x273c>
   12a68:	e08f3003 	add	r3, pc, r3
   12a6c:	e3a02000 	mov	r2, #0
   12a70:	e5832010 	str	r2, [r3, #16]
   12a74:	e59f35a4 	ldr	r3, [pc, #1444]	; 13020 <fonts_init+0x2740>
   12a78:	e08f3003 	add	r3, pc, r3
   12a7c:	e3a02000 	mov	r2, #0
   12a80:	e5832014 	str	r2, [r3, #20]
   12a84:	e59f3598 	ldr	r3, [pc, #1432]	; 13024 <fonts_init+0x2744>
   12a88:	e08f3003 	add	r3, pc, r3
   12a8c:	e3e02005 	mvn	r2, #5
   12a90:	e5832018 	str	r2, [r3, #24]
   12a94:	e59f358c 	ldr	r3, [pc, #1420]	; 13028 <fonts_init+0x2748>
   12a98:	e08f3003 	add	r3, pc, r3
   12a9c:	e3a02004 	mov	r2, #4
   12aa0:	e583201c 	str	r2, [r3, #28]
   12aa4:	e59f3580 	ldr	r3, [pc, #1408]	; 1302c <fonts_init+0x274c>
   12aa8:	e08f3003 	add	r3, pc, r3
   12aac:	e3e02005 	mvn	r2, #5
   12ab0:	e5832020 	str	r2, [r3, #32]
   12ab4:	e59f3574 	ldr	r3, [pc, #1396]	; 13030 <fonts_init+0x2750>
   12ab8:	e08f3003 	add	r3, pc, r3
   12abc:	e3a02000 	mov	r2, #0
   12ac0:	e5832024 	str	r2, [r3, #36]	; 0x24
   12ac4:	e59f3568 	ldr	r3, [pc, #1384]	; 13034 <fonts_init+0x2754>
   12ac8:	e08f3003 	add	r3, pc, r3
   12acc:	e3e02002 	mvn	r2, #2
   12ad0:	e5832028 	str	r2, [r3, #40]	; 0x28
   12ad4:	e59f355c 	ldr	r3, [pc, #1372]	; 13038 <fonts_init+0x2758>
   12ad8:	e08f3003 	add	r3, pc, r3
   12adc:	e3a02004 	mov	r2, #4
   12ae0:	e583202c 	str	r2, [r3, #44]	; 0x2c
   12ae4:	e59f3550 	ldr	r3, [pc, #1360]	; 1303c <fonts_init+0x275c>
   12ae8:	e08f3003 	add	r3, pc, r3
   12aec:	e3e02002 	mvn	r2, #2
   12af0:	e5832030 	str	r2, [r3, #48]	; 0x30
   12af4:	e59f3544 	ldr	r3, [pc, #1348]	; 13040 <fonts_init+0x2760>
   12af8:	e08f3003 	add	r3, pc, r3
   12afc:	e3a02000 	mov	r2, #0
   12b00:	e5832034 	str	r2, [r3, #52]	; 0x34
   12b04:	e59f3538 	ldr	r3, [pc, #1336]	; 13044 <fonts_init+0x2764>
   12b08:	e08f3003 	add	r3, pc, r3
   12b0c:	e3e02005 	mvn	r2, #5
   12b10:	e5832038 	str	r2, [r3, #56]	; 0x38
   12b14:	e59f352c 	ldr	r3, [pc, #1324]	; 13048 <fonts_init+0x2768>
   12b18:	e08f3003 	add	r3, pc, r3
   12b1c:	e3a02000 	mov	r2, #0
   12b20:	e583203c 	str	r2, [r3, #60]	; 0x3c
   12b24:	e59f3520 	ldr	r3, [pc, #1312]	; 1304c <fonts_init+0x276c>
   12b28:	e08f3003 	add	r3, pc, r3
   12b2c:	e3e02002 	mvn	r2, #2
   12b30:	e5832040 	str	r2, [r3, #64]	; 0x40
   12b34:	e59f3514 	ldr	r3, [pc, #1300]	; 13050 <fonts_init+0x2770>
   12b38:	e08f3003 	add	r3, pc, r3
   12b3c:	e3a02004 	mov	r2, #4
   12b40:	e5832044 	str	r2, [r3, #68]	; 0x44
   12b44:	e59f3508 	ldr	r3, [pc, #1288]	; 13054 <fonts_init+0x2774>
   12b48:	e08f3003 	add	r3, pc, r3
   12b4c:	e3a02000 	mov	r2, #0
   12b50:	e5832048 	str	r2, [r3, #72]	; 0x48
   12b54:	e59f34fc 	ldr	r3, [pc, #1276]	; 13058 <fonts_init+0x2778>
   12b58:	e08f3003 	add	r3, pc, r3
   12b5c:	e3a02004 	mov	r2, #4
   12b60:	e583204c 	str	r2, [r3, #76]	; 0x4c
   12b64:	e59f34f0 	ldr	r3, [pc, #1264]	; 1305c <fonts_init+0x277c>
   12b68:	e08f3003 	add	r3, pc, r3
   12b6c:	e3e02002 	mvn	r2, #2
   12b70:	e5832050 	str	r2, [r3, #80]	; 0x50
   12b74:	e59f34e4 	ldr	r3, [pc, #1252]	; 13060 <fonts_init+0x2780>
   12b78:	e08f3003 	add	r3, pc, r3
   12b7c:	e2833a01 	add	r3, r3, #4096	; 0x1000
   12b80:	e59f24dc 	ldr	r2, [pc, #1244]	; 13064 <fonts_init+0x2784>
   12b84:	e08f2002 	add	r2, pc, r2
   12b88:	e2833e4b 	add	r3, r3, #1200	; 0x4b0
   12b8c:	e2833004 	add	r3, r3, #4
   12b90:	e1a01002 	mov	r1, r2
   12b94:	e3a02064 	mov	r2, #100	; 0x64
   12b98:	e1a00003 	mov	r0, r3
   12b9c:	fa000aef 	blx	15760 <memcpy>
   12ba0:	e59f34c0 	ldr	r3, [pc, #1216]	; 13068 <fonts_init+0x2788>
   12ba4:	e08f3003 	add	r3, pc, r3
   12ba8:	e3a02005 	mov	r2, #5
   12bac:	e5832000 	str	r2, [r3]
   12bb0:	e59f34b4 	ldr	r3, [pc, #1204]	; 1306c <fonts_init+0x278c>
   12bb4:	e08f3003 	add	r3, pc, r3
   12bb8:	e3a02000 	mov	r2, #0
   12bbc:	e5832004 	str	r2, [r3, #4]
   12bc0:	e59f34a8 	ldr	r3, [pc, #1192]	; 13070 <fonts_init+0x2790>
   12bc4:	e08f3003 	add	r3, pc, r3
   12bc8:	e3a02000 	mov	r2, #0
   12bcc:	e5832008 	str	r2, [r3, #8]
   12bd0:	e59f349c 	ldr	r3, [pc, #1180]	; 13074 <fonts_init+0x2794>
   12bd4:	e08f3003 	add	r3, pc, r3
   12bd8:	e3a02004 	mov	r2, #4
   12bdc:	e583200c 	str	r2, [r3, #12]
   12be0:	e59f3490 	ldr	r3, [pc, #1168]	; 13078 <fonts_init+0x2798>
   12be4:	e08f3003 	add	r3, pc, r3
   12be8:	e3a02000 	mov	r2, #0
   12bec:	e5832010 	str	r2, [r3, #16]
   12bf0:	e59f3484 	ldr	r3, [pc, #1156]	; 1307c <fonts_init+0x279c>
   12bf4:	e08f3003 	add	r3, pc, r3
   12bf8:	e3a02000 	mov	r2, #0
   12bfc:	e5832014 	str	r2, [r3, #20]
   12c00:	e59f3478 	ldr	r3, [pc, #1144]	; 13080 <fonts_init+0x27a0>
   12c04:	e08f3003 	add	r3, pc, r3
   12c08:	e3e02005 	mvn	r2, #5
   12c0c:	e5832018 	str	r2, [r3, #24]
   12c10:	e59f346c 	ldr	r3, [pc, #1132]	; 13084 <fonts_init+0x27a4>
   12c14:	e08f3003 	add	r3, pc, r3
   12c18:	e3a02004 	mov	r2, #4
   12c1c:	e583201c 	str	r2, [r3, #28]
   12c20:	e59f3460 	ldr	r3, [pc, #1120]	; 13088 <fonts_init+0x27a8>
   12c24:	e08f3003 	add	r3, pc, r3
   12c28:	e3e02005 	mvn	r2, #5
   12c2c:	e5832020 	str	r2, [r3, #32]
   12c30:	e59f3454 	ldr	r3, [pc, #1108]	; 1308c <fonts_init+0x27ac>
   12c34:	e08f3003 	add	r3, pc, r3
   12c38:	e3a02000 	mov	r2, #0
   12c3c:	e5832024 	str	r2, [r3, #36]	; 0x24
   12c40:	e59f3448 	ldr	r3, [pc, #1096]	; 13090 <fonts_init+0x27b0>
   12c44:	e08f3003 	add	r3, pc, r3
   12c48:	e3e02002 	mvn	r2, #2
   12c4c:	e5832028 	str	r2, [r3, #40]	; 0x28
   12c50:	e59f343c 	ldr	r3, [pc, #1084]	; 13094 <fonts_init+0x27b4>
   12c54:	e08f3003 	add	r3, pc, r3
   12c58:	e3a02004 	mov	r2, #4
   12c5c:	e583202c 	str	r2, [r3, #44]	; 0x2c
   12c60:	e59f3430 	ldr	r3, [pc, #1072]	; 13098 <fonts_init+0x27b8>
   12c64:	e08f3003 	add	r3, pc, r3
   12c68:	e3e02002 	mvn	r2, #2
   12c6c:	e5832030 	str	r2, [r3, #48]	; 0x30
   12c70:	e59f3424 	ldr	r3, [pc, #1060]	; 1309c <fonts_init+0x27bc>
   12c74:	e08f3003 	add	r3, pc, r3
   12c78:	e3a02000 	mov	r2, #0
   12c7c:	e5832034 	str	r2, [r3, #52]	; 0x34
   12c80:	e59f3418 	ldr	r3, [pc, #1048]	; 130a0 <fonts_init+0x27c0>
   12c84:	e08f3003 	add	r3, pc, r3
   12c88:	e3e02005 	mvn	r2, #5
   12c8c:	e5832038 	str	r2, [r3, #56]	; 0x38
   12c90:	e59f340c 	ldr	r3, [pc, #1036]	; 130a4 <fonts_init+0x27c4>
   12c94:	e08f3003 	add	r3, pc, r3
   12c98:	e3a02000 	mov	r2, #0
   12c9c:	e583203c 	str	r2, [r3, #60]	; 0x3c
   12ca0:	e59f3400 	ldr	r3, [pc, #1024]	; 130a8 <fonts_init+0x27c8>
   12ca4:	e08f3003 	add	r3, pc, r3
   12ca8:	e3a02000 	mov	r2, #0
   12cac:	e5832040 	str	r2, [r3, #64]	; 0x40
   12cb0:	e59f33f4 	ldr	r3, [pc, #1012]	; 130ac <fonts_init+0x27cc>
   12cb4:	e08f3003 	add	r3, pc, r3
   12cb8:	e3a02004 	mov	r2, #4
   12cbc:	e5832044 	str	r2, [r3, #68]	; 0x44
   12cc0:	e59f33e8 	ldr	r3, [pc, #1000]	; 130b0 <fonts_init+0x27d0>
   12cc4:	e08f3003 	add	r3, pc, r3
   12cc8:	e3a02000 	mov	r2, #0
   12ccc:	e5832048 	str	r2, [r3, #72]	; 0x48
   12cd0:	ea00015e 	b	13250 <fonts_init+0x2970>
   12cd4:	000072ec 	andeq	r7, r0, ip, ror #5
   12cd8:	000072dc 	ldrdeq	r7, [r0], -ip
   12cdc:	000072cc 	andeq	r7, r0, ip, asr #5
   12ce0:	000072bc 			; <UNDEFINED> instruction: 0x000072bc
   12ce4:	000072ac 	andeq	r7, r0, ip, lsr #5
   12ce8:	0000729c 	muleq	r0, ip, r2
   12cec:	0000728c 	andeq	r7, r0, ip, lsl #5
   12cf0:	0000727c 	andeq	r7, r0, ip, ror r2
   12cf4:	0000726c 	andeq	r7, r0, ip, ror #4
   12cf8:	000072c0 	andeq	r7, r0, r0, asr #5
   12cfc:	00007250 	andeq	r7, r0, r0, asr r2
   12d00:	00007234 	andeq	r7, r0, r4, lsr r2
   12d04:	00007224 	andeq	r7, r0, r4, lsr #4
   12d08:	00007214 	andeq	r7, r0, r4, lsl r2
   12d0c:	00007204 	andeq	r7, r0, r4, lsl #4
   12d10:	000071f4 	strdeq	r7, [r0], -r4
   12d14:	000071e4 	andeq	r7, r0, r4, ror #3
   12d18:	000071d4 	ldrdeq	r7, [r0], -r4
   12d1c:	000071c4 	andeq	r7, r0, r4, asr #3
   12d20:	000071b4 			; <UNDEFINED> instruction: 0x000071b4
   12d24:	000071a4 	andeq	r7, r0, r4, lsr #3
   12d28:	00007194 	muleq	r0, r4, r1
   12d2c:	00007184 	andeq	r7, r0, r4, lsl #3
   12d30:	00007174 	andeq	r7, r0, r4, ror r1
   12d34:	00007164 	andeq	r7, r0, r4, ror #2
   12d38:	00007154 	andeq	r7, r0, r4, asr r1
   12d3c:	00007144 	andeq	r7, r0, r4, asr #2
   12d40:	00007134 	andeq	r7, r0, r4, lsr r1
   12d44:	00007188 	andeq	r7, r0, r8, lsl #3
   12d48:	00007118 	andeq	r7, r0, r8, lsl r1
   12d4c:	000070fc 	strdeq	r7, [r0], -ip
   12d50:	000070ec 	andeq	r7, r0, ip, ror #1
   12d54:	000070dc 	ldrdeq	r7, [r0], -ip
   12d58:	000070cc 	andeq	r7, r0, ip, asr #1
   12d5c:	000070bc 	strheq	r7, [r0], -ip
   12d60:	000070ac 	andeq	r7, r0, ip, lsr #1
   12d64:	0000709c 	muleq	r0, ip, r0
   12d68:	0000708c 	andeq	r7, r0, ip, lsl #1
   12d6c:	0000707c 	andeq	r7, r0, ip, ror r0
   12d70:	0000706c 	andeq	r7, r0, ip, rrx
   12d74:	0000705c 	andeq	r7, r0, ip, asr r0
   12d78:	0000704c 	andeq	r7, r0, ip, asr #32
   12d7c:	0000703c 	andeq	r7, r0, ip, lsr r0
   12d80:	0000702c 	andeq	r7, r0, ip, lsr #32
   12d84:	0000701c 	andeq	r7, r0, ip, lsl r0
   12d88:	0000700c 	andeq	r7, r0, ip
   12d8c:	00006ffc 	strdeq	r6, [r0], -ip
   12d90:	00006fec 	andeq	r6, r0, ip, ror #31
   12d94:	00006fdc 	ldrdeq	r6, [r0], -ip
   12d98:	00006fcc 	andeq	r6, r0, ip, asr #31
   12d9c:	00006fbc 			; <UNDEFINED> instruction: 0x00006fbc
   12da0:	00007010 	andeq	r7, r0, r0, lsl r0
   12da4:	00006fa0 	andeq	r6, r0, r0, lsr #31
   12da8:	00006f84 	andeq	r6, r0, r4, lsl #31
   12dac:	00006f74 	andeq	r6, r0, r4, ror pc
   12db0:	00006f64 	andeq	r6, r0, r4, ror #30
   12db4:	00006f54 	andeq	r6, r0, r4, asr pc
   12db8:	00006f44 	andeq	r6, r0, r4, asr #30
   12dbc:	00006f34 	andeq	r6, r0, r4, lsr pc
   12dc0:	00006f24 	andeq	r6, r0, r4, lsr #30
   12dc4:	00006f14 	andeq	r6, r0, r4, lsl pc
   12dc8:	00006f04 	andeq	r6, r0, r4, lsl #30
   12dcc:	00006f58 	andeq	r6, r0, r8, asr pc
   12dd0:	00006ee8 	andeq	r6, r0, r8, ror #29
   12dd4:	00006ecc 	andeq	r6, r0, ip, asr #29
   12dd8:	00006ebc 			; <UNDEFINED> instruction: 0x00006ebc
   12ddc:	00006eac 	andeq	r6, r0, ip, lsr #29
   12de0:	00006e9c 	muleq	r0, ip, lr
   12de4:	00006e8c 	andeq	r6, r0, ip, lsl #29
   12de8:	00006e7c 	andeq	r6, r0, ip, ror lr
   12dec:	00006e6c 	andeq	r6, r0, ip, ror #28
   12df0:	00006e5c 	andeq	r6, r0, ip, asr lr
   12df4:	00006e4c 	andeq	r6, r0, ip, asr #28
   12df8:	00006e3c 	andeq	r6, r0, ip, lsr lr
   12dfc:	00006e2c 	andeq	r6, r0, ip, lsr #28
   12e00:	00006e1c 	andeq	r6, r0, ip, lsl lr
   12e04:	00006e0c 	andeq	r6, r0, ip, lsl #28
   12e08:	00006e60 	andeq	r6, r0, r0, ror #28
   12e0c:	00006df0 	strdeq	r6, [r0], -r0
   12e10:	00006dd4 	ldrdeq	r6, [r0], -r4
   12e14:	00006dc4 	andeq	r6, r0, r4, asr #27
   12e18:	00006db4 			; <UNDEFINED> instruction: 0x00006db4
   12e1c:	00006da4 	andeq	r6, r0, r4, lsr #27
   12e20:	00006d94 	muleq	r0, r4, sp
   12e24:	00006d84 	andeq	r6, r0, r4, lsl #27
   12e28:	00006d74 	andeq	r6, r0, r4, ror sp
   12e2c:	00006d64 	andeq	r6, r0, r4, ror #26
   12e30:	00006d54 	andeq	r6, r0, r4, asr sp
   12e34:	00006da8 	andeq	r6, r0, r8, lsr #27
   12e38:	00006d38 	andeq	r6, r0, r8, lsr sp
   12e3c:	00006d1c 	andeq	r6, r0, ip, lsl sp
   12e40:	00006d0c 	andeq	r6, r0, ip, lsl #26
   12e44:	00006cfc 	strdeq	r6, [r0], -ip
   12e48:	00006cec 	andeq	r6, r0, ip, ror #25
   12e4c:	00006cdc 	ldrdeq	r6, [r0], -ip
   12e50:	00006ccc 	andeq	r6, r0, ip, asr #25
   12e54:	00006cbc 			; <UNDEFINED> instruction: 0x00006cbc
   12e58:	00006cac 	andeq	r6, r0, ip, lsr #25
   12e5c:	00006c9c 	muleq	r0, ip, ip
   12e60:	00006c8c 	andeq	r6, r0, ip, lsl #25
   12e64:	00006c7c 	andeq	r6, r0, ip, ror ip
   12e68:	00006c6c 	andeq	r6, r0, ip, ror #24
   12e6c:	00006c5c 	andeq	r6, r0, ip, asr ip
   12e70:	00006c4c 	andeq	r6, r0, ip, asr #24
   12e74:	00006c3c 	andeq	r6, r0, ip, lsr ip
   12e78:	00006c2c 	andeq	r6, r0, ip, lsr #24
   12e7c:	00006c1c 	andeq	r6, r0, ip, lsl ip
   12e80:	00006c70 	andeq	r6, r0, r0, ror ip
   12e84:	00006c00 	andeq	r6, r0, r0, lsl #24
   12e88:	00006be4 	andeq	r6, r0, r4, ror #23
   12e8c:	00006bd4 	ldrdeq	r6, [r0], -r4
   12e90:	00006bc4 	andeq	r6, r0, r4, asr #23
   12e94:	00006bb4 			; <UNDEFINED> instruction: 0x00006bb4
   12e98:	00006ba4 	andeq	r6, r0, r4, lsr #23
   12e9c:	00006b94 	muleq	r0, r4, fp
   12ea0:	00006b84 	andeq	r6, r0, r4, lsl #23
   12ea4:	00006b74 	andeq	r6, r0, r4, ror fp
   12ea8:	00006b64 	andeq	r6, r0, r4, ror #22
   12eac:	00006bb8 			; <UNDEFINED> instruction: 0x00006bb8
   12eb0:	00006b48 	andeq	r6, r0, r8, asr #22
   12eb4:	00006b2c 	andeq	r6, r0, ip, lsr #22
   12eb8:	00006b1c 	andeq	r6, r0, ip, lsl fp
   12ebc:	00006b0c 	andeq	r6, r0, ip, lsl #22
   12ec0:	00006afc 	strdeq	r6, [r0], -ip
   12ec4:	00006aec 	andeq	r6, r0, ip, ror #21
   12ec8:	00006adc 	ldrdeq	r6, [r0], -ip
   12ecc:	00006acc 	andeq	r6, r0, ip, asr #21
   12ed0:	00006abc 			; <UNDEFINED> instruction: 0x00006abc
   12ed4:	00006aac 	andeq	r6, r0, ip, lsr #21
   12ed8:	00006a9c 	muleq	r0, ip, sl
   12edc:	00006a8c 	andeq	r6, r0, ip, lsl #21
   12ee0:	00006a7c 	andeq	r6, r0, ip, ror sl
   12ee4:	00006a6c 	andeq	r6, r0, ip, ror #20
   12ee8:	00006ac0 	andeq	r6, r0, r0, asr #21
   12eec:	00006a50 	andeq	r6, r0, r0, asr sl
   12ef0:	00006a34 	andeq	r6, r0, r4, lsr sl
   12ef4:	00006a24 	andeq	r6, r0, r4, lsr #20
   12ef8:	00006a14 	andeq	r6, r0, r4, lsl sl
   12efc:	00006a04 	andeq	r6, r0, r4, lsl #20
   12f00:	000069f4 	strdeq	r6, [r0], -r4
   12f04:	000069e4 	andeq	r6, r0, r4, ror #19
   12f08:	000069d4 	ldrdeq	r6, [r0], -r4
   12f0c:	000069c4 	andeq	r6, r0, r4, asr #19
   12f10:	000069b4 			; <UNDEFINED> instruction: 0x000069b4
   12f14:	000069a4 	andeq	r6, r0, r4, lsr #19
   12f18:	00006994 	muleq	r0, r4, r9
   12f1c:	00006984 	andeq	r6, r0, r4, lsl #19
   12f20:	00006974 	andeq	r6, r0, r4, ror r9
   12f24:	000069c8 	andeq	r6, r0, r8, asr #19
   12f28:	00006958 	andeq	r6, r0, r8, asr r9
   12f2c:	0000693c 	andeq	r6, r0, ip, lsr r9
   12f30:	0000692c 	andeq	r6, r0, ip, lsr #18
   12f34:	0000691c 	andeq	r6, r0, ip, lsl r9
   12f38:	0000690c 	andeq	r6, r0, ip, lsl #18
   12f3c:	000068fc 	strdeq	r6, [r0], -ip
   12f40:	00006950 	andeq	r6, r0, r0, asr r9
   12f44:	000068e0 	andeq	r6, r0, r0, ror #17
   12f48:	000068c4 	andeq	r6, r0, r4, asr #17
   12f4c:	000068b4 			; <UNDEFINED> instruction: 0x000068b4
   12f50:	000068a4 	andeq	r6, r0, r4, lsr #17
   12f54:	00006894 	muleq	r0, r4, r8
   12f58:	00006884 	andeq	r6, r0, r4, lsl #17
   12f5c:	00006874 	andeq	r6, r0, r4, ror r8
   12f60:	00006864 	andeq	r6, r0, r4, ror #16
   12f64:	00006854 	andeq	r6, r0, r4, asr r8
   12f68:	00006844 	andeq	r6, r0, r4, asr #16
   12f6c:	00006834 	andeq	r6, r0, r4, lsr r8
   12f70:	00006824 	andeq	r6, r0, r4, lsr #16
   12f74:	00006814 	andeq	r6, r0, r4, lsl r8
   12f78:	00006804 	andeq	r6, r0, r4, lsl #16
   12f7c:	00006858 	andeq	r6, r0, r8, asr r8
   12f80:	000067e8 	andeq	r6, r0, r8, ror #15
   12f84:	000067cc 	andeq	r6, r0, ip, asr #15
   12f88:	000067bc 			; <UNDEFINED> instruction: 0x000067bc
   12f8c:	000067ac 	andeq	r6, r0, ip, lsr #15
   12f90:	0000679c 	muleq	r0, ip, r7
   12f94:	0000678c 	andeq	r6, r0, ip, lsl #15
   12f98:	0000677c 	andeq	r6, r0, ip, ror r7
   12f9c:	0000676c 	andeq	r6, r0, ip, ror #14
   12fa0:	0000675c 	andeq	r6, r0, ip, asr r7
   12fa4:	0000674c 	andeq	r6, r0, ip, asr #14
   12fa8:	0000673c 	andeq	r6, r0, ip, lsr r7
   12fac:	0000672c 	andeq	r6, r0, ip, lsr #14
   12fb0:	0000671c 	andeq	r6, r0, ip, lsl r7
   12fb4:	0000670c 	andeq	r6, r0, ip, lsl #14
   12fb8:	000066fc 	strdeq	r6, [r0], -ip
   12fbc:	000066ec 	andeq	r6, r0, ip, ror #13
   12fc0:	000066dc 	ldrdeq	r6, [r0], -ip
   12fc4:	000066cc 	andeq	r6, r0, ip, asr #13
   12fc8:	00006720 	andeq	r6, r0, r0, lsr #14
   12fcc:	000066b0 			; <UNDEFINED> instruction: 0x000066b0
   12fd0:	00006694 	muleq	r0, r4, r6
   12fd4:	00006684 	andeq	r6, r0, r4, lsl #13
   12fd8:	00006674 	andeq	r6, r0, r4, ror r6
   12fdc:	00006664 	andeq	r6, r0, r4, ror #12
   12fe0:	00006654 	andeq	r6, r0, r4, asr r6
   12fe4:	00006644 	andeq	r6, r0, r4, asr #12
   12fe8:	00006634 	andeq	r6, r0, r4, lsr r6
   12fec:	00006624 	andeq	r6, r0, r4, lsr #12
   12ff0:	00006614 	andeq	r6, r0, r4, lsl r6
   12ff4:	00006604 	andeq	r6, r0, r4, lsl #12
   12ff8:	000065f4 	strdeq	r6, [r0], -r4
   12ffc:	000065e4 	andeq	r6, r0, r4, ror #11
   13000:	000065d4 	ldrdeq	r6, [r0], -r4
   13004:	00006628 	andeq	r6, r0, r8, lsr #12
   13008:	000065b8 			; <UNDEFINED> instruction: 0x000065b8
   1300c:	0000659c 	muleq	r0, ip, r5
   13010:	0000658c 	andeq	r6, r0, ip, lsl #11
   13014:	0000657c 	andeq	r6, r0, ip, ror r5
   13018:	0000656c 	andeq	r6, r0, ip, ror #10
   1301c:	0000655c 	andeq	r6, r0, ip, asr r5
   13020:	0000654c 	andeq	r6, r0, ip, asr #10
   13024:	0000653c 	andeq	r6, r0, ip, lsr r5
   13028:	0000652c 	andeq	r6, r0, ip, lsr #10
   1302c:	0000651c 	andeq	r6, r0, ip, lsl r5
   13030:	0000650c 	andeq	r6, r0, ip, lsl #10
   13034:	000064fc 	strdeq	r6, [r0], -ip
   13038:	000064ec 	andeq	r6, r0, ip, ror #9
   1303c:	000064dc 	ldrdeq	r6, [r0], -ip
   13040:	000064cc 	andeq	r6, r0, ip, asr #9
   13044:	000064bc 			; <UNDEFINED> instruction: 0x000064bc
   13048:	000064ac 	andeq	r6, r0, ip, lsr #9
   1304c:	0000649c 	muleq	r0, ip, r4
   13050:	0000648c 	andeq	r6, r0, ip, lsl #9
   13054:	0000647c 	andeq	r6, r0, ip, ror r4
   13058:	0000646c 	andeq	r6, r0, ip, ror #8
   1305c:	0000645c 	andeq	r6, r0, ip, asr r4
   13060:	000064b0 			; <UNDEFINED> instruction: 0x000064b0
   13064:	00006440 	andeq	r6, r0, r0, asr #8
   13068:	00006420 	andeq	r6, r0, r0, lsr #8
   1306c:	00006410 	andeq	r6, r0, r0, lsl r4
   13070:	00006400 	andeq	r6, r0, r0, lsl #8
   13074:	000063f0 	strdeq	r6, [r0], -r0
   13078:	000063e0 	andeq	r6, r0, r0, ror #7
   1307c:	000063d0 	ldrdeq	r6, [r0], -r0
   13080:	000063c0 	andeq	r6, r0, r0, asr #7
   13084:	000063b0 			; <UNDEFINED> instruction: 0x000063b0
   13088:	000063a0 	andeq	r6, r0, r0, lsr #7
   1308c:	00006390 	muleq	r0, r0, r3
   13090:	00006380 	andeq	r6, r0, r0, lsl #7
   13094:	00006370 	andeq	r6, r0, r0, ror r3
   13098:	00006360 	andeq	r6, r0, r0, ror #6
   1309c:	00006350 	andeq	r6, r0, r0, asr r3
   130a0:	00006340 	andeq	r6, r0, r0, asr #6
   130a4:	00006330 	andeq	r6, r0, r0, lsr r3
   130a8:	00006320 	andeq	r6, r0, r0, lsr #6
   130ac:	00006310 	andeq	r6, r0, r0, lsl r3
   130b0:	00006300 	andeq	r6, r0, r0, lsl #6
   130b4:	00005d70 	andeq	r5, r0, r0, ror sp
   130b8:	00005d60 	andeq	r5, r0, r0, ror #26
   130bc:	00005db4 			; <UNDEFINED> instruction: 0x00005db4
   130c0:	00005d44 	andeq	r5, r0, r4, asr #26
   130c4:	00005d24 	andeq	r5, r0, r4, lsr #26
   130c8:	00005d14 	andeq	r5, r0, r4, lsl sp
   130cc:	00005d04 	andeq	r5, r0, r4, lsl #26
   130d0:	00005cf4 	strdeq	r5, [r0], -r4
   130d4:	00005ce4 	andeq	r5, r0, r4, ror #25
   130d8:	00005cd4 	ldrdeq	r5, [r0], -r4
   130dc:	00005cc4 	andeq	r5, r0, r4, asr #25
   130e0:	00005cb4 			; <UNDEFINED> instruction: 0x00005cb4
   130e4:	00005ca4 	andeq	r5, r0, r4, lsr #25
   130e8:	00005cf8 	strdeq	r5, [r0], -r8
   130ec:	00005c88 	andeq	r5, r0, r8, lsl #25
   130f0:	00005c68 	andeq	r5, r0, r8, ror #24
   130f4:	00005c58 	andeq	r5, r0, r8, asr ip
   130f8:	00005c48 	andeq	r5, r0, r8, asr #24
   130fc:	00005c38 	andeq	r5, r0, r8, lsr ip
   13100:	00005c28 	andeq	r5, r0, r8, lsr #24
   13104:	00005c18 	andeq	r5, r0, r8, lsl ip
   13108:	00005c08 	andeq	r5, r0, r8, lsl #24
   1310c:	00005bf8 	strdeq	r5, [r0], -r8
   13110:	00005be8 	andeq	r5, r0, r8, ror #23
   13114:	00005bd8 	ldrdeq	r5, [r0], -r8
   13118:	00005bc8 	andeq	r5, r0, r8, asr #23
   1311c:	00005bb8 			; <UNDEFINED> instruction: 0x00005bb8
   13120:	00005ba8 	andeq	r5, r0, r8, lsr #23
   13124:	00005b98 	muleq	r0, r8, fp
   13128:	00005b88 	andeq	r5, r0, r8, lsl #23
   1312c:	00005b78 	andeq	r5, r0, r8, ror fp
   13130:	00005b68 	andeq	r5, r0, r8, ror #22
   13134:	00005b58 	andeq	r5, r0, r8, asr fp
   13138:	00005b48 	andeq	r5, r0, r8, asr #22
   1313c:	00005b38 	andeq	r5, r0, r8, lsr fp
   13140:	00005b28 	andeq	r5, r0, r8, lsr #22
   13144:	00005b7c 	andeq	r5, r0, ip, ror fp
   13148:	00005b0c 	andeq	r5, r0, ip, lsl #22
   1314c:	00005af0 	strdeq	r5, [r0], -r0
   13150:	00005ae0 	andeq	r5, r0, r0, ror #21
   13154:	00005ad0 	ldrdeq	r5, [r0], -r0
   13158:	00005ac0 	andeq	r5, r0, r0, asr #21
   1315c:	00005ab0 			; <UNDEFINED> instruction: 0x00005ab0
   13160:	00005aa0 	andeq	r5, r0, r0, lsr #21
   13164:	00005a90 	muleq	r0, r0, sl
   13168:	00005a80 	andeq	r5, r0, r0, lsl #21
   1316c:	00005a70 	andeq	r5, r0, r0, ror sl
   13170:	00005a60 	andeq	r5, r0, r0, ror #20
   13174:	00005a50 	andeq	r5, r0, r0, asr sl
   13178:	00005a40 	andeq	r5, r0, r0, asr #20
   1317c:	00005a30 	andeq	r5, r0, r0, lsr sl
   13180:	00005a20 	andeq	r5, r0, r0, lsr #20
   13184:	00005a10 	andeq	r5, r0, r0, lsl sl
   13188:	00005a00 	andeq	r5, r0, r0, lsl #20
   1318c:	000059f0 	strdeq	r5, [r0], -r0
   13190:	000059e0 	andeq	r5, r0, r0, ror #19
   13194:	000059d0 	ldrdeq	r5, [r0], -r0
   13198:	000059c0 	andeq	r5, r0, r0, asr #19
   1319c:	000059b0 			; <UNDEFINED> instruction: 0x000059b0
   131a0:	00005a04 	andeq	r5, r0, r4, lsl #20
   131a4:	00005994 	muleq	r0, r4, r9
   131a8:	00005974 	andeq	r5, r0, r4, ror r9
   131ac:	00005964 	andeq	r5, r0, r4, ror #18
   131b0:	00005954 	andeq	r5, r0, r4, asr r9
   131b4:	00005944 	andeq	r5, r0, r4, asr #18
   131b8:	00005934 	andeq	r5, r0, r4, lsr r9
   131bc:	00005924 	andeq	r5, r0, r4, lsr #18
   131c0:	00005914 	andeq	r5, r0, r4, lsl r9
   131c4:	00005904 	andeq	r5, r0, r4, lsl #18
   131c8:	000058f4 	strdeq	r5, [r0], -r4
   131cc:	000058e4 	andeq	r5, r0, r4, ror #17
   131d0:	000058d4 	ldrdeq	r5, [r0], -r4
   131d4:	000058c4 	andeq	r5, r0, r4, asr #17
   131d8:	000058b4 			; <UNDEFINED> instruction: 0x000058b4
   131dc:	000058a4 	andeq	r5, r0, r4, lsr #17
   131e0:	00005894 	muleq	r0, r4, r8
   131e4:	00005884 	andeq	r5, r0, r4, lsl #17
   131e8:	00005874 	andeq	r5, r0, r4, ror r8
   131ec:	00005864 	andeq	r5, r0, r4, ror #16
   131f0:	00005854 	andeq	r5, r0, r4, asr r8
   131f4:	00005844 	andeq	r5, r0, r4, asr #16
   131f8:	00005834 	andeq	r5, r0, r4, lsr r8
   131fc:	00005888 	andeq	r5, r0, r8, lsl #17
   13200:	00005818 	andeq	r5, r0, r8, lsl r8
   13204:	000057fc 	strdeq	r5, [r0], -ip
   13208:	000057ec 	andeq	r5, r0, ip, ror #15
   1320c:	000057dc 	ldrdeq	r5, [r0], -ip
   13210:	000057cc 	andeq	r5, r0, ip, asr #15
   13214:	000057bc 			; <UNDEFINED> instruction: 0x000057bc
   13218:	000057ac 	andeq	r5, r0, ip, lsr #15
   1321c:	0000579c 	muleq	r0, ip, r7
   13220:	0000578c 	andeq	r5, r0, ip, lsl #15
   13224:	0000577c 	andeq	r5, r0, ip, ror r7
   13228:	0000576c 	andeq	r5, r0, ip, ror #14
   1322c:	0000575c 	andeq	r5, r0, ip, asr r7
   13230:	0000574c 	andeq	r5, r0, ip, asr #14
   13234:	0000573c 	andeq	r5, r0, ip, lsr r7
   13238:	0000572c 	andeq	r5, r0, ip, lsr #14
   1323c:	0000571c 	andeq	r5, r0, ip, lsl r7
   13240:	0000570c 	andeq	r5, r0, ip, lsl #14
   13244:	000056fc 	strdeq	r5, [r0], -ip
   13248:	00005750 	andeq	r5, r0, r0, asr r7
   1324c:	000056e4 	andeq	r5, r0, r4, ror #13
   13250:	e51f31a4 	ldr	r3, [pc, #-420]	; 130b4 <fonts_init+0x27d4>
   13254:	e08f3003 	add	r3, pc, r3
   13258:	e3a02004 	mov	r2, #4
   1325c:	e583204c 	str	r2, [r3, #76]	; 0x4c
   13260:	e51f31b0 	ldr	r3, [pc, #-432]	; 130b8 <fonts_init+0x27d8>
   13264:	e08f3003 	add	r3, pc, r3
   13268:	e3e02002 	mvn	r2, #2
   1326c:	e5832050 	str	r2, [r3, #80]	; 0x50
   13270:	e51f31bc 	ldr	r3, [pc, #-444]	; 130bc <fonts_init+0x27dc>
   13274:	e08f3003 	add	r3, pc, r3
   13278:	e2833a01 	add	r3, r3, #4096	; 0x1000
   1327c:	e51f21c4 	ldr	r2, [pc, #-452]	; 130c0 <fonts_init+0x27e0>
   13280:	e08f2002 	add	r2, pc, r2
   13284:	e2833e51 	add	r3, r3, #1296	; 0x510
   13288:	e2833008 	add	r3, r3, #8
   1328c:	e1a01002 	mov	r1, r2
   13290:	e3a02064 	mov	r2, #100	; 0x64
   13294:	e1a00003 	mov	r0, r3
   13298:	fa000930 	blx	15760 <memcpy>
   1329c:	e51f31e0 	ldr	r3, [pc, #-480]	; 130c4 <fonts_init+0x27e4>
   132a0:	e08f3003 	add	r3, pc, r3
   132a4:	e3a02002 	mov	r2, #2
   132a8:	e5832000 	str	r2, [r3]
   132ac:	e51f31ec 	ldr	r3, [pc, #-492]	; 130c8 <fonts_init+0x27e8>
   132b0:	e08f3003 	add	r3, pc, r3
   132b4:	e3a02000 	mov	r2, #0
   132b8:	e5832004 	str	r2, [r3, #4]
   132bc:	e51f31f8 	ldr	r3, [pc, #-504]	; 130cc <fonts_init+0x27ec>
   132c0:	e08f3003 	add	r3, pc, r3
   132c4:	e3e02005 	mvn	r2, #5
   132c8:	e5832008 	str	r2, [r3, #8]
   132cc:	e51f3204 	ldr	r3, [pc, #-516]	; 130d0 <fonts_init+0x27f0>
   132d0:	e08f3003 	add	r3, pc, r3
   132d4:	e3a02004 	mov	r2, #4
   132d8:	e583200c 	str	r2, [r3, #12]
   132dc:	e51f3210 	ldr	r3, [pc, #-528]	; 130d4 <fonts_init+0x27f4>
   132e0:	e08f3003 	add	r3, pc, r3
   132e4:	e3e02005 	mvn	r2, #5
   132e8:	e5832010 	str	r2, [r3, #16]
   132ec:	e51f321c 	ldr	r3, [pc, #-540]	; 130d8 <fonts_init+0x27f8>
   132f0:	e08f3003 	add	r3, pc, r3
   132f4:	e3a02004 	mov	r2, #4
   132f8:	e5832014 	str	r2, [r3, #20]
   132fc:	e51f3228 	ldr	r3, [pc, #-552]	; 130dc <fonts_init+0x27fc>
   13300:	e08f3003 	add	r3, pc, r3
   13304:	e3e02005 	mvn	r2, #5
   13308:	e5832018 	str	r2, [r3, #24]
   1330c:	e51f3234 	ldr	r3, [pc, #-564]	; 130e0 <fonts_init+0x2800>
   13310:	e08f3003 	add	r3, pc, r3
   13314:	e3a02000 	mov	r2, #0
   13318:	e583201c 	str	r2, [r3, #28]
   1331c:	e51f3240 	ldr	r3, [pc, #-576]	; 130e4 <fonts_init+0x2804>
   13320:	e08f3003 	add	r3, pc, r3
   13324:	e3a02000 	mov	r2, #0
   13328:	e5832020 	str	r2, [r3, #32]
   1332c:	e51f324c 	ldr	r3, [pc, #-588]	; 130e8 <fonts_init+0x2808>
   13330:	e08f3003 	add	r3, pc, r3
   13334:	e2833a01 	add	r3, r3, #4096	; 0x1000
   13338:	e51f2254 	ldr	r2, [pc, #-596]	; 130ec <fonts_init+0x280c>
   1333c:	e08f2002 	add	r2, pc, r2
   13340:	e2833e57 	add	r3, r3, #1392	; 0x570
   13344:	e283300c 	add	r3, r3, #12
   13348:	e1a01002 	mov	r1, r2
   1334c:	e3a02064 	mov	r2, #100	; 0x64
   13350:	e1a00003 	mov	r0, r3
   13354:	fa000901 	blx	15760 <memcpy>
   13358:	e51f3270 	ldr	r3, [pc, #-624]	; 130f0 <fonts_init+0x2810>
   1335c:	e08f3003 	add	r3, pc, r3
   13360:	e3a02005 	mov	r2, #5
   13364:	e5832000 	str	r2, [r3]
   13368:	e51f327c 	ldr	r3, [pc, #-636]	; 130f4 <fonts_init+0x2814>
   1336c:	e08f3003 	add	r3, pc, r3
   13370:	e3a02000 	mov	r2, #0
   13374:	e5832004 	str	r2, [r3, #4]
   13378:	e51f3288 	ldr	r3, [pc, #-648]	; 130f8 <fonts_init+0x2818>
   1337c:	e08f3003 	add	r3, pc, r3
   13380:	e3a02000 	mov	r2, #0
   13384:	e5832008 	str	r2, [r3, #8]
   13388:	e51f3294 	ldr	r3, [pc, #-660]	; 130fc <fonts_init+0x281c>
   1338c:	e08f3003 	add	r3, pc, r3
   13390:	e3a02004 	mov	r2, #4
   13394:	e583200c 	str	r2, [r3, #12]
   13398:	e51f32a0 	ldr	r3, [pc, #-672]	; 13100 <fonts_init+0x2820>
   1339c:	e08f3003 	add	r3, pc, r3
   133a0:	e3a02000 	mov	r2, #0
   133a4:	e5832010 	str	r2, [r3, #16]
   133a8:	e51f32ac 	ldr	r3, [pc, #-684]	; 13104 <fonts_init+0x2824>
   133ac:	e08f3003 	add	r3, pc, r3
   133b0:	e3a02000 	mov	r2, #0
   133b4:	e5832014 	str	r2, [r3, #20]
   133b8:	e51f32b8 	ldr	r3, [pc, #-696]	; 13108 <fonts_init+0x2828>
   133bc:	e08f3003 	add	r3, pc, r3
   133c0:	e3e02005 	mvn	r2, #5
   133c4:	e5832018 	str	r2, [r3, #24]
   133c8:	e51f32c4 	ldr	r3, [pc, #-708]	; 1310c <fonts_init+0x282c>
   133cc:	e08f3003 	add	r3, pc, r3
   133d0:	e3a02004 	mov	r2, #4
   133d4:	e583201c 	str	r2, [r3, #28]
   133d8:	e51f32d0 	ldr	r3, [pc, #-720]	; 13110 <fonts_init+0x2830>
   133dc:	e08f3003 	add	r3, pc, r3
   133e0:	e3e02005 	mvn	r2, #5
   133e4:	e5832020 	str	r2, [r3, #32]
   133e8:	e51f32dc 	ldr	r3, [pc, #-732]	; 13114 <fonts_init+0x2834>
   133ec:	e08f3003 	add	r3, pc, r3
   133f0:	e3a02000 	mov	r2, #0
   133f4:	e5832024 	str	r2, [r3, #36]	; 0x24
   133f8:	e51f32e8 	ldr	r3, [pc, #-744]	; 13118 <fonts_init+0x2838>
   133fc:	e08f3003 	add	r3, pc, r3
   13400:	e3e02002 	mvn	r2, #2
   13404:	e5832028 	str	r2, [r3, #40]	; 0x28
   13408:	e51f32f4 	ldr	r3, [pc, #-756]	; 1311c <fonts_init+0x283c>
   1340c:	e08f3003 	add	r3, pc, r3
   13410:	e3a02004 	mov	r2, #4
   13414:	e583202c 	str	r2, [r3, #44]	; 0x2c
   13418:	e51f3300 	ldr	r3, [pc, #-768]	; 13120 <fonts_init+0x2840>
   1341c:	e08f3003 	add	r3, pc, r3
   13420:	e3e02002 	mvn	r2, #2
   13424:	e5832030 	str	r2, [r3, #48]	; 0x30
   13428:	e51f330c 	ldr	r3, [pc, #-780]	; 13124 <fonts_init+0x2844>
   1342c:	e08f3003 	add	r3, pc, r3
   13430:	e3a02000 	mov	r2, #0
   13434:	e5832034 	str	r2, [r3, #52]	; 0x34
   13438:	e51f3318 	ldr	r3, [pc, #-792]	; 13128 <fonts_init+0x2848>
   1343c:	e08f3003 	add	r3, pc, r3
   13440:	e3e02005 	mvn	r2, #5
   13444:	e5832038 	str	r2, [r3, #56]	; 0x38
   13448:	e51f3324 	ldr	r3, [pc, #-804]	; 1312c <fonts_init+0x284c>
   1344c:	e08f3003 	add	r3, pc, r3
   13450:	e3a02000 	mov	r2, #0
   13454:	e583203c 	str	r2, [r3, #60]	; 0x3c
   13458:	e51f3330 	ldr	r3, [pc, #-816]	; 13130 <fonts_init+0x2850>
   1345c:	e08f3003 	add	r3, pc, r3
   13460:	e3a02000 	mov	r2, #0
   13464:	e5832040 	str	r2, [r3, #64]	; 0x40
   13468:	e51f333c 	ldr	r3, [pc, #-828]	; 13134 <fonts_init+0x2854>
   1346c:	e08f3003 	add	r3, pc, r3
   13470:	e3a02004 	mov	r2, #4
   13474:	e5832044 	str	r2, [r3, #68]	; 0x44
   13478:	e51f3348 	ldr	r3, [pc, #-840]	; 13138 <fonts_init+0x2858>
   1347c:	e08f3003 	add	r3, pc, r3
   13480:	e3a02000 	mov	r2, #0
   13484:	e5832048 	str	r2, [r3, #72]	; 0x48
   13488:	e51f3354 	ldr	r3, [pc, #-852]	; 1313c <fonts_init+0x285c>
   1348c:	e08f3003 	add	r3, pc, r3
   13490:	e3a02004 	mov	r2, #4
   13494:	e583204c 	str	r2, [r3, #76]	; 0x4c
   13498:	e51f3360 	ldr	r3, [pc, #-864]	; 13140 <fonts_init+0x2860>
   1349c:	e08f3003 	add	r3, pc, r3
   134a0:	e3e02005 	mvn	r2, #5
   134a4:	e5832050 	str	r2, [r3, #80]	; 0x50
   134a8:	e51f336c 	ldr	r3, [pc, #-876]	; 13144 <fonts_init+0x2864>
   134ac:	e08f3003 	add	r3, pc, r3
   134b0:	e2833a01 	add	r3, r3, #4096	; 0x1000
   134b4:	e51f2374 	ldr	r2, [pc, #-884]	; 13148 <fonts_init+0x2868>
   134b8:	e08f2002 	add	r2, pc, r2
   134bc:	e2833e5e 	add	r3, r3, #1504	; 0x5e0
   134c0:	e1a01002 	mov	r1, r2
   134c4:	e3a02064 	mov	r2, #100	; 0x64
   134c8:	e1a00003 	mov	r0, r3
   134cc:	fa0008a3 	blx	15760 <memcpy>
   134d0:	e51f338c 	ldr	r3, [pc, #-908]	; 1314c <fonts_init+0x286c>
   134d4:	e08f3003 	add	r3, pc, r3
   134d8:	e3a02005 	mov	r2, #5
   134dc:	e5832000 	str	r2, [r3]
   134e0:	e51f3398 	ldr	r3, [pc, #-920]	; 13150 <fonts_init+0x2870>
   134e4:	e08f3003 	add	r3, pc, r3
   134e8:	e3a02000 	mov	r2, #0
   134ec:	e5832004 	str	r2, [r3, #4]
   134f0:	e51f33a4 	ldr	r3, [pc, #-932]	; 13154 <fonts_init+0x2874>
   134f4:	e08f3003 	add	r3, pc, r3
   134f8:	e3a02000 	mov	r2, #0
   134fc:	e5832008 	str	r2, [r3, #8]
   13500:	e51f33b0 	ldr	r3, [pc, #-944]	; 13158 <fonts_init+0x2878>
   13504:	e08f3003 	add	r3, pc, r3
   13508:	e3a02004 	mov	r2, #4
   1350c:	e583200c 	str	r2, [r3, #12]
   13510:	e51f33bc 	ldr	r3, [pc, #-956]	; 1315c <fonts_init+0x287c>
   13514:	e08f3003 	add	r3, pc, r3
   13518:	e3a02000 	mov	r2, #0
   1351c:	e5832010 	str	r2, [r3, #16]
   13520:	e51f33c8 	ldr	r3, [pc, #-968]	; 13160 <fonts_init+0x2880>
   13524:	e08f3003 	add	r3, pc, r3
   13528:	e3a02000 	mov	r2, #0
   1352c:	e5832014 	str	r2, [r3, #20]
   13530:	e51f33d4 	ldr	r3, [pc, #-980]	; 13164 <fonts_init+0x2884>
   13534:	e08f3003 	add	r3, pc, r3
   13538:	e3e02005 	mvn	r2, #5
   1353c:	e5832018 	str	r2, [r3, #24]
   13540:	e51f33e0 	ldr	r3, [pc, #-992]	; 13168 <fonts_init+0x2888>
   13544:	e08f3003 	add	r3, pc, r3
   13548:	e3a02004 	mov	r2, #4
   1354c:	e583201c 	str	r2, [r3, #28]
   13550:	e51f33ec 	ldr	r3, [pc, #-1004]	; 1316c <fonts_init+0x288c>
   13554:	e08f3003 	add	r3, pc, r3
   13558:	e3e02005 	mvn	r2, #5
   1355c:	e5832020 	str	r2, [r3, #32]
   13560:	e51f33f8 	ldr	r3, [pc, #-1016]	; 13170 <fonts_init+0x2890>
   13564:	e08f3003 	add	r3, pc, r3
   13568:	e3a02000 	mov	r2, #0
   1356c:	e5832024 	str	r2, [r3, #36]	; 0x24
   13570:	e51f3404 	ldr	r3, [pc, #-1028]	; 13174 <fonts_init+0x2894>
   13574:	e08f3003 	add	r3, pc, r3
   13578:	e3e02002 	mvn	r2, #2
   1357c:	e5832028 	str	r2, [r3, #40]	; 0x28
   13580:	e51f3410 	ldr	r3, [pc, #-1040]	; 13178 <fonts_init+0x2898>
   13584:	e08f3003 	add	r3, pc, r3
   13588:	e3a02004 	mov	r2, #4
   1358c:	e583202c 	str	r2, [r3, #44]	; 0x2c
   13590:	e51f341c 	ldr	r3, [pc, #-1052]	; 1317c <fonts_init+0x289c>
   13594:	e08f3003 	add	r3, pc, r3
   13598:	e3e02002 	mvn	r2, #2
   1359c:	e5832030 	str	r2, [r3, #48]	; 0x30
   135a0:	e51f3428 	ldr	r3, [pc, #-1064]	; 13180 <fonts_init+0x28a0>
   135a4:	e08f3003 	add	r3, pc, r3
   135a8:	e3a02000 	mov	r2, #0
   135ac:	e5832034 	str	r2, [r3, #52]	; 0x34
   135b0:	e51f3434 	ldr	r3, [pc, #-1076]	; 13184 <fonts_init+0x28a4>
   135b4:	e08f3003 	add	r3, pc, r3
   135b8:	e3e02005 	mvn	r2, #5
   135bc:	e5832038 	str	r2, [r3, #56]	; 0x38
   135c0:	e51f3440 	ldr	r3, [pc, #-1088]	; 13188 <fonts_init+0x28a8>
   135c4:	e08f3003 	add	r3, pc, r3
   135c8:	e3a02000 	mov	r2, #0
   135cc:	e583203c 	str	r2, [r3, #60]	; 0x3c
   135d0:	e51f344c 	ldr	r3, [pc, #-1100]	; 1318c <fonts_init+0x28ac>
   135d4:	e08f3003 	add	r3, pc, r3
   135d8:	e3e02002 	mvn	r2, #2
   135dc:	e5832040 	str	r2, [r3, #64]	; 0x40
   135e0:	e51f3458 	ldr	r3, [pc, #-1112]	; 13190 <fonts_init+0x28b0>
   135e4:	e08f3003 	add	r3, pc, r3
   135e8:	e3a02004 	mov	r2, #4
   135ec:	e5832044 	str	r2, [r3, #68]	; 0x44
   135f0:	e51f3464 	ldr	r3, [pc, #-1124]	; 13194 <fonts_init+0x28b4>
   135f4:	e08f3003 	add	r3, pc, r3
   135f8:	e3a02000 	mov	r2, #0
   135fc:	e5832048 	str	r2, [r3, #72]	; 0x48
   13600:	e51f3470 	ldr	r3, [pc, #-1136]	; 13198 <fonts_init+0x28b8>
   13604:	e08f3003 	add	r3, pc, r3
   13608:	e3a02004 	mov	r2, #4
   1360c:	e583204c 	str	r2, [r3, #76]	; 0x4c
   13610:	e51f347c 	ldr	r3, [pc, #-1148]	; 1319c <fonts_init+0x28bc>
   13614:	e08f3003 	add	r3, pc, r3
   13618:	e3e02005 	mvn	r2, #5
   1361c:	e5832050 	str	r2, [r3, #80]	; 0x50
   13620:	e51f3488 	ldr	r3, [pc, #-1160]	; 131a0 <fonts_init+0x28c0>
   13624:	e08f3003 	add	r3, pc, r3
   13628:	e2833a01 	add	r3, r3, #4096	; 0x1000
   1362c:	e51f2490 	ldr	r2, [pc, #-1168]	; 131a4 <fonts_init+0x28c4>
   13630:	e08f2002 	add	r2, pc, r2
   13634:	e2833d19 	add	r3, r3, #1600	; 0x640
   13638:	e2833004 	add	r3, r3, #4
   1363c:	e1a01002 	mov	r1, r2
   13640:	e3a02064 	mov	r2, #100	; 0x64
   13644:	e1a00003 	mov	r0, r3
   13648:	fa000844 	blx	15760 <memcpy>
   1364c:	e51f34ac 	ldr	r3, [pc, #-1196]	; 131a8 <fonts_init+0x28c8>
   13650:	e08f3003 	add	r3, pc, r3
   13654:	e3a02005 	mov	r2, #5
   13658:	e5832000 	str	r2, [r3]
   1365c:	e51f34b8 	ldr	r3, [pc, #-1208]	; 131ac <fonts_init+0x28cc>
   13660:	e08f3003 	add	r3, pc, r3
   13664:	e3a02000 	mov	r2, #0
   13668:	e5832004 	str	r2, [r3, #4]
   1366c:	e51f34c4 	ldr	r3, [pc, #-1220]	; 131b0 <fonts_init+0x28d0>
   13670:	e08f3003 	add	r3, pc, r3
   13674:	e3a02000 	mov	r2, #0
   13678:	e5832008 	str	r2, [r3, #8]
   1367c:	e51f34d0 	ldr	r3, [pc, #-1232]	; 131b4 <fonts_init+0x28d4>
   13680:	e08f3003 	add	r3, pc, r3
   13684:	e3a02004 	mov	r2, #4
   13688:	e583200c 	str	r2, [r3, #12]
   1368c:	e51f34dc 	ldr	r3, [pc, #-1244]	; 131b8 <fonts_init+0x28d8>
   13690:	e08f3003 	add	r3, pc, r3
   13694:	e3a02000 	mov	r2, #0
   13698:	e5832010 	str	r2, [r3, #16]
   1369c:	e51f34e8 	ldr	r3, [pc, #-1256]	; 131bc <fonts_init+0x28dc>
   136a0:	e08f3003 	add	r3, pc, r3
   136a4:	e3a02000 	mov	r2, #0
   136a8:	e5832014 	str	r2, [r3, #20]
   136ac:	e51f34f4 	ldr	r3, [pc, #-1268]	; 131c0 <fonts_init+0x28e0>
   136b0:	e08f3003 	add	r3, pc, r3
   136b4:	e3e02005 	mvn	r2, #5
   136b8:	e5832018 	str	r2, [r3, #24]
   136bc:	e51f3500 	ldr	r3, [pc, #-1280]	; 131c4 <fonts_init+0x28e4>
   136c0:	e08f3003 	add	r3, pc, r3
   136c4:	e3a02004 	mov	r2, #4
   136c8:	e583201c 	str	r2, [r3, #28]
   136cc:	e51f350c 	ldr	r3, [pc, #-1292]	; 131c8 <fonts_init+0x28e8>
   136d0:	e08f3003 	add	r3, pc, r3
   136d4:	e3e02005 	mvn	r2, #5
   136d8:	e5832020 	str	r2, [r3, #32]
   136dc:	e51f3518 	ldr	r3, [pc, #-1304]	; 131cc <fonts_init+0x28ec>
   136e0:	e08f3003 	add	r3, pc, r3
   136e4:	e3a02000 	mov	r2, #0
   136e8:	e5832024 	str	r2, [r3, #36]	; 0x24
   136ec:	e51f3524 	ldr	r3, [pc, #-1316]	; 131d0 <fonts_init+0x28f0>
   136f0:	e08f3003 	add	r3, pc, r3
   136f4:	e3a02000 	mov	r2, #0
   136f8:	e5832028 	str	r2, [r3, #40]	; 0x28
   136fc:	e51f3530 	ldr	r3, [pc, #-1328]	; 131d4 <fonts_init+0x28f4>
   13700:	e08f3003 	add	r3, pc, r3
   13704:	e3a02004 	mov	r2, #4
   13708:	e583202c 	str	r2, [r3, #44]	; 0x2c
   1370c:	e51f353c 	ldr	r3, [pc, #-1340]	; 131d8 <fonts_init+0x28f8>
   13710:	e08f3003 	add	r3, pc, r3
   13714:	e3e02005 	mvn	r2, #5
   13718:	e5832030 	str	r2, [r3, #48]	; 0x30
   1371c:	e51f3548 	ldr	r3, [pc, #-1352]	; 131dc <fonts_init+0x28fc>
   13720:	e08f3003 	add	r3, pc, r3
   13724:	e3a02000 	mov	r2, #0
   13728:	e5832034 	str	r2, [r3, #52]	; 0x34
   1372c:	e51f3554 	ldr	r3, [pc, #-1364]	; 131e0 <fonts_init+0x2900>
   13730:	e08f3003 	add	r3, pc, r3
   13734:	e3e02005 	mvn	r2, #5
   13738:	e5832038 	str	r2, [r3, #56]	; 0x38
   1373c:	e51f3560 	ldr	r3, [pc, #-1376]	; 131e4 <fonts_init+0x2904>
   13740:	e08f3003 	add	r3, pc, r3
   13744:	e3a02000 	mov	r2, #0
   13748:	e583203c 	str	r2, [r3, #60]	; 0x3c
   1374c:	e51f356c 	ldr	r3, [pc, #-1388]	; 131e8 <fonts_init+0x2908>
   13750:	e08f3003 	add	r3, pc, r3
   13754:	e3a02000 	mov	r2, #0
   13758:	e5832040 	str	r2, [r3, #64]	; 0x40
   1375c:	e51f3578 	ldr	r3, [pc, #-1400]	; 131ec <fonts_init+0x290c>
   13760:	e08f3003 	add	r3, pc, r3
   13764:	e3a02004 	mov	r2, #4
   13768:	e5832044 	str	r2, [r3, #68]	; 0x44
   1376c:	e51f3584 	ldr	r3, [pc, #-1412]	; 131f0 <fonts_init+0x2910>
   13770:	e08f3003 	add	r3, pc, r3
   13774:	e3a02000 	mov	r2, #0
   13778:	e5832048 	str	r2, [r3, #72]	; 0x48
   1377c:	e51f3590 	ldr	r3, [pc, #-1424]	; 131f4 <fonts_init+0x2914>
   13780:	e08f3003 	add	r3, pc, r3
   13784:	e3a02004 	mov	r2, #4
   13788:	e583204c 	str	r2, [r3, #76]	; 0x4c
   1378c:	e51f359c 	ldr	r3, [pc, #-1436]	; 131f8 <fonts_init+0x2918>
   13790:	e08f3003 	add	r3, pc, r3
   13794:	e3e02005 	mvn	r2, #5
   13798:	e5832050 	str	r2, [r3, #80]	; 0x50
   1379c:	e51f35a8 	ldr	r3, [pc, #-1448]	; 131fc <fonts_init+0x291c>
   137a0:	e08f3003 	add	r3, pc, r3
   137a4:	e2833a01 	add	r3, r3, #4096	; 0x1000
   137a8:	e51f25b0 	ldr	r2, [pc, #-1456]	; 13200 <fonts_init+0x2920>
   137ac:	e08f2002 	add	r2, pc, r2
   137b0:	e2833d0b 	add	r3, r3, #704	; 0x2c0
   137b4:	e1a01002 	mov	r1, r2
   137b8:	e3a02064 	mov	r2, #100	; 0x64
   137bc:	e1a00003 	mov	r0, r3
   137c0:	fa0007e6 	blx	15760 <memcpy>
   137c4:	e51f35c8 	ldr	r3, [pc, #-1480]	; 13204 <fonts_init+0x2924>
   137c8:	e08f3003 	add	r3, pc, r3
   137cc:	e3a02004 	mov	r2, #4
   137d0:	e5832000 	str	r2, [r3]
   137d4:	e51f35d4 	ldr	r3, [pc, #-1492]	; 13208 <fonts_init+0x2928>
   137d8:	e08f3003 	add	r3, pc, r3
   137dc:	e3a02000 	mov	r2, #0
   137e0:	e5832004 	str	r2, [r3, #4]
   137e4:	e51f35e0 	ldr	r3, [pc, #-1504]	; 1320c <fonts_init+0x292c>
   137e8:	e08f3003 	add	r3, pc, r3
   137ec:	e3a02000 	mov	r2, #0
   137f0:	e5832008 	str	r2, [r3, #8]
   137f4:	e51f35ec 	ldr	r3, [pc, #-1516]	; 13210 <fonts_init+0x2930>
   137f8:	e08f3003 	add	r3, pc, r3
   137fc:	e3a02004 	mov	r2, #4
   13800:	e583200c 	str	r2, [r3, #12]
   13804:	e51f35f8 	ldr	r3, [pc, #-1528]	; 13214 <fonts_init+0x2934>
   13808:	e08f3003 	add	r3, pc, r3
   1380c:	e3e02001 	mvn	r2, #1
   13810:	e5832010 	str	r2, [r3, #16]
   13814:	e51f3604 	ldr	r3, [pc, #-1540]	; 13218 <fonts_init+0x2938>
   13818:	e08f3003 	add	r3, pc, r3
   1381c:	e3a02004 	mov	r2, #4
   13820:	e5832014 	str	r2, [r3, #20]
   13824:	e51f3610 	ldr	r3, [pc, #-1552]	; 1321c <fonts_init+0x293c>
   13828:	e08f3003 	add	r3, pc, r3
   1382c:	e3e02001 	mvn	r2, #1
   13830:	e5832018 	str	r2, [r3, #24]
   13834:	e51f361c 	ldr	r3, [pc, #-1564]	; 13220 <fonts_init+0x2940>
   13838:	e08f3003 	add	r3, pc, r3
   1383c:	e3a02000 	mov	r2, #0
   13840:	e583201c 	str	r2, [r3, #28]
   13844:	e51f3628 	ldr	r3, [pc, #-1576]	; 13224 <fonts_init+0x2944>
   13848:	e08f3003 	add	r3, pc, r3
   1384c:	e3e02003 	mvn	r2, #3
   13850:	e5832020 	str	r2, [r3, #32]
   13854:	e51f3634 	ldr	r3, [pc, #-1588]	; 13228 <fonts_init+0x2948>
   13858:	e08f3003 	add	r3, pc, r3
   1385c:	e3a02000 	mov	r2, #0
   13860:	e5832024 	str	r2, [r3, #36]	; 0x24
   13864:	e51f3640 	ldr	r3, [pc, #-1600]	; 1322c <fonts_init+0x294c>
   13868:	e08f3003 	add	r3, pc, r3
   1386c:	e3e02003 	mvn	r2, #3
   13870:	e5832028 	str	r2, [r3, #40]	; 0x28
   13874:	e51f364c 	ldr	r3, [pc, #-1612]	; 13230 <fonts_init+0x2950>
   13878:	e08f3003 	add	r3, pc, r3
   1387c:	e3a02004 	mov	r2, #4
   13880:	e583202c 	str	r2, [r3, #44]	; 0x2c
   13884:	e51f3658 	ldr	r3, [pc, #-1624]	; 13234 <fonts_init+0x2954>
   13888:	e08f3003 	add	r3, pc, r3
   1388c:	e3e02005 	mvn	r2, #5
   13890:	e5832030 	str	r2, [r3, #48]	; 0x30
   13894:	e51f3664 	ldr	r3, [pc, #-1636]	; 13238 <fonts_init+0x2958>
   13898:	e08f3003 	add	r3, pc, r3
   1389c:	e3a02002 	mov	r2, #2
   138a0:	e5832034 	str	r2, [r3, #52]	; 0x34
   138a4:	e51f3670 	ldr	r3, [pc, #-1648]	; 1323c <fonts_init+0x295c>
   138a8:	e08f3003 	add	r3, pc, r3
   138ac:	e3e02005 	mvn	r2, #5
   138b0:	e5832038 	str	r2, [r3, #56]	; 0x38
   138b4:	e51f367c 	ldr	r3, [pc, #-1660]	; 13240 <fonts_init+0x2960>
   138b8:	e08f3003 	add	r3, pc, r3
   138bc:	e3a02002 	mov	r2, #2
   138c0:	e583203c 	str	r2, [r3, #60]	; 0x3c
   138c4:	e51f3688 	ldr	r3, [pc, #-1672]	; 13244 <fonts_init+0x2964>
   138c8:	e08f3003 	add	r3, pc, r3
   138cc:	e3a02000 	mov	r2, #0
   138d0:	e5832040 	str	r2, [r3, #64]	; 0x40
   138d4:	e51f3694 	ldr	r3, [pc, #-1684]	; 13248 <fonts_init+0x2968>
   138d8:	e08f3003 	add	r3, pc, r3
   138dc:	e51f2698 	ldr	r2, [pc, #-1688]	; 1324c <fonts_init+0x296c>
   138e0:	e08f2002 	add	r2, pc, r2
   138e4:	e2833ee1 	add	r3, r3, #3600	; 0xe10
   138e8:	e1a01002 	mov	r1, r2
   138ec:	e3a02064 	mov	r2, #100	; 0x64
   138f0:	e1a00003 	mov	r0, r3
   138f4:	fa000799 	blx	15760 <memcpy>
   138f8:	e320f000 	nop	{0}
   138fc:	e24bd004 	sub	sp, fp, #4
   13900:	e8bd8800 	pop	{fp, pc}

00013904 <console_init>:
   13904:	e92d4800 	push	{fp, lr}
   13908:	e28db004 	add	fp, sp, #4
   1390c:	eb0001ec 	bl	140c4 <commands_init>
   13910:	e59f3010 	ldr	r3, [pc, #16]	; 13928 <console_init+0x24>
   13914:	e08f3003 	add	r3, pc, r3
   13918:	e3a0200d 	mov	r2, #13
   1391c:	e5c32000 	strb	r2, [r3]
   13920:	e320f000 	nop	{0}
   13924:	e8bd8800 	pop	{fp, pc}
   13928:	000088b0 			; <UNDEFINED> instruction: 0x000088b0

0001392c <console_puts>:
   1392c:	e92d4800 	push	{fp, lr}
   13930:	e28db004 	add	fp, sp, #4
   13934:	e24dd008 	sub	sp, sp, #8
   13938:	e50b0008 	str	r0, [fp, #-8]
   1393c:	e3e024ff 	mvn	r2, #-16777216	; 0xff000000
   13940:	e3a01002 	mov	r1, #2
   13944:	e51b0008 	ldr	r0, [fp, #-8]
   13948:	ebfff12a 	bl	fdf8 <hal_io_video_puts>
   1394c:	e51b1008 	ldr	r1, [fp, #-8]
   13950:	e3a00000 	mov	r0, #0
   13954:	ebfff2cd 	bl	10490 <hal_io_serial_puts>
   13958:	e320f000 	nop	{0}
   1395c:	e24bd004 	sub	sp, fp, #4
   13960:	e8bd8800 	pop	{fp, pc}

00013964 <console_printf>:
   13964:	e92d000f 	push	{r0, r1, r2, r3}
   13968:	e92d4800 	push	{fp, lr}
   1396c:	e28db004 	add	fp, sp, #4
   13970:	e59b0004 	ldr	r0, [fp, #4]
   13974:	ebffd5a1 	bl	9000 <printf_video>
   13978:	e1a03000 	mov	r3, r0
   1397c:	e1a00003 	mov	r0, r3
   13980:	e24bd004 	sub	sp, fp, #4
   13984:	e8bd4800 	pop	{fp, lr}
   13988:	e28dd010 	add	sp, sp, #16
   1398c:	e12fff1e 	bx	lr

00013990 <console_begin>:
   13990:	e92d4800 	push	{fp, lr}
   13994:	e28db004 	add	fp, sp, #4
   13998:	e24dd0a0 	sub	sp, sp, #160	; 0xa0
   1399c:	eb00008c 	bl	13bd4 <show_logo>
   139a0:	eb0000bd 	bl	13c9c <print_welcome_message>
   139a4:	e59f31fc 	ldr	r3, [pc, #508]	; 13ba8 <console_begin+0x218>
   139a8:	e08f3003 	add	r3, pc, r3
   139ac:	e1a00003 	mov	r0, r3
   139b0:	fa000897 	blx	15c14 <strlen>
   139b4:	e1a03000 	mov	r3, r0
   139b8:	e283300c 	add	r3, r3, #12
   139bc:	e50b3008 	str	r3, [fp, #-8]
   139c0:	e51bc008 	ldr	ip, [fp, #-8]
   139c4:	e1a0300c 	mov	r3, ip
   139c8:	e2433001 	sub	r3, r3, #1
   139cc:	e50b300c 	str	r3, [fp, #-12]
   139d0:	e1a0000c 	mov	r0, ip
   139d4:	e3a01000 	mov	r1, #0
   139d8:	e3a02000 	mov	r2, #0
   139dc:	e3a03000 	mov	r3, #0
   139e0:	e1a03181 	lsl	r3, r1, #3
   139e4:	e1833ea0 	orr	r3, r3, r0, lsr #29
   139e8:	e1a02180 	lsl	r2, r0, #3
   139ec:	e1a0000c 	mov	r0, ip
   139f0:	e3a01000 	mov	r1, #0
   139f4:	e3a02000 	mov	r2, #0
   139f8:	e3a03000 	mov	r3, #0
   139fc:	e1a03181 	lsl	r3, r1, #3
   13a00:	e1833ea0 	orr	r3, r3, r0, lsr #29
   13a04:	e1a02180 	lsl	r2, r0, #3
   13a08:	e28c3007 	add	r3, ip, #7
   13a0c:	e1a031a3 	lsr	r3, r3, #3
   13a10:	e1a03183 	lsl	r3, r3, #3
   13a14:	e04dd003 	sub	sp, sp, r3
   13a18:	e1a0300d 	mov	r3, sp
   13a1c:	e2833000 	add	r3, r3, #0
   13a20:	e50b3010 	str	r3, [fp, #-16]
   13a24:	e51b0010 	ldr	r0, [fp, #-16]
   13a28:	e59f317c 	ldr	r3, [pc, #380]	; 13bac <console_begin+0x21c>
   13a2c:	e08f3003 	add	r3, pc, r3
   13a30:	e59f2178 	ldr	r2, [pc, #376]	; 13bb0 <console_begin+0x220>
   13a34:	e08f2002 	add	r2, pc, r2
   13a38:	e59f1174 	ldr	r1, [pc, #372]	; 13bb4 <console_begin+0x224>
   13a3c:	e08f1001 	add	r1, pc, r1
   13a40:	ebffd55c 	bl	8fb8 <sprintf>
   13a44:	e59f316c 	ldr	r3, [pc, #364]	; 13bb8 <console_begin+0x228>
   13a48:	e08f3003 	add	r3, pc, r3
   13a4c:	e1a00003 	mov	r0, r3
   13a50:	ebffffb5 	bl	1392c <console_puts>
   13a54:	e51b3010 	ldr	r3, [fp, #-16]
   13a58:	e3a02cff 	mov	r2, #65280	; 0xff00
   13a5c:	e3a01002 	mov	r1, #2
   13a60:	e1a00003 	mov	r0, r3
   13a64:	ebfff0e3 	bl	fdf8 <hal_io_video_puts>
   13a68:	e51b3010 	ldr	r3, [fp, #-16]
   13a6c:	e1a01003 	mov	r1, r3
   13a70:	e3a00000 	mov	r0, #0
   13a74:	ebfff285 	bl	10490 <hal_io_serial_puts>
   13a78:	e24b3060 	sub	r3, fp, #96	; 0x60
   13a7c:	e1a00003 	mov	r0, r3
   13a80:	eb000118 	bl	13ee8 <readln>
   13a84:	e59f3130 	ldr	r3, [pc, #304]	; 13bbc <console_begin+0x22c>
   13a88:	e08f3003 	add	r3, pc, r3
   13a8c:	e1a00003 	mov	r0, r3
   13a90:	ebffffa5 	bl	1392c <console_puts>
   13a94:	e24b2078 	sub	r2, fp, #120	; 0x78
   13a98:	e24b3060 	sub	r3, fp, #96	; 0x60
   13a9c:	e1a01002 	mov	r1, r2
   13aa0:	e1a00003 	mov	r0, r3
   13aa4:	eb0000a0 	bl	13d2c <extract_command>
   13aa8:	e24b2090 	sub	r2, fp, #144	; 0x90
   13aac:	e24b3060 	sub	r3, fp, #96	; 0x60
   13ab0:	e1a01002 	mov	r1, r2
   13ab4:	e1a00003 	mov	r0, r3
   13ab8:	eb0000b8 	bl	13da0 <extract_param>
   13abc:	e50b0014 	str	r0, [fp, #-20]	; 0xffffffec
   13ac0:	e24b3078 	sub	r3, fp, #120	; 0x78
   13ac4:	e1a00003 	mov	r0, r3
   13ac8:	eb0000dc 	bl	13e40 <command_index>
   13acc:	e50b0018 	str	r0, [fp, #-24]	; 0xffffffe8
   13ad0:	e51b3018 	ldr	r3, [fp, #-24]	; 0xffffffe8
   13ad4:	e3730001 	cmn	r3, #1
   13ad8:	0a000008 	beq	13b00 <console_begin+0x170>
   13adc:	e59f30dc 	ldr	r3, [pc, #220]	; 13bc0 <console_begin+0x230>
   13ae0:	e08f3003 	add	r3, pc, r3
   13ae4:	e51b2018 	ldr	r2, [fp, #-24]	; 0xffffffe8
   13ae8:	e7933102 	ldr	r3, [r3, r2, lsl #2]
   13aec:	e24b2090 	sub	r2, fp, #144	; 0x90
   13af0:	e51b1014 	ldr	r1, [fp, #-20]	; 0xffffffec
   13af4:	e1a00002 	mov	r0, r2
   13af8:	e12fff33 	blx	r3
   13afc:	eaffffd0 	b	13a44 <console_begin+0xb4>
   13b00:	e24b20a0 	sub	r2, fp, #160	; 0xa0
   13b04:	e24b109c 	sub	r1, fp, #156	; 0x9c
   13b08:	e24b3078 	sub	r3, fp, #120	; 0x78
   13b0c:	e1a00003 	mov	r0, r3
   13b10:	eb00051e 	bl	14f90 <loader_load_app>
   13b14:	e50b001c 	str	r0, [fp, #-28]	; 0xffffffe4
   13b18:	e51b301c 	ldr	r3, [fp, #-28]	; 0xffffffe4
   13b1c:	e3530000 	cmp	r3, #0
   13b20:	1a000004 	bne	13b38 <console_begin+0x1a8>
   13b24:	e59f3098 	ldr	r3, [pc, #152]	; 13bc4 <console_begin+0x234>
   13b28:	e08f3003 	add	r3, pc, r3
   13b2c:	e1a00003 	mov	r0, r3
   13b30:	ebffff7d 	bl	1392c <console_puts>
   13b34:	ea00001a 	b	13ba4 <console_begin+0x214>
   13b38:	e51b301c 	ldr	r3, [fp, #-28]	; 0xffffffe4
   13b3c:	e3530001 	cmp	r3, #1
   13b40:	1a000004 	bne	13b58 <console_begin+0x1c8>
   13b44:	e59f307c 	ldr	r3, [pc, #124]	; 13bc8 <console_begin+0x238>
   13b48:	e08f3003 	add	r3, pc, r3
   13b4c:	e1a00003 	mov	r0, r3
   13b50:	ebffff75 	bl	1392c <console_puts>
   13b54:	ea000012 	b	13ba4 <console_begin+0x214>
   13b58:	e51b3098 	ldr	r3, [fp, #-152]	; 0xffffff68
   13b5c:	e12fff33 	blx	r3
   13b60:	e1a03000 	mov	r3, r0
   13b64:	e50b3020 	str	r3, [fp, #-32]	; 0xffffffe0
   13b68:	e51b3020 	ldr	r3, [fp, #-32]	; 0xffffffe0
   13b6c:	e3530000 	cmp	r3, #0
   13b70:	0a00000a 	beq	13ba0 <console_begin+0x210>
   13b74:	e51b1020 	ldr	r1, [fp, #-32]	; 0xffffffe0
   13b78:	e59f304c 	ldr	r3, [pc, #76]	; 13bcc <console_begin+0x23c>
   13b7c:	e08f3003 	add	r3, pc, r3
   13b80:	e1a00003 	mov	r0, r3
   13b84:	ebffd543 	bl	9098 <printf_serial>
   13b88:	e51b1020 	ldr	r1, [fp, #-32]	; 0xffffffe0
   13b8c:	e59f303c 	ldr	r3, [pc, #60]	; 13bd0 <console_begin+0x240>
   13b90:	e08f3003 	add	r3, pc, r3
   13b94:	e1a00003 	mov	r0, r3
   13b98:	ebffd518 	bl	9000 <printf_video>
   13b9c:	e320f000 	nop	{0}
   13ba0:	e320f000 	nop	{0}
   13ba4:	eaffffa6 	b	13a44 <console_begin+0xb4>
   13ba8:	020b3c68 	andeq	r3, fp, #104, 24	; 0x6800
   13bac:	020b3be4 	andeq	r3, fp, #228, 22	; 0x39000
   13bb0:	020b3be0 	andeq	r3, fp, #224, 22	; 0x38000
   13bb4:	020b3be0 	andeq	r3, fp, #224, 22	; 0x38000
   13bb8:	020b3bdc 	andeq	r3, fp, #220, 22	; 0x37000
   13bbc:	020b3b9c 	andeq	r3, fp, #156, 22	; 0x27000
   13bc0:	00002960 	andeq	r2, r0, r0, ror #18
   13bc4:	020b3b00 	andeq	r3, fp, #0, 22
   13bc8:	020b3af0 	andeq	r3, fp, #240, 20	; 0xf0000
   13bcc:	020b3ac8 	andeq	r3, fp, #200, 20	; 0xc8000
   13bd0:	020b3ab4 	andeq	r3, fp, #180, 20	; 0xb4000

00013bd4 <show_logo>:
   13bd4:	e92d4810 	push	{r4, fp, lr}
   13bd8:	e28db008 	add	fp, sp, #8
   13bdc:	e24dd02c 	sub	sp, sp, #44	; 0x2c
   13be0:	e59f409c 	ldr	r4, [pc, #156]	; 13c84 <show_logo+0xb0>
   13be4:	e08f4004 	add	r4, pc, r4
   13be8:	e59f3098 	ldr	r3, [pc, #152]	; 13c88 <show_logo+0xb4>
   13bec:	e08f3003 	add	r3, pc, r3
   13bf0:	e1a00003 	mov	r0, r3
   13bf4:	eb0003d4 	bl	14b4c <hal_nvmem_fat_file_size>
   13bf8:	e50b0010 	str	r0, [fp, #-16]
   13bfc:	e51b3010 	ldr	r3, [fp, #-16]
   13c00:	e3530000 	cmp	r3, #0
   13c04:	1a00000c 	bne	13c3c <show_logo+0x68>
   13c08:	e24b3034 	sub	r3, fp, #52	; 0x34
   13c0c:	e59f2078 	ldr	r2, [pc, #120]	; 13c8c <show_logo+0xb8>
   13c10:	e08f2002 	add	r2, pc, r2
   13c14:	e59f1074 	ldr	r1, [pc, #116]	; 13c90 <show_logo+0xbc>
   13c18:	e08f1001 	add	r1, pc, r1
   13c1c:	e1a00003 	mov	r0, r3
   13c20:	ebffd4e4 	bl	8fb8 <sprintf>
   13c24:	e24b3034 	sub	r3, fp, #52	; 0x34
   13c28:	e3a020ff 	mov	r2, #255	; 0xff
   13c2c:	e3a01002 	mov	r1, #2
   13c30:	e1a00003 	mov	r0, r3
   13c34:	ebfff06f 	bl	fdf8 <hal_io_video_puts>
   13c38:	ea00000f 	b	13c7c <show_logo+0xa8>
   13c3c:	e30a2e60 	movw	r2, #44640	; 0xae60
   13c40:	e340200a 	movt	r2, #10
   13c44:	e59f3048 	ldr	r3, [pc, #72]	; 13c94 <show_logo+0xc0>
   13c48:	e7943003 	ldr	r3, [r4, r3]
   13c4c:	e1a01003 	mov	r1, r3
   13c50:	e59f3040 	ldr	r3, [pc, #64]	; 13c98 <show_logo+0xc4>
   13c54:	e08f3003 	add	r3, pc, r3
   13c58:	e1a00003 	mov	r0, r3
   13c5c:	eb0003ec 	bl	14c14 <hal_nvmem_fat_file_read>
   13c60:	e50b0014 	str	r0, [fp, #-20]	; 0xffffffec
   13c64:	e3a03f4e 	mov	r3, #312	; 0x138
   13c68:	e3a02f5d 	mov	r2, #372	; 0x174
   13c6c:	e51b1014 	ldr	r1, [fp, #-20]	; 0xffffffec
   13c70:	e59f001c 	ldr	r0, [pc, #28]	; 13c94 <show_logo+0xc0>
   13c74:	e7940000 	ldr	r0, [r4, r0]
   13c78:	ebffefd2 	bl	fbc8 <hal_io_video_draw_image>
   13c7c:	e24bd008 	sub	sp, fp, #8
   13c80:	e8bd8810 	pop	{r4, fp, pc}
   13c84:	000027a8 	andeq	r2, r0, r8, lsr #15
   13c88:	020b3a78 	andeq	r3, fp, #120, 20	; 0x78000
   13c8c:	020b3a54 	andeq	r3, fp, #84, 20	; 0x54000
   13c90:	020b3a58 	andeq	r3, fp, #88, 20	; 0x58000
   13c94:	00000014 	andeq	r0, r0, r4, lsl r0
   13c98:	020b3a10 	andeq	r3, fp, #16, 20	; 0x10000

00013c9c <print_welcome_message>:
   13c9c:	e92d4800 	push	{fp, lr}
   13ca0:	e28db004 	add	fp, sp, #4
   13ca4:	e24dd040 	sub	sp, sp, #64	; 0x40
   13ca8:	e59f3068 	ldr	r3, [pc, #104]	; 13d18 <print_welcome_message+0x7c>
   13cac:	e08f3003 	add	r3, pc, r3
   13cb0:	e1a00003 	mov	r0, r3
   13cb4:	ebffff1c 	bl	1392c <console_puts>
   13cb8:	e24b0044 	sub	r0, fp, #68	; 0x44
   13cbc:	e59f3058 	ldr	r3, [pc, #88]	; 13d1c <print_welcome_message+0x80>
   13cc0:	e08f3003 	add	r3, pc, r3
   13cc4:	e59f2054 	ldr	r2, [pc, #84]	; 13d20 <print_welcome_message+0x84>
   13cc8:	e08f2002 	add	r2, pc, r2
   13ccc:	e59f1050 	ldr	r1, [pc, #80]	; 13d24 <print_welcome_message+0x88>
   13cd0:	e08f1001 	add	r1, pc, r1
   13cd4:	ebffd4b7 	bl	8fb8 <sprintf>
   13cd8:	e24b3044 	sub	r3, fp, #68	; 0x44
   13cdc:	e3a02cff 	mov	r2, #65280	; 0xff00
   13ce0:	e3a01003 	mov	r1, #3
   13ce4:	e1a00003 	mov	r0, r3
   13ce8:	ebfff042 	bl	fdf8 <hal_io_video_puts>
   13cec:	e24b3044 	sub	r3, fp, #68	; 0x44
   13cf0:	e1a01003 	mov	r1, r3
   13cf4:	e3a00000 	mov	r0, #0
   13cf8:	ebfff1e4 	bl	10490 <hal_io_serial_puts>
   13cfc:	e59f3024 	ldr	r3, [pc, #36]	; 13d28 <print_welcome_message+0x8c>
   13d00:	e08f3003 	add	r3, pc, r3
   13d04:	e1a00003 	mov	r0, r3
   13d08:	ebffff07 	bl	1392c <console_puts>
   13d0c:	e320f000 	nop	{0}
   13d10:	e24bd004 	sub	sp, fp, #4
   13d14:	e8bd8800 	pop	{fp, pc}
   13d18:	020b39f0 	andeq	r3, fp, #240, 18	; 0x3c0000
   13d1c:	020b39e0 	andeq	r3, fp, #224, 18	; 0x380000
   13d20:	020b39e0 	andeq	r3, fp, #224, 18	; 0x380000
   13d24:	020b39e0 	andeq	r3, fp, #224, 18	; 0x380000
   13d28:	020b399c 	andeq	r3, fp, #156, 18	; 0x270000

00013d2c <extract_command>:
   13d2c:	e52db004 	push	{fp}		; (str fp, [sp, #-4]!)
   13d30:	e28db000 	add	fp, sp, #0
   13d34:	e24dd014 	sub	sp, sp, #20
   13d38:	e50b0010 	str	r0, [fp, #-16]
   13d3c:	e50b1014 	str	r1, [fp, #-20]	; 0xffffffec
   13d40:	e51b2010 	ldr	r2, [fp, #-16]
   13d44:	e2823001 	add	r3, r2, #1
   13d48:	e50b3010 	str	r3, [fp, #-16]
   13d4c:	e51b3014 	ldr	r3, [fp, #-20]	; 0xffffffec
   13d50:	e2831001 	add	r1, r3, #1
   13d54:	e50b1014 	str	r1, [fp, #-20]	; 0xffffffec
   13d58:	e5d22000 	ldrb	r2, [r2]
   13d5c:	e5c32000 	strb	r2, [r3]
   13d60:	e5d33000 	ldrb	r3, [r3]
   13d64:	e54b3005 	strb	r3, [fp, #-5]
   13d68:	e55b3005 	ldrb	r3, [fp, #-5]
   13d6c:	e3530020 	cmp	r3, #32
   13d70:	0a000002 	beq	13d80 <extract_command+0x54>
   13d74:	e55b3005 	ldrb	r3, [fp, #-5]
   13d78:	e3530000 	cmp	r3, #0
   13d7c:	1affffef 	bne	13d40 <extract_command+0x14>
   13d80:	e51b3014 	ldr	r3, [fp, #-20]	; 0xffffffec
   13d84:	e2433001 	sub	r3, r3, #1
   13d88:	e3a02000 	mov	r2, #0
   13d8c:	e5c32000 	strb	r2, [r3]
   13d90:	e320f000 	nop	{0}
   13d94:	e28bd000 	add	sp, fp, #0
   13d98:	e49db004 	pop	{fp}		; (ldr fp, [sp], #4)
   13d9c:	e12fff1e 	bx	lr

00013da0 <extract_param>:
   13da0:	e52db004 	push	{fp}		; (str fp, [sp, #-4]!)
   13da4:	e28db000 	add	fp, sp, #0
   13da8:	e24dd014 	sub	sp, sp, #20
   13dac:	e50b0010 	str	r0, [fp, #-16]
   13db0:	e50b1014 	str	r1, [fp, #-20]	; 0xffffffec
   13db4:	e51b3010 	ldr	r3, [fp, #-16]
   13db8:	e2832001 	add	r2, r3, #1
   13dbc:	e50b2010 	str	r2, [fp, #-16]
   13dc0:	e5d33000 	ldrb	r3, [r3]
   13dc4:	e54b3005 	strb	r3, [fp, #-5]
   13dc8:	e55b3005 	ldrb	r3, [fp, #-5]
   13dcc:	e3530020 	cmp	r3, #32
   13dd0:	0a000002 	beq	13de0 <extract_param+0x40>
   13dd4:	e55b3005 	ldrb	r3, [fp, #-5]
   13dd8:	e3530000 	cmp	r3, #0
   13ddc:	1afffff4 	bne	13db4 <extract_param+0x14>
   13de0:	e51b3010 	ldr	r3, [fp, #-16]
   13de4:	e2433001 	sub	r3, r3, #1
   13de8:	e5d33000 	ldrb	r3, [r3]
   13dec:	e3530000 	cmp	r3, #0
   13df0:	1a000001 	bne	13dfc <extract_param+0x5c>
   13df4:	e3a03000 	mov	r3, #0
   13df8:	ea00000c 	b	13e30 <extract_param+0x90>
   13dfc:	e320f000 	nop	{0}
   13e00:	e51b2010 	ldr	r2, [fp, #-16]
   13e04:	e2823001 	add	r3, r2, #1
   13e08:	e50b3010 	str	r3, [fp, #-16]
   13e0c:	e51b3014 	ldr	r3, [fp, #-20]	; 0xffffffec
   13e10:	e2831001 	add	r1, r3, #1
   13e14:	e50b1014 	str	r1, [fp, #-20]	; 0xffffffec
   13e18:	e5d22000 	ldrb	r2, [r2]
   13e1c:	e5c32000 	strb	r2, [r3]
   13e20:	e5d33000 	ldrb	r3, [r3]
   13e24:	e3530000 	cmp	r3, #0
   13e28:	1afffff4 	bne	13e00 <extract_param+0x60>
   13e2c:	e3a03001 	mov	r3, #1
   13e30:	e1a00003 	mov	r0, r3
   13e34:	e28bd000 	add	sp, fp, #0
   13e38:	e49db004 	pop	{fp}		; (ldr fp, [sp], #4)
   13e3c:	e12fff1e 	bx	lr

00013e40 <command_index>:
   13e40:	e92d4800 	push	{fp, lr}
   13e44:	e28db004 	add	fp, sp, #4
   13e48:	e24dd010 	sub	sp, sp, #16
   13e4c:	e50b0010 	str	r0, [fp, #-16]
   13e50:	e59f3088 	ldr	r3, [pc, #136]	; 13ee0 <command_index+0xa0>
   13e54:	e08f3003 	add	r3, pc, r3
   13e58:	e50b3008 	str	r3, [fp, #-8]
   13e5c:	e3a03000 	mov	r3, #0
   13e60:	e50b300c 	str	r3, [fp, #-12]
   13e64:	ea00000f 	b	13ea8 <command_index+0x68>
   13e68:	e51b3008 	ldr	r3, [fp, #-8]
   13e6c:	e5933000 	ldr	r3, [r3]
   13e70:	e51b1010 	ldr	r1, [fp, #-16]
   13e74:	e1a00003 	mov	r0, r3
   13e78:	fa000673 	blx	1584c <strcmp>
   13e7c:	e1a03000 	mov	r3, r0
   13e80:	e3530000 	cmp	r3, #0
   13e84:	1a000001 	bne	13e90 <command_index+0x50>
   13e88:	e51b300c 	ldr	r3, [fp, #-12]
   13e8c:	ea000010 	b	13ed4 <command_index+0x94>
   13e90:	e51b3008 	ldr	r3, [fp, #-8]
   13e94:	e2833004 	add	r3, r3, #4
   13e98:	e50b3008 	str	r3, [fp, #-8]
   13e9c:	e51b300c 	ldr	r3, [fp, #-12]
   13ea0:	e2833001 	add	r3, r3, #1
   13ea4:	e50b300c 	str	r3, [fp, #-12]
   13ea8:	e51b3008 	ldr	r3, [fp, #-8]
   13eac:	e5933000 	ldr	r3, [r3]
   13eb0:	e59f202c 	ldr	r2, [pc, #44]	; 13ee4 <command_index+0xa4>
   13eb4:	e08f2002 	add	r2, pc, r2
   13eb8:	e1a01002 	mov	r1, r2
   13ebc:	e1a00003 	mov	r0, r3
   13ec0:	fa000661 	blx	1584c <strcmp>
   13ec4:	e1a03000 	mov	r3, r0
   13ec8:	e3530000 	cmp	r3, #0
   13ecc:	1affffe5 	bne	13e68 <command_index+0x28>
   13ed0:	e3e03000 	mvn	r3, #0
   13ed4:	e1a00003 	mov	r0, r3
   13ed8:	e24bd004 	sub	sp, fp, #4
   13edc:	e8bd8800 	pop	{fp, pc}
   13ee0:	000025a0 	andeq	r2, r0, r0, lsr #11
   13ee4:	020b3724 	andeq	r3, fp, #36, 14	; 0x900000

00013ee8 <readln>:
   13ee8:	e92d4800 	push	{fp, lr}
   13eec:	e28db004 	add	fp, sp, #4
   13ef0:	e24dd010 	sub	sp, sp, #16
   13ef4:	e50b0010 	str	r0, [fp, #-16]
   13ef8:	e3a00000 	mov	r0, #0
   13efc:	ebfff18a 	bl	1052c <hal_io_serial_getc>
   13f00:	e1a03000 	mov	r3, r0
   13f04:	e54b3005 	strb	r3, [fp, #-5]
   13f08:	e59f30ec 	ldr	r3, [pc, #236]	; 13ffc <readln+0x114>
   13f0c:	e08f3003 	add	r3, pc, r3
   13f10:	e5d33000 	ldrb	r3, [r3]
   13f14:	e55b2005 	ldrb	r2, [fp, #-5]
   13f18:	e1520003 	cmp	r2, r3
   13f1c:	0a000008 	beq	13f44 <readln+0x5c>
   13f20:	e55b3005 	ldrb	r3, [fp, #-5]
   13f24:	e3e024ff 	mvn	r2, #-16777216	; 0xff000000
   13f28:	e3a01002 	mov	r1, #2
   13f2c:	e1a00003 	mov	r0, r3
   13f30:	ebffefc6 	bl	fe50 <hal_io_video_putc>
   13f34:	e55b3005 	ldrb	r3, [fp, #-5]
   13f38:	e1a01003 	mov	r1, r3
   13f3c:	e3a00000 	mov	r0, #0
   13f40:	ebfff166 	bl	104e0 <hal_io_serial_putc>
   13f44:	e55b3005 	ldrb	r3, [fp, #-5]
   13f48:	e1a00003 	mov	r0, r3
   13f4c:	eb00002e 	bl	1400c <is_alpha>
   13f50:	e1a03000 	mov	r3, r0
   13f54:	e3530000 	cmp	r3, #0
   13f58:	1a000011 	bne	13fa4 <readln+0xbc>
   13f5c:	e55b3005 	ldrb	r3, [fp, #-5]
   13f60:	e1a00003 	mov	r0, r3
   13f64:	eb000042 	bl	14074 <is_number>
   13f68:	e1a03000 	mov	r3, r0
   13f6c:	e3530000 	cmp	r3, #0
   13f70:	1a00000b 	bne	13fa4 <readln+0xbc>
   13f74:	e59f3084 	ldr	r3, [pc, #132]	; 14000 <readln+0x118>
   13f78:	e08f3003 	add	r3, pc, r3
   13f7c:	e5d33000 	ldrb	r3, [r3]
   13f80:	e55b2005 	ldrb	r2, [fp, #-5]
   13f84:	e1520003 	cmp	r2, r3
   13f88:	0a000005 	beq	13fa4 <readln+0xbc>
   13f8c:	e55b3005 	ldrb	r3, [fp, #-5]
   13f90:	e3530020 	cmp	r3, #32
   13f94:	0a000002 	beq	13fa4 <readln+0xbc>
   13f98:	e55b3005 	ldrb	r3, [fp, #-5]
   13f9c:	e353002e 	cmp	r3, #46	; 0x2e
   13fa0:	1a000004 	bne	13fb8 <readln+0xd0>
   13fa4:	e51b3010 	ldr	r3, [fp, #-16]
   13fa8:	e2832001 	add	r2, r3, #1
   13fac:	e50b2010 	str	r2, [fp, #-16]
   13fb0:	e55b2005 	ldrb	r2, [fp, #-5]
   13fb4:	e5c32000 	strb	r2, [r3]
   13fb8:	e59f3044 	ldr	r3, [pc, #68]	; 14004 <readln+0x11c>
   13fbc:	e08f3003 	add	r3, pc, r3
   13fc0:	e5d33000 	ldrb	r3, [r3]
   13fc4:	e55b2005 	ldrb	r2, [fp, #-5]
   13fc8:	e1520003 	cmp	r2, r3
   13fcc:	1affffc9 	bne	13ef8 <readln+0x10>
   13fd0:	e51b3010 	ldr	r3, [fp, #-16]
   13fd4:	e2433001 	sub	r3, r3, #1
   13fd8:	e3a02000 	mov	r2, #0
   13fdc:	e5c32000 	strb	r2, [r3]
   13fe0:	e59f3020 	ldr	r3, [pc, #32]	; 14008 <readln+0x120>
   13fe4:	e08f3003 	add	r3, pc, r3
   13fe8:	e1a00003 	mov	r0, r3
   13fec:	ebfffe4e 	bl	1392c <console_puts>
   13ff0:	e320f000 	nop	{0}
   13ff4:	e24bd004 	sub	sp, fp, #4
   13ff8:	e8bd8800 	pop	{fp, pc}
   13ffc:	000082b8 			; <UNDEFINED> instruction: 0x000082b8
   14000:	0000824c 	andeq	r8, r0, ip, asr #4
   14004:	00008208 	andeq	r8, r0, r8, lsl #4
   14008:	020b36b8 	andeq	r3, fp, #184, 12	; 0xb800000

0001400c <is_alpha>:
   1400c:	e52db004 	push	{fp}		; (str fp, [sp, #-4]!)
   14010:	e28db000 	add	fp, sp, #0
   14014:	e24dd00c 	sub	sp, sp, #12
   14018:	e1a03000 	mov	r3, r0
   1401c:	e54b3005 	strb	r3, [fp, #-5]
   14020:	e55b3005 	ldrb	r3, [fp, #-5]
   14024:	e3530040 	cmp	r3, #64	; 0x40
   14028:	9a000002 	bls	14038 <is_alpha+0x2c>
   1402c:	e55b3005 	ldrb	r3, [fp, #-5]
   14030:	e353005a 	cmp	r3, #90	; 0x5a
   14034:	9a000005 	bls	14050 <is_alpha+0x44>
   14038:	e55b3005 	ldrb	r3, [fp, #-5]
   1403c:	e3530060 	cmp	r3, #96	; 0x60
   14040:	9a000004 	bls	14058 <is_alpha+0x4c>
   14044:	e55b3005 	ldrb	r3, [fp, #-5]
   14048:	e353007a 	cmp	r3, #122	; 0x7a
   1404c:	8a000001 	bhi	14058 <is_alpha+0x4c>
   14050:	e3a03001 	mov	r3, #1
   14054:	ea000000 	b	1405c <is_alpha+0x50>
   14058:	e3a03000 	mov	r3, #0
   1405c:	e2033001 	and	r3, r3, #1
   14060:	e6ef3073 	uxtb	r3, r3
   14064:	e1a00003 	mov	r0, r3
   14068:	e28bd000 	add	sp, fp, #0
   1406c:	e49db004 	pop	{fp}		; (ldr fp, [sp], #4)
   14070:	e12fff1e 	bx	lr

00014074 <is_number>:
   14074:	e52db004 	push	{fp}		; (str fp, [sp, #-4]!)
   14078:	e28db000 	add	fp, sp, #0
   1407c:	e24dd00c 	sub	sp, sp, #12
   14080:	e1a03000 	mov	r3, r0
   14084:	e54b3005 	strb	r3, [fp, #-5]
   14088:	e55b3005 	ldrb	r3, [fp, #-5]
   1408c:	e353002f 	cmp	r3, #47	; 0x2f
   14090:	9a000004 	bls	140a8 <is_number+0x34>
   14094:	e55b3005 	ldrb	r3, [fp, #-5]
   14098:	e3530039 	cmp	r3, #57	; 0x39
   1409c:	8a000001 	bhi	140a8 <is_number+0x34>
   140a0:	e3a03001 	mov	r3, #1
   140a4:	ea000000 	b	140ac <is_number+0x38>
   140a8:	e3a03000 	mov	r3, #0
   140ac:	e2033001 	and	r3, r3, #1
   140b0:	e6ef3073 	uxtb	r3, r3
   140b4:	e1a00003 	mov	r0, r3
   140b8:	e28bd000 	add	sp, fp, #0
   140bc:	e49db004 	pop	{fp}		; (ldr fp, [sp], #4)
   140c0:	e12fff1e 	bx	lr

000140c4 <commands_init>:
   140c4:	e92d4800 	push	{fp, lr}
   140c8:	e28db004 	add	fp, sp, #4
   140cc:	e24dd008 	sub	sp, sp, #8
   140d0:	e59f3068 	ldr	r3, [pc, #104]	; 14140 <commands_init+0x7c>
   140d4:	e08f3003 	add	r3, pc, r3
   140d8:	e3a02000 	mov	r2, #0
   140dc:	e50b2008 	str	r2, [fp, #-8]
   140e0:	ea000008 	b	14108 <commands_init+0x44>
   140e4:	e59f2058 	ldr	r2, [pc, #88]	; 14144 <commands_init+0x80>
   140e8:	e7931002 	ldr	r1, [r3, r2]
   140ec:	e51b2008 	ldr	r2, [fp, #-8]
   140f0:	e0812002 	add	r2, r1, r2
   140f4:	e3a01000 	mov	r1, #0
   140f8:	e5c21000 	strb	r1, [r2]
   140fc:	e51b2008 	ldr	r2, [fp, #-8]
   14100:	e2822001 	add	r2, r2, #1
   14104:	e50b2008 	str	r2, [fp, #-8]
   14108:	e51b2008 	ldr	r2, [fp, #-8]
   1410c:	e3520063 	cmp	r2, #99	; 0x63
   14110:	9afffff3 	bls	140e4 <commands_init+0x20>
   14114:	e59f202c 	ldr	r2, [pc, #44]	; 14148 <commands_init+0x84>
   14118:	e08f2002 	add	r2, pc, r2
   1411c:	e59f1028 	ldr	r1, [pc, #40]	; 1414c <commands_init+0x88>
   14120:	e08f1001 	add	r1, pc, r1
   14124:	e59f0018 	ldr	r0, [pc, #24]	; 14144 <commands_init+0x80>
   14128:	e7933000 	ldr	r3, [r3, r0]
   1412c:	e1a00003 	mov	r0, r3
   14130:	ebffd3a0 	bl	8fb8 <sprintf>
   14134:	e320f000 	nop	{0}
   14138:	e24bd004 	sub	sp, fp, #4
   1413c:	e8bd8800 	pop	{fp, pc}
   14140:	000022b8 			; <UNDEFINED> instruction: 0x000022b8
   14144:	00000010 	andeq	r0, r0, r0, lsl r0
   14148:	020b35b0 	andeq	r3, fp, #176, 10	; 0x2c000000
   1414c:	020b35ac 	andeq	r3, fp, #172, 10	; 0x2b000000

00014150 <commands_cd>:
   14150:	e92d4810 	push	{r4, fp, lr}
   14154:	e28db008 	add	fp, sp, #8
   14158:	e24dd014 	sub	sp, sp, #20
   1415c:	e50b0018 	str	r0, [fp, #-24]	; 0xffffffe8
   14160:	e50b101c 	str	r1, [fp, #-28]	; 0xffffffe4
   14164:	e59f40f8 	ldr	r4, [pc, #248]	; 14264 <commands_cd+0x114>
   14168:	e08f4004 	add	r4, pc, r4
   1416c:	e51b301c 	ldr	r3, [fp, #-28]	; 0xffffffe4
   14170:	e3530000 	cmp	r3, #0
   14174:	1a000004 	bne	1418c <commands_cd+0x3c>
   14178:	e59f30e8 	ldr	r3, [pc, #232]	; 14268 <commands_cd+0x118>
   1417c:	e08f3003 	add	r3, pc, r3
   14180:	e1a00003 	mov	r0, r3
   14184:	ebfffde8 	bl	1392c <console_puts>
   14188:	ea000033 	b	1425c <commands_cd+0x10c>
   1418c:	e59f30d8 	ldr	r3, [pc, #216]	; 1426c <commands_cd+0x11c>
   14190:	e08f3003 	add	r3, pc, r3
   14194:	e1a01003 	mov	r1, r3
   14198:	e51b0018 	ldr	r0, [fp, #-24]	; 0xffffffe8
   1419c:	fa0005aa 	blx	1584c <strcmp>
   141a0:	e1a03000 	mov	r3, r0
   141a4:	e3530000 	cmp	r3, #0
   141a8:	1a000017 	bne	1420c <commands_cd+0xbc>
   141ac:	e59f30bc 	ldr	r3, [pc, #188]	; 14270 <commands_cd+0x120>
   141b0:	e7943003 	ldr	r3, [r4, r3]
   141b4:	e1a00003 	mov	r0, r3
   141b8:	fa000695 	blx	15c14 <strlen>
   141bc:	e1a02000 	mov	r2, r0
   141c0:	e59f30a8 	ldr	r3, [pc, #168]	; 14270 <commands_cd+0x120>
   141c4:	e7943003 	ldr	r3, [r4, r3]
   141c8:	e0823003 	add	r3, r2, r3
   141cc:	e50b3010 	str	r3, [fp, #-16]
   141d0:	e51b3010 	ldr	r3, [fp, #-16]
   141d4:	e2433001 	sub	r3, r3, #1
   141d8:	e50b3010 	str	r3, [fp, #-16]
   141dc:	e320f000 	nop	{0}
   141e0:	e51b3010 	ldr	r3, [fp, #-16]
   141e4:	e2432001 	sub	r2, r3, #1
   141e8:	e50b2010 	str	r2, [fp, #-16]
   141ec:	e5d33000 	ldrb	r3, [r3]
   141f0:	e353002f 	cmp	r3, #47	; 0x2f
   141f4:	1afffff9 	bne	141e0 <commands_cd+0x90>
   141f8:	e51b3010 	ldr	r3, [fp, #-16]
   141fc:	e2833001 	add	r3, r3, #1
   14200:	e3a02000 	mov	r2, #0
   14204:	e5c32000 	strb	r2, [r3]
   14208:	ea000007 	b	1422c <commands_cd+0xdc>
   1420c:	e51b3018 	ldr	r3, [fp, #-24]	; 0xffffffe8
   14210:	e59f2058 	ldr	r2, [pc, #88]	; 14270 <commands_cd+0x120>
   14214:	e7942002 	ldr	r2, [r4, r2]
   14218:	e59f1054 	ldr	r1, [pc, #84]	; 14274 <commands_cd+0x124>
   1421c:	e08f1001 	add	r1, pc, r1
   14220:	e59f0048 	ldr	r0, [pc, #72]	; 14270 <commands_cd+0x120>
   14224:	e7940000 	ldr	r0, [r4, r0]
   14228:	ebffd362 	bl	8fb8 <sprintf>
   1422c:	e59f3044 	ldr	r3, [pc, #68]	; 14278 <commands_cd+0x128>
   14230:	e08f3003 	add	r3, pc, r3
   14234:	e1a00003 	mov	r0, r3
   14238:	ebfffdbb 	bl	1392c <console_puts>
   1423c:	e59f302c 	ldr	r3, [pc, #44]	; 14270 <commands_cd+0x120>
   14240:	e7943003 	ldr	r3, [r4, r3]
   14244:	e1a00003 	mov	r0, r3
   14248:	ebfffdb7 	bl	1392c <console_puts>
   1424c:	e59f3028 	ldr	r3, [pc, #40]	; 1427c <commands_cd+0x12c>
   14250:	e08f3003 	add	r3, pc, r3
   14254:	e1a00003 	mov	r0, r3
   14258:	ebfffdb3 	bl	1392c <console_puts>
   1425c:	e24bd008 	sub	sp, fp, #8
   14260:	e8bd8810 	pop	{r4, fp, pc}
   14264:	00002224 	andeq	r2, r0, r4, lsr #4
   14268:	020b3554 	andeq	r3, fp, #84, 10	; 0x15000000
   1426c:	020b3554 	andeq	r3, fp, #84, 10	; 0x15000000
   14270:	00000010 	andeq	r0, r0, r0, lsl r0
   14274:	020b34cc 	andeq	r3, fp, #204, 8	; 0xcc000000
   14278:	020b34c0 	andeq	r3, fp, #192, 8	; 0xc0000000
   1427c:	020b34b0 	andeq	r3, fp, #176, 8	; 0xb0000000

00014280 <commands_dump>:
   14280:	e92d4800 	push	{fp, lr}
   14284:	e28db004 	add	fp, sp, #4
   14288:	e24dda01 	sub	sp, sp, #4096	; 0x1000
   1428c:	e24dd028 	sub	sp, sp, #40	; 0x28
   14290:	e24b3a01 	sub	r3, fp, #4096	; 0x1000
   14294:	e2433004 	sub	r3, r3, #4
   14298:	e5030024 	str	r0, [r3, #-36]	; 0xffffffdc
   1429c:	e24b3a01 	sub	r3, fp, #4096	; 0x1000
   142a0:	e2433004 	sub	r3, r3, #4
   142a4:	e5031028 	str	r1, [r3, #-40]	; 0xffffffd8
   142a8:	e24b3a01 	sub	r3, fp, #4096	; 0x1000
   142ac:	e2433004 	sub	r3, r3, #4
   142b0:	e5133028 	ldr	r3, [r3, #-40]	; 0xffffffd8
   142b4:	e3530000 	cmp	r3, #0
   142b8:	1a000004 	bne	142d0 <commands_dump+0x50>
   142bc:	e59f3400 	ldr	r3, [pc, #1024]	; 146c4 <commands_dump+0x444>
   142c0:	e08f3003 	add	r3, pc, r3
   142c4:	e1a00003 	mov	r0, r3
   142c8:	ebfffd97 	bl	1392c <console_puts>
   142cc:	ea0000fa 	b	146bc <commands_dump+0x43c>
   142d0:	e24b3a01 	sub	r3, fp, #4096	; 0x1000
   142d4:	e2433004 	sub	r3, r3, #4
   142d8:	e5130024 	ldr	r0, [r3, #-36]	; 0xffffffdc
   142dc:	eb00021a 	bl	14b4c <hal_nvmem_fat_file_size>
   142e0:	e50b001c 	str	r0, [fp, #-28]	; 0xffffffe4
   142e4:	e51b301c 	ldr	r3, [fp, #-28]	; 0xffffffe4
   142e8:	e3530000 	cmp	r3, #0
   142ec:	1a000004 	bne	14304 <commands_dump+0x84>
   142f0:	e59f33d0 	ldr	r3, [pc, #976]	; 146c8 <commands_dump+0x448>
   142f4:	e08f3003 	add	r3, pc, r3
   142f8:	e1a00003 	mov	r0, r3
   142fc:	ebfffd8a 	bl	1392c <console_puts>
   14300:	ea0000ed 	b	146bc <commands_dump+0x43c>
   14304:	e3a03c01 	mov	r3, #256	; 0x100
   14308:	e50b301c 	str	r3, [fp, #-28]	; 0xffffffe4
   1430c:	e24b3a01 	sub	r3, fp, #4096	; 0x1000
   14310:	e2433004 	sub	r3, r3, #4
   14314:	e2433020 	sub	r3, r3, #32
   14318:	e24b2a01 	sub	r2, fp, #4096	; 0x1000
   1431c:	e2422004 	sub	r2, r2, #4
   14320:	e1a00002 	mov	r0, r2
   14324:	e3a02a01 	mov	r2, #4096	; 0x1000
   14328:	e1a01003 	mov	r1, r3
   1432c:	e5100024 	ldr	r0, [r0, #-36]	; 0xffffffdc
   14330:	eb000237 	bl	14c14 <hal_nvmem_fat_file_read>
   14334:	e50b0020 	str	r0, [fp, #-32]	; 0xffffffe0
   14338:	e3a03000 	mov	r3, #0
   1433c:	e50b3008 	str	r3, [fp, #-8]
   14340:	e3a03000 	mov	r3, #0
   14344:	e50b3008 	str	r3, [fp, #-8]
   14348:	ea00006b 	b	144fc <commands_dump+0x27c>
   1434c:	e3a03000 	mov	r3, #0
   14350:	e50b300c 	str	r3, [fp, #-12]
   14354:	ea00001a 	b	143c4 <commands_dump+0x144>
   14358:	e51b2008 	ldr	r2, [fp, #-8]
   1435c:	e51b300c 	ldr	r3, [fp, #-12]
   14360:	e0823003 	add	r3, r2, r3
   14364:	e24b2a01 	sub	r2, fp, #4096	; 0x1000
   14368:	e2422004 	sub	r2, r2, #4
   1436c:	e0823003 	add	r3, r2, r3
   14370:	e5533020 	ldrb	r3, [r3, #-32]	; 0xffffffe0
   14374:	e1a01003 	mov	r1, r3
   14378:	e59f334c 	ldr	r3, [pc, #844]	; 146cc <commands_dump+0x44c>
   1437c:	e08f3003 	add	r3, pc, r3
   14380:	e1a00003 	mov	r0, r3
   14384:	ebffd343 	bl	9098 <printf_serial>
   14388:	e51b2008 	ldr	r2, [fp, #-8]
   1438c:	e51b300c 	ldr	r3, [fp, #-12]
   14390:	e0823003 	add	r3, r2, r3
   14394:	e24b2a01 	sub	r2, fp, #4096	; 0x1000
   14398:	e2422004 	sub	r2, r2, #4
   1439c:	e0823003 	add	r3, r2, r3
   143a0:	e5533020 	ldrb	r3, [r3, #-32]	; 0xffffffe0
   143a4:	e1a01003 	mov	r1, r3
   143a8:	e59f3320 	ldr	r3, [pc, #800]	; 146d0 <commands_dump+0x450>
   143ac:	e08f3003 	add	r3, pc, r3
   143b0:	e1a00003 	mov	r0, r3
   143b4:	ebffd311 	bl	9000 <printf_video>
   143b8:	e51b300c 	ldr	r3, [fp, #-12]
   143bc:	e2833001 	add	r3, r3, #1
   143c0:	e50b300c 	str	r3, [fp, #-12]
   143c4:	e51b300c 	ldr	r3, [fp, #-12]
   143c8:	e3530009 	cmp	r3, #9
   143cc:	daffffe1 	ble	14358 <commands_dump+0xd8>
   143d0:	e3a03000 	mov	r3, #0
   143d4:	e50b3010 	str	r3, [fp, #-16]
   143d8:	ea000039 	b	144c4 <commands_dump+0x244>
   143dc:	e51b2008 	ldr	r2, [fp, #-8]
   143e0:	e51b3010 	ldr	r3, [fp, #-16]
   143e4:	e0823003 	add	r3, r2, r3
   143e8:	e24b2a01 	sub	r2, fp, #4096	; 0x1000
   143ec:	e2422004 	sub	r2, r2, #4
   143f0:	e0823003 	add	r3, r2, r3
   143f4:	e5533020 	ldrb	r3, [r3, #-32]	; 0xffffffe0
   143f8:	e54b3021 	strb	r3, [fp, #-33]	; 0xffffffdf
   143fc:	e55b3021 	ldrb	r3, [fp, #-33]	; 0xffffffdf
   14400:	e353000a 	cmp	r3, #10
   14404:	0a00002a 	beq	144b4 <commands_dump+0x234>
   14408:	e55b3021 	ldrb	r3, [fp, #-33]	; 0xffffffdf
   1440c:	e353000d 	cmp	r3, #13
   14410:	0a000027 	beq	144b4 <commands_dump+0x234>
   14414:	e55b3021 	ldrb	r3, [fp, #-33]	; 0xffffffdf
   14418:	e3530060 	cmp	r3, #96	; 0x60
   1441c:	9a000002 	bls	1442c <commands_dump+0x1ac>
   14420:	e55b3021 	ldrb	r3, [fp, #-33]	; 0xffffffdf
   14424:	e353007a 	cmp	r3, #122	; 0x7a
   14428:	9a00000b 	bls	1445c <commands_dump+0x1dc>
   1442c:	e55b3021 	ldrb	r3, [fp, #-33]	; 0xffffffdf
   14430:	e3530040 	cmp	r3, #64	; 0x40
   14434:	9a000002 	bls	14444 <commands_dump+0x1c4>
   14438:	e55b3021 	ldrb	r3, [fp, #-33]	; 0xffffffdf
   1443c:	e353005a 	cmp	r3, #90	; 0x5a
   14440:	9a000005 	bls	1445c <commands_dump+0x1dc>
   14444:	e55b3021 	ldrb	r3, [fp, #-33]	; 0xffffffdf
   14448:	e353002f 	cmp	r3, #47	; 0x2f
   1444c:	9a00000f 	bls	14490 <commands_dump+0x210>
   14450:	e55b3021 	ldrb	r3, [fp, #-33]	; 0xffffffdf
   14454:	e3530039 	cmp	r3, #57	; 0x39
   14458:	8a00000c 	bhi	14490 <commands_dump+0x210>
   1445c:	e55b3021 	ldrb	r3, [fp, #-33]	; 0xffffffdf
   14460:	e1a01003 	mov	r1, r3
   14464:	e59f3268 	ldr	r3, [pc, #616]	; 146d4 <commands_dump+0x454>
   14468:	e08f3003 	add	r3, pc, r3
   1446c:	e1a00003 	mov	r0, r3
   14470:	ebffd308 	bl	9098 <printf_serial>
   14474:	e55b3021 	ldrb	r3, [fp, #-33]	; 0xffffffdf
   14478:	e1a01003 	mov	r1, r3
   1447c:	e59f3254 	ldr	r3, [pc, #596]	; 146d8 <commands_dump+0x458>
   14480:	e08f3003 	add	r3, pc, r3
   14484:	e1a00003 	mov	r0, r3
   14488:	ebffd2dc 	bl	9000 <printf_video>
   1448c:	ea000009 	b	144b8 <commands_dump+0x238>
   14490:	e59f3244 	ldr	r3, [pc, #580]	; 146dc <commands_dump+0x45c>
   14494:	e08f3003 	add	r3, pc, r3
   14498:	e1a00003 	mov	r0, r3
   1449c:	ebffd2fd 	bl	9098 <printf_serial>
   144a0:	e59f3238 	ldr	r3, [pc, #568]	; 146e0 <commands_dump+0x460>
   144a4:	e08f3003 	add	r3, pc, r3
   144a8:	e1a00003 	mov	r0, r3
   144ac:	ebffd2d3 	bl	9000 <printf_video>
   144b0:	ea000000 	b	144b8 <commands_dump+0x238>
   144b4:	e320f000 	nop	{0}
   144b8:	e51b3010 	ldr	r3, [fp, #-16]
   144bc:	e2833001 	add	r3, r3, #1
   144c0:	e50b3010 	str	r3, [fp, #-16]
   144c4:	e51b3010 	ldr	r3, [fp, #-16]
   144c8:	e3530009 	cmp	r3, #9
   144cc:	daffffc2 	ble	143dc <commands_dump+0x15c>
   144d0:	e59f320c 	ldr	r3, [pc, #524]	; 146e4 <commands_dump+0x464>
   144d4:	e08f3003 	add	r3, pc, r3
   144d8:	e1a00003 	mov	r0, r3
   144dc:	ebffd2ed 	bl	9098 <printf_serial>
   144e0:	e59f3200 	ldr	r3, [pc, #512]	; 146e8 <commands_dump+0x468>
   144e4:	e08f3003 	add	r3, pc, r3
   144e8:	e1a00003 	mov	r0, r3
   144ec:	ebffd2c3 	bl	9000 <printf_video>
   144f0:	e51b3008 	ldr	r3, [fp, #-8]
   144f4:	e283300a 	add	r3, r3, #10
   144f8:	e50b3008 	str	r3, [fp, #-8]
   144fc:	e51b301c 	ldr	r3, [fp, #-28]	; 0xffffffe4
   14500:	e243200a 	sub	r2, r3, #10
   14504:	e51b3008 	ldr	r3, [fp, #-8]
   14508:	e1520003 	cmp	r2, r3
   1450c:	8affff8e 	bhi	1434c <commands_dump+0xcc>
   14510:	e51b3008 	ldr	r3, [fp, #-8]
   14514:	e50b3014 	str	r3, [fp, #-20]	; 0xffffffec
   14518:	ea00001a 	b	14588 <commands_dump+0x308>
   1451c:	e51b2008 	ldr	r2, [fp, #-8]
   14520:	e51b3014 	ldr	r3, [fp, #-20]	; 0xffffffec
   14524:	e0823003 	add	r3, r2, r3
   14528:	e24b2a01 	sub	r2, fp, #4096	; 0x1000
   1452c:	e2422004 	sub	r2, r2, #4
   14530:	e0823003 	add	r3, r2, r3
   14534:	e5533020 	ldrb	r3, [r3, #-32]	; 0xffffffe0
   14538:	e1a01003 	mov	r1, r3
   1453c:	e59f31a8 	ldr	r3, [pc, #424]	; 146ec <commands_dump+0x46c>
   14540:	e08f3003 	add	r3, pc, r3
   14544:	e1a00003 	mov	r0, r3
   14548:	ebffd2d2 	bl	9098 <printf_serial>
   1454c:	e51b2008 	ldr	r2, [fp, #-8]
   14550:	e51b3014 	ldr	r3, [fp, #-20]	; 0xffffffec
   14554:	e0823003 	add	r3, r2, r3
   14558:	e24b2a01 	sub	r2, fp, #4096	; 0x1000
   1455c:	e2422004 	sub	r2, r2, #4
   14560:	e0823003 	add	r3, r2, r3
   14564:	e5533020 	ldrb	r3, [r3, #-32]	; 0xffffffe0
   14568:	e1a01003 	mov	r1, r3
   1456c:	e59f317c 	ldr	r3, [pc, #380]	; 146f0 <commands_dump+0x470>
   14570:	e08f3003 	add	r3, pc, r3
   14574:	e1a00003 	mov	r0, r3
   14578:	ebffd2a0 	bl	9000 <printf_video>
   1457c:	e51b3014 	ldr	r3, [fp, #-20]	; 0xffffffec
   14580:	e2833001 	add	r3, r3, #1
   14584:	e50b3014 	str	r3, [fp, #-20]	; 0xffffffec
   14588:	e51b3014 	ldr	r3, [fp, #-20]	; 0xffffffec
   1458c:	e51b201c 	ldr	r2, [fp, #-28]	; 0xffffffe4
   14590:	e1520003 	cmp	r2, r3
   14594:	8affffe0 	bhi	1451c <commands_dump+0x29c>
   14598:	e51b3008 	ldr	r3, [fp, #-8]
   1459c:	e50b3018 	str	r3, [fp, #-24]	; 0xffffffe8
   145a0:	ea000039 	b	1468c <commands_dump+0x40c>
   145a4:	e51b2008 	ldr	r2, [fp, #-8]
   145a8:	e51b3018 	ldr	r3, [fp, #-24]	; 0xffffffe8
   145ac:	e0823003 	add	r3, r2, r3
   145b0:	e24b2a01 	sub	r2, fp, #4096	; 0x1000
   145b4:	e2422004 	sub	r2, r2, #4
   145b8:	e0823003 	add	r3, r2, r3
   145bc:	e5533020 	ldrb	r3, [r3, #-32]	; 0xffffffe0
   145c0:	e54b3022 	strb	r3, [fp, #-34]	; 0xffffffde
   145c4:	e55b3022 	ldrb	r3, [fp, #-34]	; 0xffffffde
   145c8:	e353000a 	cmp	r3, #10
   145cc:	0a00002a 	beq	1467c <commands_dump+0x3fc>
   145d0:	e55b3022 	ldrb	r3, [fp, #-34]	; 0xffffffde
   145d4:	e353000d 	cmp	r3, #13
   145d8:	0a000027 	beq	1467c <commands_dump+0x3fc>
   145dc:	e55b3022 	ldrb	r3, [fp, #-34]	; 0xffffffde
   145e0:	e3530060 	cmp	r3, #96	; 0x60
   145e4:	9a000002 	bls	145f4 <commands_dump+0x374>
   145e8:	e55b3022 	ldrb	r3, [fp, #-34]	; 0xffffffde
   145ec:	e353007a 	cmp	r3, #122	; 0x7a
   145f0:	9a00000b 	bls	14624 <commands_dump+0x3a4>
   145f4:	e55b3022 	ldrb	r3, [fp, #-34]	; 0xffffffde
   145f8:	e3530040 	cmp	r3, #64	; 0x40
   145fc:	9a000002 	bls	1460c <commands_dump+0x38c>
   14600:	e55b3022 	ldrb	r3, [fp, #-34]	; 0xffffffde
   14604:	e353005a 	cmp	r3, #90	; 0x5a
   14608:	9a000005 	bls	14624 <commands_dump+0x3a4>
   1460c:	e55b3022 	ldrb	r3, [fp, #-34]	; 0xffffffde
   14610:	e353002f 	cmp	r3, #47	; 0x2f
   14614:	9a00000f 	bls	14658 <commands_dump+0x3d8>
   14618:	e55b3022 	ldrb	r3, [fp, #-34]	; 0xffffffde
   1461c:	e3530039 	cmp	r3, #57	; 0x39
   14620:	8a00000c 	bhi	14658 <commands_dump+0x3d8>
   14624:	e55b3022 	ldrb	r3, [fp, #-34]	; 0xffffffde
   14628:	e1a01003 	mov	r1, r3
   1462c:	e59f30c0 	ldr	r3, [pc, #192]	; 146f4 <commands_dump+0x474>
   14630:	e08f3003 	add	r3, pc, r3
   14634:	e1a00003 	mov	r0, r3
   14638:	ebffd296 	bl	9098 <printf_serial>
   1463c:	e55b3022 	ldrb	r3, [fp, #-34]	; 0xffffffde
   14640:	e1a01003 	mov	r1, r3
   14644:	e59f30ac 	ldr	r3, [pc, #172]	; 146f8 <commands_dump+0x478>
   14648:	e08f3003 	add	r3, pc, r3
   1464c:	e1a00003 	mov	r0, r3
   14650:	ebffd26a 	bl	9000 <printf_video>
   14654:	ea000009 	b	14680 <commands_dump+0x400>
   14658:	e59f309c 	ldr	r3, [pc, #156]	; 146fc <commands_dump+0x47c>
   1465c:	e08f3003 	add	r3, pc, r3
   14660:	e1a00003 	mov	r0, r3
   14664:	ebffd28b 	bl	9098 <printf_serial>
   14668:	e59f3090 	ldr	r3, [pc, #144]	; 14700 <commands_dump+0x480>
   1466c:	e08f3003 	add	r3, pc, r3
   14670:	e1a00003 	mov	r0, r3
   14674:	ebffd261 	bl	9000 <printf_video>
   14678:	ea000000 	b	14680 <commands_dump+0x400>
   1467c:	e320f000 	nop	{0}
   14680:	e51b3018 	ldr	r3, [fp, #-24]	; 0xffffffe8
   14684:	e2833001 	add	r3, r3, #1
   14688:	e50b3018 	str	r3, [fp, #-24]	; 0xffffffe8
   1468c:	e51b3018 	ldr	r3, [fp, #-24]	; 0xffffffe8
   14690:	e51b201c 	ldr	r2, [fp, #-28]	; 0xffffffe4
   14694:	e1520003 	cmp	r2, r3
   14698:	8affffc1 	bhi	145a4 <commands_dump+0x324>
   1469c:	e59f3060 	ldr	r3, [pc, #96]	; 14704 <commands_dump+0x484>
   146a0:	e08f3003 	add	r3, pc, r3
   146a4:	e1a00003 	mov	r0, r3
   146a8:	ebffd27a 	bl	9098 <printf_serial>
   146ac:	e59f3054 	ldr	r3, [pc, #84]	; 14708 <commands_dump+0x488>
   146b0:	e08f3003 	add	r3, pc, r3
   146b4:	e1a00003 	mov	r0, r3
   146b8:	ebffd250 	bl	9000 <printf_video>
   146bc:	e24bd004 	sub	sp, fp, #4
   146c0:	e8bd8800 	pop	{fp, pc}
   146c4:	020b3464 	andeq	r3, fp, #100, 8	; 0x64000000
   146c8:	020b3448 	andeq	r3, fp, #72, 8	; 0x48000000
   146cc:	020b33dc 	andeq	r3, fp, #220, 6	; 0x70000003
   146d0:	020b33ac 	andeq	r3, fp, #172, 6	; 0xb0000002
   146d4:	020b32f8 	andeq	r3, fp, #248, 4	; 0x8000000f
   146d8:	020b32e0 	andeq	r3, fp, #224, 4
   146dc:	020b32d0 	andeq	r3, fp, #208, 4
   146e0:	020b32c0 	andeq	r3, fp, #192, 4
   146e4:	020b3294 	andeq	r3, fp, #148, 4	; 0x40000009
   146e8:	020b3284 	andeq	r3, fp, #132, 4	; 0x40000008
   146ec:	020b3218 	andeq	r3, fp, #24, 4	; 0x80000001
   146f0:	020b31e8 	andeq	r3, fp, #232, 2	; 0x3a
   146f4:	020b3130 	andeq	r3, fp, #48, 2
   146f8:	020b3118 	andeq	r3, fp, #24, 2
   146fc:	020b3108 	andeq	r3, fp, #8, 2
   14700:	020b30f8 	andeq	r3, fp, #248	; 0xf8
   14704:	020b30c8 	andeq	r3, fp, #200	; 0xc8
   14708:	020b30b8 	andeq	r3, fp, #184	; 0xb8

0001470c <commands_ls>:
   1470c:	e92d4830 	push	{r4, r5, fp, lr}
   14710:	e28db00c 	add	fp, sp, #12
   14714:	e24ddfa2 	sub	sp, sp, #648	; 0x288
   14718:	e50b0290 	str	r0, [fp, #-656]	; 0xfffffd70
   1471c:	e50b1294 	str	r1, [fp, #-660]	; 0xfffffd6c
   14720:	e1a0300d 	mov	r3, sp
   14724:	e1a05003 	mov	r5, r3
   14728:	e59f313c 	ldr	r3, [pc, #316]	; 1486c <commands_ls+0x160>
   1472c:	e08f3003 	add	r3, pc, r3
   14730:	e1a00003 	mov	r0, r3
   14734:	fa000536 	blx	15c14 <strlen>
   14738:	e1a04000 	mov	r4, r0
   1473c:	e59f312c 	ldr	r3, [pc, #300]	; 14870 <commands_ls+0x164>
   14740:	e08f3003 	add	r3, pc, r3
   14744:	e1a00003 	mov	r0, r3
   14748:	fa000531 	blx	15c14 <strlen>
   1474c:	e1a03000 	mov	r3, r0
   14750:	e0843003 	add	r3, r4, r3
   14754:	e283c028 	add	ip, r3, #40	; 0x28
   14758:	e1a0300c 	mov	r3, ip
   1475c:	e2433001 	sub	r3, r3, #1
   14760:	e50b3014 	str	r3, [fp, #-20]	; 0xffffffec
   14764:	e1a0000c 	mov	r0, ip
   14768:	e3a01000 	mov	r1, #0
   1476c:	e3a02000 	mov	r2, #0
   14770:	e3a03000 	mov	r3, #0
   14774:	e1a03181 	lsl	r3, r1, #3
   14778:	e1833ea0 	orr	r3, r3, r0, lsr #29
   1477c:	e1a02180 	lsl	r2, r0, #3
   14780:	e1a0000c 	mov	r0, ip
   14784:	e3a01000 	mov	r1, #0
   14788:	e3a02000 	mov	r2, #0
   1478c:	e3a03000 	mov	r3, #0
   14790:	e1a03181 	lsl	r3, r1, #3
   14794:	e1833ea0 	orr	r3, r3, r0, lsr #29
   14798:	e1a02180 	lsl	r2, r0, #3
   1479c:	e28c3007 	add	r3, ip, #7
   147a0:	e1a031a3 	lsr	r3, r3, #3
   147a4:	e1a03183 	lsl	r3, r3, #3
   147a8:	e04dd003 	sub	sp, sp, r3
   147ac:	e1a0300d 	mov	r3, sp
   147b0:	e2833000 	add	r3, r3, #0
   147b4:	e50b3018 	str	r3, [fp, #-24]	; 0xffffffe8
   147b8:	e24b3fa2 	sub	r3, fp, #648	; 0x288
   147bc:	e3a01014 	mov	r1, #20
   147c0:	e1a00003 	mov	r0, r3
   147c4:	eb000145 	bl	14ce0 <hal_nvmem_fat_file_list>
   147c8:	e50b001c 	str	r0, [fp, #-28]	; 0xffffffe4
   147cc:	e51b301c 	ldr	r3, [fp, #-28]	; 0xffffffe4
   147d0:	e3530000 	cmp	r3, #0
   147d4:	0a00001c 	beq	1484c <commands_ls+0x140>
   147d8:	e3a03000 	mov	r3, #0
   147dc:	e50b3010 	str	r3, [fp, #-16]
   147e0:	ea000014 	b	14838 <commands_ls+0x12c>
   147e4:	e51b0018 	ldr	r0, [fp, #-24]	; 0xffffffe8
   147e8:	e24b2fa2 	sub	r2, fp, #648	; 0x288
   147ec:	e51b3010 	ldr	r3, [fp, #-16]
   147f0:	e3a0101f 	mov	r1, #31
   147f4:	e0030391 	mul	r3, r1, r3
   147f8:	e0823003 	add	r3, r2, r3
   147fc:	e1a02003 	mov	r2, r3
   14800:	e59f306c 	ldr	r3, [pc, #108]	; 14874 <commands_ls+0x168>
   14804:	e08f3003 	add	r3, pc, r3
   14808:	e1a01003 	mov	r1, r3
   1480c:	ebffd1e9 	bl	8fb8 <sprintf>
   14810:	e51b3018 	ldr	r3, [fp, #-24]	; 0xffffffe8
   14814:	e1a00003 	mov	r0, r3
   14818:	ebfffc43 	bl	1392c <console_puts>
   1481c:	e59f3054 	ldr	r3, [pc, #84]	; 14878 <commands_ls+0x16c>
   14820:	e08f3003 	add	r3, pc, r3
   14824:	e1a00003 	mov	r0, r3
   14828:	ebfffc3f 	bl	1392c <console_puts>
   1482c:	e51b3010 	ldr	r3, [fp, #-16]
   14830:	e2833001 	add	r3, r3, #1
   14834:	e50b3010 	str	r3, [fp, #-16]
   14838:	e51b2010 	ldr	r2, [fp, #-16]
   1483c:	e51b301c 	ldr	r3, [fp, #-28]	; 0xffffffe4
   14840:	e1520003 	cmp	r2, r3
   14844:	3affffe6 	bcc	147e4 <commands_ls+0xd8>
   14848:	ea000003 	b	1485c <commands_ls+0x150>
   1484c:	e59f3028 	ldr	r3, [pc, #40]	; 1487c <commands_ls+0x170>
   14850:	e08f3003 	add	r3, pc, r3
   14854:	e1a00003 	mov	r0, r3
   14858:	ebfffc33 	bl	1392c <console_puts>
   1485c:	e1a0d005 	mov	sp, r5
   14860:	e320f000 	nop	{0}
   14864:	e24bd00c 	sub	sp, fp, #12
   14868:	e8bd8830 	pop	{r4, r5, fp, pc}
   1486c:	020b3040 	andeq	r3, fp, #64	; 0x40
   14870:	020b3034 	andeq	r3, fp, #52	; 0x34
   14874:	020b2ec8 	andeq	r2, fp, #200, 28	; 0xc80
   14878:	020b2f48 	andeq	r2, fp, #72, 30	; 0x120
   1487c:	020b2f2c 	andeq	r2, fp, #44, 30	; 0xb0

00014880 <commands_cat>:
   14880:	e92d4800 	push	{fp, lr}
   14884:	e28db004 	add	fp, sp, #4
   14888:	e24dde81 	sub	sp, sp, #2064	; 0x810
   1488c:	e50b0810 	str	r0, [fp, #-2064]	; 0xfffff7f0
   14890:	e50b1814 	str	r1, [fp, #-2068]	; 0xfffff7ec
   14894:	e51b3814 	ldr	r3, [fp, #-2068]	; 0xfffff7ec
   14898:	e3530000 	cmp	r3, #0
   1489c:	1a000004 	bne	148b4 <commands_cat+0x34>
   148a0:	e59f309c 	ldr	r3, [pc, #156]	; 14944 <commands_cat+0xc4>
   148a4:	e08f3003 	add	r3, pc, r3
   148a8:	e1a00003 	mov	r0, r3
   148ac:	ebfffc1e 	bl	1392c <console_puts>
   148b0:	ea000021 	b	1493c <commands_cat+0xbc>
   148b4:	e51b0810 	ldr	r0, [fp, #-2064]	; 0xfffff7f0
   148b8:	eb0000a3 	bl	14b4c <hal_nvmem_fat_file_size>
   148bc:	e50b0008 	str	r0, [fp, #-8]
   148c0:	e51b3008 	ldr	r3, [fp, #-8]
   148c4:	e3530000 	cmp	r3, #0
   148c8:	1a000004 	bne	148e0 <commands_cat+0x60>
   148cc:	e59f3074 	ldr	r3, [pc, #116]	; 14948 <commands_cat+0xc8>
   148d0:	e08f3003 	add	r3, pc, r3
   148d4:	e1a00003 	mov	r0, r3
   148d8:	ebfffc13 	bl	1392c <console_puts>
   148dc:	ea000016 	b	1493c <commands_cat+0xbc>
   148e0:	e24b3b02 	sub	r3, fp, #2048	; 0x800
   148e4:	e2433004 	sub	r3, r3, #4
   148e8:	e2433008 	sub	r3, r3, #8
   148ec:	e3a02b02 	mov	r2, #2048	; 0x800
   148f0:	e1a01003 	mov	r1, r3
   148f4:	e51b0810 	ldr	r0, [fp, #-2064]	; 0xfffff7f0
   148f8:	eb0000c5 	bl	14c14 <hal_nvmem_fat_file_read>
   148fc:	e50b000c 	str	r0, [fp, #-12]
   14900:	e51b300c 	ldr	r3, [fp, #-12]
   14904:	e2433001 	sub	r3, r3, #1
   14908:	e24b2004 	sub	r2, fp, #4
   1490c:	e0823003 	add	r3, r2, r3
   14910:	e3a02000 	mov	r2, #0
   14914:	e5432808 	strb	r2, [r3, #-2056]	; 0xfffff7f8
   14918:	e24b3b02 	sub	r3, fp, #2048	; 0x800
   1491c:	e2433004 	sub	r3, r3, #4
   14920:	e2433008 	sub	r3, r3, #8
   14924:	e1a00003 	mov	r0, r3
   14928:	ebfffbff 	bl	1392c <console_puts>
   1492c:	e59f3018 	ldr	r3, [pc, #24]	; 1494c <commands_cat+0xcc>
   14930:	e08f3003 	add	r3, pc, r3
   14934:	e1a00003 	mov	r0, r3
   14938:	ebfffbfb 	bl	1392c <console_puts>
   1493c:	e24bd004 	sub	sp, fp, #4
   14940:	e8bd8800 	pop	{fp, pc}
   14944:	020b2eec 	andeq	r2, fp, #236, 28	; 0xec0
   14948:	020b2ed8 	andeq	r2, fp, #216, 28	; 0xd80
   1494c:	020b2e38 	andeq	r2, fp, #56, 28	; 0x380

00014950 <commands_date>:
   14950:	e92d4800 	push	{fp, lr}
   14954:	e28db004 	add	fp, sp, #4
   14958:	e24dd068 	sub	sp, sp, #104	; 0x68
   1495c:	e50b0058 	str	r0, [fp, #-88]	; 0xffffffa8
   14960:	e50b105c 	str	r1, [fp, #-92]	; 0xffffffa4
   14964:	e59f3080 	ldr	r3, [pc, #128]	; 149ec <commands_date+0x9c>
   14968:	e08f3003 	add	r3, pc, r3
   1496c:	e24bc034 	sub	ip, fp, #52	; 0x34
   14970:	e1a0e003 	mov	lr, r3
   14974:	e8be000f 	ldm	lr!, {r0, r1, r2, r3}
   14978:	e8ac000f 	stmia	ip!, {r0, r1, r2, r3}
   1497c:	e8be000f 	ldm	lr!, {r0, r1, r2, r3}
   14980:	e8ac000f 	stmia	ip!, {r0, r1, r2, r3}
   14984:	e89e000f 	ldm	lr, {r0, r1, r2, r3}
   14988:	e88c000f 	stm	ip, {r0, r1, r2, r3}
   1498c:	e51b201c 	ldr	r2, [fp, #-28]	; 0xffffffe4
   14990:	e24b0050 	sub	r0, fp, #80	; 0x50
   14994:	e3a03000 	mov	r3, #0
   14998:	e58d300c 	str	r3, [sp, #12]
   1499c:	e3a0300d 	mov	r3, #13
   149a0:	e58d3008 	str	r3, [sp, #8]
   149a4:	e3a03000 	mov	r3, #0
   149a8:	e58d3004 	str	r3, [sp, #4]
   149ac:	e30037c7 	movw	r3, #1991	; 0x7c7
   149b0:	e58d3000 	str	r3, [sp]
   149b4:	e3a0300e 	mov	r3, #14
   149b8:	e59f1030 	ldr	r1, [pc, #48]	; 149f0 <commands_date+0xa0>
   149bc:	e08f1001 	add	r1, pc, r1
   149c0:	ebffd17c 	bl	8fb8 <sprintf>
   149c4:	e24b3050 	sub	r3, fp, #80	; 0x50
   149c8:	e1a00003 	mov	r0, r3
   149cc:	ebfffbd6 	bl	1392c <console_puts>
   149d0:	e59f301c 	ldr	r3, [pc, #28]	; 149f4 <commands_date+0xa4>
   149d4:	e08f3003 	add	r3, pc, r3
   149d8:	e1a00003 	mov	r0, r3
   149dc:	ebfffbd2 	bl	1392c <console_puts>
   149e0:	e320f000 	nop	{0}
   149e4:	e24bd004 	sub	sp, fp, #4
   149e8:	e8bd8800 	pop	{fp, pc}
   149ec:	000019ec 	andeq	r1, r0, ip, ror #19
   149f0:	020b2e08 	andeq	r2, fp, #8, 28	; 0x80
   149f4:	020b2d94 	andeq	r2, fp, #148, 26	; 0x2500

000149f8 <commands_sysinfo>:
   149f8:	e92d4800 	push	{fp, lr}
   149fc:	e28db004 	add	fp, sp, #4
   14a00:	e24dd018 	sub	sp, sp, #24
   14a04:	e50b0018 	str	r0, [fp, #-24]	; 0xffffffe8
   14a08:	e50b101c 	str	r1, [fp, #-28]	; 0xffffffe4
   14a0c:	e24b0014 	sub	r0, fp, #20
   14a10:	e59f303c 	ldr	r3, [pc, #60]	; 14a54 <commands_sysinfo+0x5c>
   14a14:	e08f3003 	add	r3, pc, r3
   14a18:	e59f2038 	ldr	r2, [pc, #56]	; 14a58 <commands_sysinfo+0x60>
   14a1c:	e08f2002 	add	r2, pc, r2
   14a20:	e59f1034 	ldr	r1, [pc, #52]	; 14a5c <commands_sysinfo+0x64>
   14a24:	e08f1001 	add	r1, pc, r1
   14a28:	ebffd162 	bl	8fb8 <sprintf>
   14a2c:	e24b3014 	sub	r3, fp, #20
   14a30:	e1a00003 	mov	r0, r3
   14a34:	ebfffbbc 	bl	1392c <console_puts>
   14a38:	e59f3020 	ldr	r3, [pc, #32]	; 14a60 <commands_sysinfo+0x68>
   14a3c:	e08f3003 	add	r3, pc, r3
   14a40:	e1a00003 	mov	r0, r3
   14a44:	ebfffbb8 	bl	1392c <console_puts>
   14a48:	e320f000 	nop	{0}
   14a4c:	e24bd004 	sub	sp, fp, #4
   14a50:	e8bd8800 	pop	{fp, pc}
   14a54:	020b2e38 	andeq	r2, fp, #56, 28	; 0x380
   14a58:	020b2e38 	andeq	r2, fp, #56, 28	; 0x380
   14a5c:	020b2e38 	andeq	r2, fp, #56, 28	; 0x380
   14a60:	020b2d2c 	andeq	r2, fp, #44, 26	; 0xb00

00014a64 <hal_nvmem_init>:
   14a64:	e52db004 	push	{fp}		; (str fp, [sp, #-4]!)
   14a68:	e28db000 	add	fp, sp, #0
   14a6c:	e320f000 	nop	{0}
   14a70:	e28bd000 	add	sp, fp, #0
   14a74:	e49db004 	pop	{fp}		; (ldr fp, [sp], #4)
   14a78:	e12fff1e 	bx	lr

00014a7c <hal_nvmem_start>:
   14a7c:	e92d4800 	push	{fp, lr}
   14a80:	e28db004 	add	fp, sp, #4
   14a84:	e24dd008 	sub	sp, sp, #8
   14a88:	e50b0008 	str	r0, [fp, #-8]
   14a8c:	e51b3008 	ldr	r3, [fp, #-8]
   14a90:	e3530001 	cmp	r3, #1
   14a94:	0a000006 	beq	14ab4 <hal_nvmem_start+0x38>
   14a98:	e51b3008 	ldr	r3, [fp, #-8]
   14a9c:	e3530000 	cmp	r3, #0
   14aa0:	0a000016 	beq	14b00 <hal_nvmem_start+0x84>
   14aa4:	e51b3008 	ldr	r3, [fp, #-8]
   14aa8:	e3530002 	cmp	r3, #2
   14aac:	0a000015 	beq	14b08 <hal_nvmem_start+0x8c>
   14ab0:	ea000016 	b	14b10 <hal_nvmem_start+0x94>
   14ab4:	e59f3064 	ldr	r3, [pc, #100]	; 14b20 <hal_nvmem_start+0xa4>
   14ab8:	e08f3003 	add	r3, pc, r3
   14abc:	e3a02001 	mov	r2, #1
   14ac0:	e5c32000 	strb	r2, [r3]
   14ac4:	e3a0000a 	mov	r0, #10
   14ac8:	eb0000bf 	bl	14dcc <sdcard_init>
   14acc:	e1a03000 	mov	r3, r0
   14ad0:	e3530000 	cmp	r3, #0
   14ad4:	0a000005 	beq	14af0 <hal_nvmem_start+0x74>
   14ad8:	eb0000b4 	bl	14db0 <fs_mount>
   14adc:	e1a03000 	mov	r3, r0
   14ae0:	e3530000 	cmp	r3, #0
   14ae4:	0a000001 	beq	14af0 <hal_nvmem_start+0x74>
   14ae8:	e3a03001 	mov	r3, #1
   14aec:	ea000000 	b	14af4 <hal_nvmem_start+0x78>
   14af0:	e3a03000 	mov	r3, #0
   14af4:	e2033001 	and	r3, r3, #1
   14af8:	e6ef3073 	uxtb	r3, r3
   14afc:	ea000004 	b	14b14 <hal_nvmem_start+0x98>
   14b00:	e3a03000 	mov	r3, #0
   14b04:	ea000002 	b	14b14 <hal_nvmem_start+0x98>
   14b08:	e3a03000 	mov	r3, #0
   14b0c:	ea000000 	b	14b14 <hal_nvmem_start+0x98>
   14b10:	e3a03000 	mov	r3, #0
   14b14:	e1a00003 	mov	r0, r3
   14b18:	e24bd004 	sub	sp, fp, #4
   14b1c:	e8bd8800 	pop	{fp, pc}
   14b20:	0000770d 	andeq	r7, r0, sp, lsl #14

00014b24 <hal_nvmem_capacity>:
   14b24:	e52db004 	push	{fp}		; (str fp, [sp, #-4]!)
   14b28:	e28db000 	add	fp, sp, #0
   14b2c:	e24dd00c 	sub	sp, sp, #12
   14b30:	e50b0008 	str	r0, [fp, #-8]
   14b34:	e320f000 	nop	{0}
   14b38:	e1a00002 	mov	r0, r2
   14b3c:	e1a01003 	mov	r1, r3
   14b40:	e28bd000 	add	sp, fp, #0
   14b44:	e49db004 	pop	{fp}		; (ldr fp, [sp], #4)
   14b48:	e12fff1e 	bx	lr

00014b4c <hal_nvmem_fat_file_size>:
   14b4c:	e92d4800 	push	{fp, lr}
   14b50:	e28db004 	add	fp, sp, #4
   14b54:	e24ddf66 	sub	sp, sp, #408	; 0x198
   14b58:	e50b0198 	str	r0, [fp, #-408]	; 0xfffffe68
   14b5c:	e59f30a8 	ldr	r3, [pc, #168]	; 14c0c <hal_nvmem_fat_file_size+0xc0>
   14b60:	e08f3003 	add	r3, pc, r3
   14b64:	e5d33000 	ldrb	r3, [r3]
   14b68:	e2233001 	eor	r3, r3, #1
   14b6c:	e6ef3073 	uxtb	r3, r3
   14b70:	e3530000 	cmp	r3, #0
   14b74:	0a000001 	beq	14b80 <hal_nvmem_fat_file_size+0x34>
   14b78:	e3a03000 	mov	r3, #0
   14b7c:	ea00001f 	b	14c00 <hal_nvmem_fat_file_size+0xb4>
   14b80:	e3a03000 	mov	r3, #0
   14b84:	e50b3008 	str	r3, [fp, #-8]
   14b88:	e24b3f65 	sub	r3, fp, #404	; 0x194
   14b8c:	e1a01003 	mov	r1, r3
   14b90:	e59f3078 	ldr	r3, [pc, #120]	; 14c10 <hal_nvmem_fat_file_size+0xc4>
   14b94:	e08f3003 	add	r3, pc, r3
   14b98:	e1a00003 	mov	r0, r3
   14b9c:	ebffe079 	bl	cd88 <sdFindFirstFile>
   14ba0:	e50b000c 	str	r0, [fp, #-12]
   14ba4:	e3a03000 	mov	r3, #0
   14ba8:	e54b300d 	strb	r3, [fp, #-13]
   14bac:	e24b3f65 	sub	r3, fp, #404	; 0x194
   14bb0:	e2833078 	add	r3, r3, #120	; 0x78
   14bb4:	e1a01003 	mov	r1, r3
   14bb8:	e51b0198 	ldr	r0, [fp, #-408]	; 0xfffffe68
   14bbc:	fa000322 	blx	1584c <strcmp>
   14bc0:	e1a03000 	mov	r3, r0
   14bc4:	e3530000 	cmp	r3, #0
   14bc8:	1a000002 	bne	14bd8 <hal_nvmem_fat_file_size+0x8c>
   14bcc:	e51b3120 	ldr	r3, [fp, #-288]	; 0xfffffee0
   14bd0:	e50b3008 	str	r3, [fp, #-8]
   14bd4:	ea000006 	b	14bf4 <hal_nvmem_fat_file_size+0xa8>
   14bd8:	e24b3f65 	sub	r3, fp, #404	; 0x194
   14bdc:	e1a01003 	mov	r1, r3
   14be0:	e51b000c 	ldr	r0, [fp, #-12]
   14be4:	ebffe1ab 	bl	d298 <sdFindNextFile>
   14be8:	e1a03000 	mov	r3, r0
   14bec:	e3530000 	cmp	r3, #0
   14bf0:	1affffed 	bne	14bac <hal_nvmem_fat_file_size+0x60>
   14bf4:	e51b000c 	ldr	r0, [fp, #-12]
   14bf8:	ebffe1f2 	bl	d3c8 <sdFindClose>
   14bfc:	e51b3008 	ldr	r3, [fp, #-8]
   14c00:	e1a00003 	mov	r0, r3
   14c04:	e24bd004 	sub	sp, fp, #4
   14c08:	e8bd8800 	pop	{fp, pc}
   14c0c:	00007665 	andeq	r7, r0, r5, ror #12
   14c10:	020b2cd0 	andeq	r2, fp, #208, 24	; 0xd000

00014c14 <hal_nvmem_fat_file_read>:
   14c14:	e92d4800 	push	{fp, lr}
   14c18:	e28db004 	add	fp, sp, #4
   14c1c:	e24dd028 	sub	sp, sp, #40	; 0x28
   14c20:	e50b0010 	str	r0, [fp, #-16]
   14c24:	e50b1014 	str	r1, [fp, #-20]	; 0xffffffec
   14c28:	e50b2018 	str	r2, [fp, #-24]	; 0xffffffe8
   14c2c:	e3a03000 	mov	r3, #0
   14c30:	e58d3008 	str	r3, [sp, #8]
   14c34:	e3a03080 	mov	r3, #128	; 0x80
   14c38:	e58d3004 	str	r3, [sp, #4]
   14c3c:	e3a03003 	mov	r3, #3
   14c40:	e58d3000 	str	r3, [sp]
   14c44:	e3a03000 	mov	r3, #0
   14c48:	e3a02000 	mov	r2, #0
   14c4c:	e3a01102 	mov	r1, #-2147483648	; 0x80000000
   14c50:	e51b0010 	ldr	r0, [fp, #-16]
   14c54:	ebffe203 	bl	d468 <sdCreateFile>
   14c58:	e50b0008 	str	r0, [fp, #-8]
   14c5c:	e51b3008 	ldr	r3, [fp, #-8]
   14c60:	e3530000 	cmp	r3, #0
   14c64:	1a000001 	bne	14c70 <hal_nvmem_fat_file_read+0x5c>
   14c68:	e3a03000 	mov	r3, #0
   14c6c:	ea00000d 	b	14ca8 <hal_nvmem_fat_file_read+0x94>
   14c70:	e24b200c 	sub	r2, fp, #12
   14c74:	e3a03000 	mov	r3, #0
   14c78:	e58d3000 	str	r3, [sp]
   14c7c:	e1a03002 	mov	r3, r2
   14c80:	e51b2018 	ldr	r2, [fp, #-24]	; 0xffffffe8
   14c84:	e51b1014 	ldr	r1, [fp, #-20]	; 0xffffffec
   14c88:	e51b0008 	ldr	r0, [fp, #-8]
   14c8c:	ebffe38a 	bl	dabc <sdReadFile>
   14c90:	e1a03000 	mov	r3, r0
   14c94:	e3530000 	cmp	r3, #0
   14c98:	0a000001 	beq	14ca4 <hal_nvmem_fat_file_read+0x90>
   14c9c:	e51b300c 	ldr	r3, [fp, #-12]
   14ca0:	ea000000 	b	14ca8 <hal_nvmem_fat_file_read+0x94>
   14ca4:	e3a03000 	mov	r3, #0
   14ca8:	e1a00003 	mov	r0, r3
   14cac:	e24bd004 	sub	sp, fp, #4
   14cb0:	e8bd8800 	pop	{fp, pc}

00014cb4 <hal_nvmem_fat_file_write>:
   14cb4:	e52db004 	push	{fp}		; (str fp, [sp, #-4]!)
   14cb8:	e28db000 	add	fp, sp, #0
   14cbc:	e24dd014 	sub	sp, sp, #20
   14cc0:	e50b0008 	str	r0, [fp, #-8]
   14cc4:	e50b100c 	str	r1, [fp, #-12]
   14cc8:	e50b2010 	str	r2, [fp, #-16]
   14ccc:	e3a03000 	mov	r3, #0
   14cd0:	e1a00003 	mov	r0, r3
   14cd4:	e28bd000 	add	sp, fp, #0
   14cd8:	e49db004 	pop	{fp}		; (ldr fp, [sp], #4)
   14cdc:	e12fff1e 	bx	lr

00014ce0 <hal_nvmem_fat_file_list>:
   14ce0:	e92d4800 	push	{fp, lr}
   14ce4:	e28db004 	add	fp, sp, #4
   14ce8:	e24ddf66 	sub	sp, sp, #408	; 0x198
   14cec:	e50b0198 	str	r0, [fp, #-408]	; 0xfffffe68
   14cf0:	e50b119c 	str	r1, [fp, #-412]	; 0xfffffe64
   14cf4:	e24b3e19 	sub	r3, fp, #400	; 0x190
   14cf8:	e1a01003 	mov	r1, r3
   14cfc:	e59f30a8 	ldr	r3, [pc, #168]	; 14dac <hal_nvmem_fat_file_list+0xcc>
   14d00:	e08f3003 	add	r3, pc, r3
   14d04:	e1a00003 	mov	r0, r3
   14d08:	ebffe01e 	bl	cd88 <sdFindFirstFile>
   14d0c:	e50b000c 	str	r0, [fp, #-12]
   14d10:	e3a03000 	mov	r3, #0
   14d14:	e50b3008 	str	r3, [fp, #-8]
   14d18:	e51b3008 	ldr	r3, [fp, #-8]
   14d1c:	e3a0201f 	mov	r2, #31
   14d20:	e0030392 	mul	r3, r2, r3
   14d24:	e51b2198 	ldr	r2, [fp, #-408]	; 0xfffffe68
   14d28:	e0820003 	add	r0, r2, r3
   14d2c:	e24b3e19 	sub	r3, fp, #400	; 0x190
   14d30:	e2833078 	add	r3, r3, #120	; 0x78
   14d34:	e3a0201e 	mov	r2, #30
   14d38:	e1a01003 	mov	r1, r3
   14d3c:	fa000287 	blx	15760 <memcpy>
   14d40:	e51b3008 	ldr	r3, [fp, #-8]
   14d44:	e3a0201f 	mov	r2, #31
   14d48:	e0030392 	mul	r3, r2, r3
   14d4c:	e51b2198 	ldr	r2, [fp, #-408]	; 0xfffffe68
   14d50:	e0823003 	add	r3, r2, r3
   14d54:	e3a02000 	mov	r2, #0
   14d58:	e5c3201e 	strb	r2, [r3, #30]
   14d5c:	e51b3008 	ldr	r3, [fp, #-8]
   14d60:	e2833001 	add	r3, r3, #1
   14d64:	e50b3008 	str	r3, [fp, #-8]
   14d68:	e24b3e19 	sub	r3, fp, #400	; 0x190
   14d6c:	e1a01003 	mov	r1, r3
   14d70:	e51b000c 	ldr	r0, [fp, #-12]
   14d74:	ebffe147 	bl	d298 <sdFindNextFile>
   14d78:	e1a03000 	mov	r3, r0
   14d7c:	e3530000 	cmp	r3, #0
   14d80:	0a000003 	beq	14d94 <hal_nvmem_fat_file_list+0xb4>
   14d84:	e51b2008 	ldr	r2, [fp, #-8]
   14d88:	e51b319c 	ldr	r3, [fp, #-412]	; 0xfffffe64
   14d8c:	e1520003 	cmp	r2, r3
   14d90:	9affffe0 	bls	14d18 <hal_nvmem_fat_file_list+0x38>
   14d94:	e51b000c 	ldr	r0, [fp, #-12]
   14d98:	ebffe18a 	bl	d3c8 <sdFindClose>
   14d9c:	e51b3008 	ldr	r3, [fp, #-8]
   14da0:	e1a00003 	mov	r0, r3
   14da4:	e24bd004 	sub	sp, fp, #4
   14da8:	e8bd8800 	pop	{fp, pc}
   14dac:	020b2b64 	andeq	r2, fp, #100, 22	; 0x19000

00014db0 <fs_mount>:
   14db0:	e52db004 	push	{fp}		; (str fp, [sp, #-4]!)
   14db4:	e28db000 	add	fp, sp, #0
   14db8:	e3a03001 	mov	r3, #1
   14dbc:	e1a00003 	mov	r0, r3
   14dc0:	e28bd000 	add	sp, fp, #0
   14dc4:	e49db004 	pop	{fp}		; (ldr fp, [sp], #4)
   14dc8:	e12fff1e 	bx	lr

00014dcc <sdcard_init>:
   14dcc:	e92d4800 	push	{fp, lr}
   14dd0:	e28db004 	add	fp, sp, #4
   14dd4:	e24dd008 	sub	sp, sp, #8
   14dd8:	e50b0008 	str	r0, [fp, #-8]
   14ddc:	e59f302c 	ldr	r3, [pc, #44]	; 14e10 <sdcard_init+0x44>
   14de0:	e08f3003 	add	r3, pc, r3
   14de4:	e3a02001 	mov	r2, #1
   14de8:	e59f1024 	ldr	r1, [pc, #36]	; 14e14 <sdcard_init+0x48>
   14dec:	e7931001 	ldr	r1, [r3, r1]
   14df0:	e59f0020 	ldr	r0, [pc, #32]	; 14e18 <sdcard_init+0x4c>
   14df4:	e7933000 	ldr	r3, [r3, r0]
   14df8:	e1a00003 	mov	r0, r3
   14dfc:	ebffe6e6 	bl	e99c <sdInitCard>
   14e00:	e3a03001 	mov	r3, #1
   14e04:	e1a00003 	mov	r0, r3
   14e08:	e24bd004 	sub	sp, fp, #4
   14e0c:	e8bd8800 	pop	{fp, pc}
   14e10:	000015ac 	andeq	r1, r0, ip, lsr #11
   14e14:	00000024 	andeq	r0, r0, r4, lsr #32
   14e18:	00000000 	andeq	r0, r0, r0

00014e1c <hal_memreg_init>:
   14e1c:	e52db004 	push	{fp}		; (str fp, [sp, #-4]!)
   14e20:	e28db000 	add	fp, sp, #0
   14e24:	e320f000 	nop	{0}
   14e28:	e28bd000 	add	sp, fp, #0
   14e2c:	e49db004 	pop	{fp}		; (ldr fp, [sp], #4)
   14e30:	e12fff1e 	bx	lr

00014e34 <hal_memreg_read>:
   14e34:	e52db004 	push	{fp}		; (str fp, [sp, #-4]!)
   14e38:	e28db000 	add	fp, sp, #0
   14e3c:	e24dd00c 	sub	sp, sp, #12
   14e40:	e50b0008 	str	r0, [fp, #-8]
   14e44:	e50b100c 	str	r1, [fp, #-12]
   14e48:	e59f30d4 	ldr	r3, [pc, #212]	; 14f24 <hal_memreg_read+0xf0>
   14e4c:	e08f3003 	add	r3, pc, r3
   14e50:	e51b200c 	ldr	r2, [fp, #-12]
   14e54:	e3520000 	cmp	r2, #0
   14e58:	0a00002b 	beq	14f0c <hal_memreg_read+0xd8>
   14e5c:	e51b200c 	ldr	r2, [fp, #-12]
   14e60:	e51b1008 	ldr	r1, [fp, #-8]
   14e64:	e5821000 	str	r1, [r2]
   14e68:	e51b2008 	ldr	r2, [fp, #-8]
   14e6c:	e3520003 	cmp	r2, #3
   14e70:	908ff102 	addls	pc, pc, r2, lsl #2
   14e74:	ea000026 	b	14f14 <hal_memreg_read+0xe0>
   14e78:	ea000002 	b	14e88 <hal_memreg_read+0x54>
   14e7c:	ea000008 	b	14ea4 <hal_memreg_read+0x70>
   14e80:	ea00000f 	b	14ec4 <hal_memreg_read+0x90>
   14e84:	ea000018 	b	14eec <hal_memreg_read+0xb8>
   14e88:	e51b300c 	ldr	r3, [fp, #-12]
   14e8c:	e3a02902 	mov	r2, #32768	; 0x8000
   14e90:	e5832004 	str	r2, [r3, #4]
   14e94:	e51b300c 	ldr	r3, [fp, #-12]
   14e98:	e3a02302 	mov	r2, #134217728	; 0x8000000
   14e9c:	e5832008 	str	r2, [r3, #8]
   14ea0:	ea00001c 	b	14f18 <hal_memreg_read+0xe4>
   14ea4:	e51b200c 	ldr	r2, [fp, #-12]
   14ea8:	e3083004 	movw	r3, #32772	; 0x8004
   14eac:	e3403800 	movt	r3, #2048	; 0x800
   14eb0:	e5823004 	str	r3, [r2, #4]
   14eb4:	e51b300c 	ldr	r3, [fp, #-12]
   14eb8:	e3e023ff 	mvn	r2, #-67108861	; 0xfc000003
   14ebc:	e5832008 	str	r2, [r3, #8]
   14ec0:	ea000014 	b	14f18 <hal_memreg_read+0xe4>
   14ec4:	e51b200c 	ldr	r2, [fp, #-12]
   14ec8:	e59f1058 	ldr	r1, [pc, #88]	; 14f28 <hal_memreg_read+0xf4>
   14ecc:	e7931001 	ldr	r1, [r3, r1]
   14ed0:	e5821004 	str	r1, [r2, #4]
   14ed4:	e59f2050 	ldr	r2, [pc, #80]	; 14f2c <hal_memreg_read+0xf8>
   14ed8:	e7933002 	ldr	r3, [r3, r2]
   14edc:	e1a02003 	mov	r2, r3
   14ee0:	e51b300c 	ldr	r3, [fp, #-12]
   14ee4:	e5832008 	str	r2, [r3, #8]
   14ee8:	ea00000a 	b	14f18 <hal_memreg_read+0xe4>
   14eec:	e51b200c 	ldr	r2, [fp, #-12]
   14ef0:	e3a03902 	mov	r3, #32768	; 0x8000
   14ef4:	e3403c00 	movt	r3, #3072	; 0xc00
   14ef8:	e5823004 	str	r3, [r2, #4]
   14efc:	e51b300c 	ldr	r3, [fp, #-12]
   14f00:	e3a02301 	mov	r2, #67108864	; 0x4000000
   14f04:	e5832008 	str	r2, [r3, #8]
   14f08:	ea000002 	b	14f18 <hal_memreg_read+0xe4>
   14f0c:	e320f000 	nop	{0}
   14f10:	ea000000 	b	14f18 <hal_memreg_read+0xe4>
   14f14:	e320f000 	nop	{0}
   14f18:	e28bd000 	add	sp, fp, #0
   14f1c:	e49db004 	pop	{fp}		; (ldr fp, [sp], #4)
   14f20:	e12fff1e 	bx	lr
   14f24:	00001540 	andeq	r1, r0, r0, asr #10
   14f28:	00000028 	andeq	r0, r0, r8, lsr #32
   14f2c:	0000002c 	andeq	r0, r0, ip, lsr #32

00014f30 <min>:
   14f30:	e52db004 	push	{fp}		; (str fp, [sp, #-4]!)
   14f34:	e28db000 	add	fp, sp, #0
   14f38:	e24dd00c 	sub	sp, sp, #12
   14f3c:	e50b0008 	str	r0, [fp, #-8]
   14f40:	e50b100c 	str	r1, [fp, #-12]
   14f44:	e51b200c 	ldr	r2, [fp, #-12]
   14f48:	e51b3008 	ldr	r3, [fp, #-8]
   14f4c:	e1520003 	cmp	r2, r3
   14f50:	31a03002 	movcc	r3, r2
   14f54:	21a03003 	movcs	r3, r3
   14f58:	e1a00003 	mov	r0, r3
   14f5c:	e28bd000 	add	sp, fp, #0
   14f60:	e49db004 	pop	{fp}		; (ldr fp, [sp], #4)
   14f64:	e12fff1e 	bx	lr

00014f68 <loader_init>:
   14f68:	e92d4800 	push	{fp, lr}
   14f6c:	e28db004 	add	fp, sp, #4
   14f70:	e59f3014 	ldr	r3, [pc, #20]	; 14f8c <loader_init+0x24>
   14f74:	e08f3003 	add	r3, pc, r3
   14f78:	e1a01003 	mov	r1, r3
   14f7c:	e3a00001 	mov	r0, #1
   14f80:	ebffffab 	bl	14e34 <hal_memreg_read>
   14f84:	e320f000 	nop	{0}
   14f88:	e8bd8800 	pop	{fp, pc}
   14f8c:	00007254 	andeq	r7, r0, r4, asr r2

00014f90 <loader_load_app>:
   14f90:	e92d4800 	push	{fp, lr}
   14f94:	e28db004 	add	fp, sp, #4
   14f98:	e24dd020 	sub	sp, sp, #32
   14f9c:	e50b0018 	str	r0, [fp, #-24]	; 0xffffffe8
   14fa0:	e50b101c 	str	r1, [fp, #-28]	; 0xffffffe4
   14fa4:	e50b2020 	str	r2, [fp, #-32]	; 0xffffffe0
   14fa8:	e51b0018 	ldr	r0, [fp, #-24]	; 0xffffffe8
   14fac:	ebfffee6 	bl	14b4c <hal_nvmem_fat_file_size>
   14fb0:	e50b0008 	str	r0, [fp, #-8]
   14fb4:	e51b3008 	ldr	r3, [fp, #-8]
   14fb8:	e3530000 	cmp	r3, #0
   14fbc:	1a000001 	bne	14fc8 <loader_load_app+0x38>
   14fc0:	e3a03000 	mov	r3, #0
   14fc4:	ea000030 	b	1508c <loader_load_app+0xfc>
   14fc8:	e51b3008 	ldr	r3, [fp, #-8]
   14fcc:	e3530402 	cmp	r3, #33554432	; 0x2000000
   14fd0:	8a000002 	bhi	14fe0 <loader_load_app+0x50>
   14fd4:	e51b3008 	ldr	r3, [fp, #-8]
   14fd8:	e3530301 	cmp	r3, #67108864	; 0x4000000
   14fdc:	9a000001 	bls	14fe8 <loader_load_app+0x58>
   14fe0:	e3a03001 	mov	r3, #1
   14fe4:	ea000028 	b	1508c <loader_load_app+0xfc>
   14fe8:	e3a01301 	mov	r1, #67108864	; 0x4000000
   14fec:	e3a00402 	mov	r0, #33554432	; 0x2000000
   14ff0:	ebffffce 	bl	14f30 <min>
   14ff4:	e1a03000 	mov	r3, r0
   14ff8:	e1a02003 	mov	r2, r3
   14ffc:	e59f3094 	ldr	r3, [pc, #148]	; 15098 <loader_load_app+0x108>
   15000:	e08f3003 	add	r3, pc, r3
   15004:	e1a01003 	mov	r1, r3
   15008:	e51b0018 	ldr	r0, [fp, #-24]	; 0xffffffe8
   1500c:	ebffff00 	bl	14c14 <hal_nvmem_fat_file_read>
   15010:	e50b000c 	str	r0, [fp, #-12]
   15014:	e3a03402 	mov	r3, #33554432	; 0x2000000
   15018:	e50b300c 	str	r3, [fp, #-12]
   1501c:	e59f3078 	ldr	r3, [pc, #120]	; 1509c <loader_load_app+0x10c>
   15020:	e08f3003 	add	r3, pc, r3
   15024:	e5932000 	ldr	r2, [r3]
   15028:	e59f3070 	ldr	r3, [pc, #112]	; 150a0 <loader_load_app+0x110>
   1502c:	e08f3003 	add	r3, pc, r3
   15030:	e5832000 	str	r2, [r3]
   15034:	e59f3068 	ldr	r3, [pc, #104]	; 150a4 <loader_load_app+0x114>
   15038:	e08f3003 	add	r3, pc, r3
   1503c:	e2833004 	add	r3, r3, #4
   15040:	e50b3010 	str	r3, [fp, #-16]
   15044:	e59f305c 	ldr	r3, [pc, #92]	; 150a8 <loader_load_app+0x118>
   15048:	e08f3003 	add	r3, pc, r3
   1504c:	e5933004 	ldr	r3, [r3, #4]
   15050:	e51b200c 	ldr	r2, [fp, #-12]
   15054:	e51b1010 	ldr	r1, [fp, #-16]
   15058:	e1a00003 	mov	r0, r3
   1505c:	eb000014 	bl	150b4 <load_app>
   15060:	e51b301c 	ldr	r3, [fp, #-28]	; 0xffffffe4
   15064:	e59f2040 	ldr	r2, [pc, #64]	; 150ac <loader_load_app+0x11c>
   15068:	e08f2002 	add	r2, pc, r2
   1506c:	e8920007 	ldm	r2, {r0, r1, r2}
   15070:	e8830007 	stm	r3, {r0, r1, r2}
   15074:	e59f3034 	ldr	r3, [pc, #52]	; 150b0 <loader_load_app+0x120>
   15078:	e08f3003 	add	r3, pc, r3
   1507c:	e5932000 	ldr	r2, [r3]
   15080:	e51b3020 	ldr	r3, [fp, #-32]	; 0xffffffe0
   15084:	e5832000 	str	r2, [r3]
   15088:	e3a03002 	mov	r3, #2
   1508c:	e1a00003 	mov	r0, r3
   15090:	e24bd004 	sub	sp, fp, #4
   15094:	e8bd8800 	pop	{fp, pc}
   15098:	000071d4 	ldrdeq	r7, [r0], -r4
   1509c:	000071b4 			; <UNDEFINED> instruction: 0x000071b4
   150a0:	020071a8 	andeq	r7, r0, #168, 2	; 0x2a
   150a4:	0000719c 	muleq	r0, ip, r1
   150a8:	00007180 	andeq	r7, r0, r0, lsl #3
   150ac:	00007160 	andeq	r7, r0, r0, ror #2
   150b0:	0200715c 	andeq	r7, r0, #92, 2

000150b4 <load_app>:
   150b4:	e52db004 	push	{fp}		; (str fp, [sp, #-4]!)
   150b8:	e28db000 	add	fp, sp, #0
   150bc:	e24dd01c 	sub	sp, sp, #28
   150c0:	e50b0010 	str	r0, [fp, #-16]
   150c4:	e50b1014 	str	r1, [fp, #-20]	; 0xffffffec
   150c8:	e50b2018 	str	r2, [fp, #-24]	; 0xffffffe8
   150cc:	e3a03000 	mov	r3, #0
   150d0:	e50b3008 	str	r3, [fp, #-8]
   150d4:	ea00000a 	b	15104 <load_app+0x50>
   150d8:	e51b2014 	ldr	r2, [fp, #-20]	; 0xffffffec
   150dc:	e51b3008 	ldr	r3, [fp, #-8]
   150e0:	e0822003 	add	r2, r2, r3
   150e4:	e51b1010 	ldr	r1, [fp, #-16]
   150e8:	e51b3008 	ldr	r3, [fp, #-8]
   150ec:	e0813003 	add	r3, r1, r3
   150f0:	e5d22000 	ldrb	r2, [r2]
   150f4:	e5c32000 	strb	r2, [r3]
   150f8:	e51b3008 	ldr	r3, [fp, #-8]
   150fc:	e2833001 	add	r3, r3, #1
   15100:	e50b3008 	str	r3, [fp, #-8]
   15104:	e51b2008 	ldr	r2, [fp, #-8]
   15108:	e51b3018 	ldr	r3, [fp, #-24]	; 0xffffffe8
   1510c:	e1520003 	cmp	r2, r3
   15110:	3afffff0 	bcc	150d8 <load_app+0x24>
   15114:	e320f000 	nop	{0}
   15118:	e28bd000 	add	sp, fp, #0
   1511c:	e49db004 	pop	{fp}		; (ldr fp, [sp], #4)
   15120:	e12fff1e 	bx	lr

00015124 <syscalls_init>:
   15124:	e92d4800 	push	{fp, lr}
   15128:	e28db004 	add	fp, sp, #4
   1512c:	e59f2018 	ldr	r2, [pc, #24]	; 1514c <syscalls_init+0x28>
   15130:	e08f2002 	add	r2, pc, r2
   15134:	e59f3014 	ldr	r3, [pc, #20]	; 15150 <syscalls_init+0x2c>
   15138:	e7923003 	ldr	r3, [r2, r3]
   1513c:	e1a00003 	mov	r0, r3
   15140:	eb0000a0 	bl	153c8 <hal_cpu_svc_start>
   15144:	e320f000 	nop	{0}
   15148:	e8bd8800 	pop	{fp, pc}
   1514c:	0000125c 	andeq	r1, r0, ip, asr r2
   15150:	0000001c 	andeq	r0, r0, ip, lsl r0

00015154 <syscalls_entry_point>:
   15154:	e92d4800 	push	{fp, lr}
   15158:	e28db004 	add	fp, sp, #4
   1515c:	e24dd018 	sub	sp, sp, #24
   15160:	e1a0c000 	mov	ip, r0
   15164:	e1a00001 	mov	r0, r1
   15168:	e1a01002 	mov	r1, r2
   1516c:	e1a02003 	mov	r2, r3
   15170:	e1a0300e 	mov	r3, lr
   15174:	e50bc008 	str	ip, [fp, #-8]
   15178:	e50b000c 	str	r0, [fp, #-12]
   1517c:	e50b1010 	str	r1, [fp, #-16]
   15180:	e50b2014 	str	r2, [fp, #-20]	; 0xffffffec
   15184:	e50b3018 	str	r3, [fp, #-24]	; 0xffffffe8
   15188:	e51b3018 	ldr	r3, [fp, #-24]	; 0xffffffe8
   1518c:	e2433004 	sub	r3, r3, #4
   15190:	e5933000 	ldr	r3, [r3]
   15194:	e50b301c 	str	r3, [fp, #-28]	; 0xffffffe4
   15198:	e51b301c 	ldr	r3, [fp, #-28]	; 0xffffffe4
   1519c:	e6ef3073 	uxtb	r3, r3
   151a0:	e50b301c 	str	r3, [fp, #-28]	; 0xffffffe4
   151a4:	e51b301c 	ldr	r3, [fp, #-28]	; 0xffffffe4
   151a8:	e353000f 	cmp	r3, #15
   151ac:	908ff103 	addls	pc, pc, r3, lsl #2
   151b0:	ea00002b 	b	15264 <syscalls_entry_point+0x110>
   151b4:	ea00000e 	b	151f4 <syscalls_entry_point+0xa0>
   151b8:	ea000029 	b	15264 <syscalls_entry_point+0x110>
   151bc:	ea000028 	b	15264 <syscalls_entry_point+0x110>
   151c0:	ea000027 	b	15264 <syscalls_entry_point+0x110>
   151c4:	ea000026 	b	15264 <syscalls_entry_point+0x110>
   151c8:	ea000025 	b	15264 <syscalls_entry_point+0x110>
   151cc:	ea000024 	b	15264 <syscalls_entry_point+0x110>
   151d0:	ea000023 	b	15264 <syscalls_entry_point+0x110>
   151d4:	ea000022 	b	15264 <syscalls_entry_point+0x110>
   151d8:	ea00000d 	b	15214 <syscalls_entry_point+0xc0>
   151dc:	ea000012 	b	1522c <syscalls_entry_point+0xd8>
   151e0:	ea00001f 	b	15264 <syscalls_entry_point+0x110>
   151e4:	ea00001e 	b	15264 <syscalls_entry_point+0x110>
   151e8:	ea00001d 	b	15264 <syscalls_entry_point+0x110>
   151ec:	ea00001c 	b	15264 <syscalls_entry_point+0x110>
   151f0:	ea000014 	b	15248 <syscalls_entry_point+0xf4>
   151f4:	e51b2008 	ldr	r2, [fp, #-8]
   151f8:	e51b300c 	ldr	r3, [fp, #-12]
   151fc:	e0821003 	add	r1, r2, r3
   15200:	e51b3014 	ldr	r3, [fp, #-20]	; 0xffffffec
   15204:	e51b2010 	ldr	r2, [fp, #-16]
   15208:	e0812002 	add	r2, r1, r2
   1520c:	e5832000 	str	r2, [r3]
   15210:	ea000014 	b	15268 <syscalls_entry_point+0x114>
   15214:	e51b3008 	ldr	r3, [fp, #-8]
   15218:	e6ef3073 	uxtb	r3, r3
   1521c:	e1a01003 	mov	r1, r3
   15220:	e3a00000 	mov	r0, #0
   15224:	ebffecad 	bl	104e0 <hal_io_serial_putc>
   15228:	ea00000e 	b	15268 <syscalls_entry_point+0x114>
   1522c:	e3a00000 	mov	r0, #0
   15230:	ebffecbd 	bl	1052c <hal_io_serial_getc>
   15234:	e1a03000 	mov	r3, r0
   15238:	e1a02003 	mov	r2, r3
   1523c:	e51b300c 	ldr	r3, [fp, #-12]
   15240:	e5832000 	str	r2, [r3]
   15244:	ea000007 	b	15268 <syscalls_entry_point+0x114>
   15248:	e51b3008 	ldr	r3, [fp, #-8]
   1524c:	e6ef3073 	uxtb	r3, r3
   15250:	e3e024ff 	mvn	r2, #-16777216	; 0xff000000
   15254:	e3a01002 	mov	r1, #2
   15258:	e1a00003 	mov	r0, r3
   1525c:	ebffeafb 	bl	fe50 <hal_io_video_putc>
   15260:	ea000000 	b	15268 <syscalls_entry_point+0x114>
   15264:	e320f000 	nop	{0}
   15268:	eb00006e 	bl	15428 <hal_cpu_irq_enable>
   1526c:	e320f000 	nop	{0}
   15270:	e24bd004 	sub	sp, fp, #4
   15274:	e8bd8800 	pop	{fp, pc}

00015278 <hal_cpu_systimer_start>:
   15278:	e92d4800 	push	{fp, lr}
   1527c:	e28db004 	add	fp, sp, #4
   15280:	e24dd008 	sub	sp, sp, #8
   15284:	e50b0008 	str	r0, [fp, #-8]
   15288:	e50b100c 	str	r1, [fp, #-12]
   1528c:	e59f103c 	ldr	r1, [pc, #60]	; 152d0 <hal_cpu_systimer_start+0x58>
   15290:	e08f1001 	add	r1, pc, r1
   15294:	e51b200c 	ldr	r2, [fp, #-12]
   15298:	e59f3034 	ldr	r3, [pc, #52]	; 152d4 <hal_cpu_systimer_start+0x5c>
   1529c:	e7913003 	ldr	r3, [r1, r3]
   152a0:	e1a01003 	mov	r1, r3
   152a4:	e3a00000 	mov	r0, #0
   152a8:	eb000071 	bl	15474 <irq_register_callback>
   152ac:	e51b0008 	ldr	r0, [fp, #-8]
   152b0:	eb000008 	bl	152d8 <ms_to_cntv_val>
   152b4:	e1a03000 	mov	r3, r0
   152b8:	e1a00003 	mov	r0, r3
   152bc:	eb000114 	bl	15714 <per_core_timer_write_cntv_tval>
   152c0:	eb00011d 	bl	1573c <per_core_timer_enable>
   152c4:	e320f000 	nop	{0}
   152c8:	e24bd004 	sub	sp, fp, #4
   152cc:	e8bd8800 	pop	{fp, pc}
   152d0:	000010fc 	strdeq	r1, [r0], -ip
   152d4:	00000030 	andeq	r0, r0, r0, lsr r0

000152d8 <ms_to_cntv_val>:
   152d8:	e92d4800 	push	{fp, lr}
   152dc:	e28db004 	add	fp, sp, #4
   152e0:	e24dd008 	sub	sp, sp, #8
   152e4:	e50b0008 	str	r0, [fp, #-8]
   152e8:	eb0000ff 	bl	156ec <per_core_timer_read_cntfrq>
   152ec:	e1a01000 	mov	r1, r0
   152f0:	e51b2008 	ldr	r2, [fp, #-8]
   152f4:	e3043dd3 	movw	r3, #19923	; 0x4dd3
   152f8:	e3413062 	movt	r3, #4194	; 0x1062
   152fc:	e0832293 	umull	r2, r3, r3, r2
   15300:	e1a03323 	lsr	r3, r3, #6
   15304:	e0030193 	mul	r3, r3, r1
   15308:	e1a00003 	mov	r0, r3
   1530c:	e24bd004 	sub	sp, fp, #4
   15310:	e8bd8800 	pop	{fp, pc}

00015314 <hal_cpu_systimer_stop>:
   15314:	e52db004 	push	{fp}		; (str fp, [sp, #-4]!)
   15318:	e28db000 	add	fp, sp, #0
   1531c:	e320f000 	nop	{0}
   15320:	e28bd000 	add	sp, fp, #0
   15324:	e49db004 	pop	{fp}		; (ldr fp, [sp], #4)
   15328:	e12fff1e 	bx	lr

0001532c <hal_cpu_systimer_reestart>:
   1532c:	e92d4800 	push	{fp, lr}
   15330:	e28db004 	add	fp, sp, #4
   15334:	e24dd008 	sub	sp, sp, #8
   15338:	e50b0008 	str	r0, [fp, #-8]
   1533c:	e51b0008 	ldr	r0, [fp, #-8]
   15340:	ebffffe4 	bl	152d8 <ms_to_cntv_val>
   15344:	e1a03000 	mov	r3, r0
   15348:	e1a00003 	mov	r0, r3
   1534c:	eb0000f0 	bl	15714 <per_core_timer_write_cntv_tval>
   15350:	e320f000 	nop	{0}
   15354:	e24bd004 	sub	sp, fp, #4
   15358:	e8bd8800 	pop	{fp, pc}

0001535c <hal_cpu_systimer_is_pending>:
   1535c:	e92d4800 	push	{fp, lr}
   15360:	e28db004 	add	fp, sp, #4
   15364:	eb00009f 	bl	155e8 <per_core_timer_read_core0timer_pending>
   15368:	e1a03000 	mov	r3, r0
   1536c:	e2033008 	and	r3, r3, #8
   15370:	e3530000 	cmp	r3, #0
   15374:	13a03001 	movne	r3, #1
   15378:	03a03000 	moveq	r3, #0
   1537c:	e6ef3073 	uxtb	r3, r3
   15380:	e1a00003 	mov	r0, r3
   15384:	e8bd8800 	pop	{fp, pc}

00015388 <hal_cpu_irq_start>:
   15388:	e52db004 	push	{fp}		; (str fp, [sp, #-4]!)
   1538c:	e28db000 	add	fp, sp, #0
   15390:	e24dd00c 	sub	sp, sp, #12
   15394:	e50b0008 	str	r0, [fp, #-8]
   15398:	e59f2020 	ldr	r2, [pc, #32]	; 153c0 <hal_cpu_irq_start+0x38>
   1539c:	e08f2002 	add	r2, pc, r2
   153a0:	e59f301c 	ldr	r3, [pc, #28]	; 153c4 <hal_cpu_irq_start+0x3c>
   153a4:	e7923003 	ldr	r3, [r2, r3]
   153a8:	e51b2008 	ldr	r2, [fp, #-8]
   153ac:	e5832000 	str	r2, [r3]
   153b0:	e320f000 	nop	{0}
   153b4:	e28bd000 	add	sp, fp, #0
   153b8:	e49db004 	pop	{fp}		; (ldr fp, [sp], #4)
   153bc:	e12fff1e 	bx	lr
   153c0:	00000ff0 	strdeq	r0, [r0], -r0	; <UNPREDICTABLE>
   153c4:	00000008 	andeq	r0, r0, r8

000153c8 <hal_cpu_svc_start>:
   153c8:	e52db004 	push	{fp}		; (str fp, [sp, #-4]!)
   153cc:	e28db000 	add	fp, sp, #0
   153d0:	e24dd00c 	sub	sp, sp, #12
   153d4:	e50b0008 	str	r0, [fp, #-8]
   153d8:	e59f2020 	ldr	r2, [pc, #32]	; 15400 <hal_cpu_svc_start+0x38>
   153dc:	e08f2002 	add	r2, pc, r2
   153e0:	e59f301c 	ldr	r3, [pc, #28]	; 15404 <hal_cpu_svc_start+0x3c>
   153e4:	e7923003 	ldr	r3, [r2, r3]
   153e8:	e51b2008 	ldr	r2, [fp, #-8]
   153ec:	e5832000 	str	r2, [r3]
   153f0:	e320f000 	nop	{0}
   153f4:	e28bd000 	add	sp, fp, #0
   153f8:	e49db004 	pop	{fp}		; (ldr fp, [sp], #4)
   153fc:	e12fff1e 	bx	lr
   15400:	00000fb0 			; <UNDEFINED> instruction: 0x00000fb0
   15404:	00000038 	andeq	r0, r0, r8, lsr r0

00015408 <SVC_Handler>:
   15408:	e59f4028 	ldr	r4, [pc, #40]	; 15438 <hal_cpu_irq_disable+0x8>
   1540c:	e5944000 	ldr	r4, [r4]
   15410:	e12fff14 	bx	r4

00015414 <IRQ_Handler>:
   15414:	e59f4020 	ldr	r4, [pc, #32]	; 1543c <hal_cpu_irq_disable+0xc>
   15418:	e5944000 	ldr	r4, [r4]
   1541c:	e12fff14 	bx	r4

00015420 <io_halt>:
   15420:	e320f003 	wfi
   15424:	e12fff1e 	bx	lr

00015428 <hal_cpu_irq_enable>:
   15428:	f1080080 	cpsie	i
   1542c:	e12fff1e 	bx	lr

00015430 <hal_cpu_irq_disable>:
   15430:	f10c0080 	cpsid	i
   15434:	e12fff1e 	bx	lr
   15438:	020c717c 	andeq	r7, ip, #124, 2
   1543c:	020c7178 	andeq	r7, ip, #120, 2

00015440 <irq_init>:
   15440:	e92d4800 	push	{fp, lr}
   15444:	e28db004 	add	fp, sp, #4
   15448:	e59f201c 	ldr	r2, [pc, #28]	; 1546c <irq_init+0x2c>
   1544c:	e08f2002 	add	r2, pc, r2
   15450:	e59f3018 	ldr	r3, [pc, #24]	; 15470 <irq_init+0x30>
   15454:	e7923003 	ldr	r3, [r2, r3]
   15458:	e1a00003 	mov	r0, r3
   1545c:	ebffffc9 	bl	15388 <hal_cpu_irq_start>
   15460:	ebfffff0 	bl	15428 <hal_cpu_irq_enable>
   15464:	e320f000 	nop	{0}
   15468:	e8bd8800 	pop	{fp, pc}
   1546c:	00000f40 	andeq	r0, r0, r0, asr #30
   15470:	00000044 	andeq	r0, r0, r4, asr #32

00015474 <irq_register_callback>:
   15474:	e52db004 	push	{fp}		; (str fp, [sp, #-4]!)
   15478:	e28db000 	add	fp, sp, #0
   1547c:	e24dd014 	sub	sp, sp, #20
   15480:	e50b0008 	str	r0, [fp, #-8]
   15484:	e50b100c 	str	r1, [fp, #-12]
   15488:	e50b2010 	str	r2, [fp, #-16]
   1548c:	e59f3030 	ldr	r3, [pc, #48]	; 154c4 <irq_register_callback+0x50>
   15490:	e08f3003 	add	r3, pc, r3
   15494:	e59f202c 	ldr	r2, [pc, #44]	; 154c8 <irq_register_callback+0x54>
   15498:	e7932002 	ldr	r2, [r3, r2]
   1549c:	e51b100c 	ldr	r1, [fp, #-12]
   154a0:	e5821000 	str	r1, [r2]
   154a4:	e59f2020 	ldr	r2, [pc, #32]	; 154cc <irq_register_callback+0x58>
   154a8:	e7933002 	ldr	r3, [r3, r2]
   154ac:	e51b2010 	ldr	r2, [fp, #-16]
   154b0:	e5832000 	str	r2, [r3]
   154b4:	e320f000 	nop	{0}
   154b8:	e28bd000 	add	sp, fp, #0
   154bc:	e49db004 	pop	{fp}		; (ldr fp, [sp], #4)
   154c0:	e12fff1e 	bx	lr
   154c4:	00000efc 	strdeq	r0, [r0], -ip
   154c8:	00000004 	andeq	r0, r0, r4
   154cc:	00000018 	andeq	r0, r0, r8, lsl r0

000154d0 <irq_entry_point>:
   154d0:	e92d4830 	push	{r4, r5, fp, lr}
   154d4:	e28db00c 	add	fp, sp, #12
   154d8:	e59f4034 	ldr	r4, [pc, #52]	; 15514 <irq_entry_point+0x44>
   154dc:	e08f4004 	add	r4, pc, r4
   154e0:	e59f3030 	ldr	r3, [pc, #48]	; 15518 <irq_entry_point+0x48>
   154e4:	e7943003 	ldr	r3, [r4, r3]
   154e8:	e5933000 	ldr	r3, [r3]
   154ec:	e12fff33 	blx	r3
   154f0:	e1a03000 	mov	r3, r0
   154f4:	e3530000 	cmp	r3, #0
   154f8:	0a000003 	beq	1550c <irq_entry_point+0x3c>
   154fc:	e59f3018 	ldr	r3, [pc, #24]	; 1551c <irq_entry_point+0x4c>
   15500:	e7943003 	ldr	r3, [r4, r3]
   15504:	e5933000 	ldr	r3, [r3]
   15508:	e12fff33 	blx	r3
   1550c:	e320f000 	nop	{0}
   15510:	e8bd8830 	pop	{r4, r5, fp, pc}
   15514:	00000eb0 			; <UNDEFINED> instruction: 0x00000eb0
   15518:	00000004 	andeq	r0, r0, r4
   1551c:	00000018 	andeq	r0, r0, r8, lsl r0

00015520 <scheduler_init>:
   15520:	e92d4800 	push	{fp, lr}
   15524:	e28db004 	add	fp, sp, #4
   15528:	e59f3014 	ldr	r3, [pc, #20]	; 15544 <scheduler_init+0x24>
   1552c:	e08f3003 	add	r3, pc, r3
   15530:	e1a01003 	mov	r1, r3
   15534:	e3a00ffa 	mov	r0, #1000	; 0x3e8
   15538:	ebffff4e 	bl	15278 <hal_cpu_systimer_start>
   1553c:	e320f000 	nop	{0}
   15540:	e8bd8800 	pop	{fp, pc}
   15544:	00000014 	andeq	r0, r0, r4, lsl r0

00015548 <tick_callback>:
   15548:	e3a00ffa 	mov	r0, #1000	; 0x3e8
   1554c:	ebffff76 	bl	1532c <hal_cpu_systimer_reestart>
   15550:	e3a020ff 	mov	r2, #255	; 0xff
   15554:	e3a01001 	mov	r1, #1
   15558:	e59f300c 	ldr	r3, [pc, #12]	; 1556c <tick_callback+0x24>
   1555c:	e08f3003 	add	r3, pc, r3
   15560:	e1a00003 	mov	r0, r3
   15564:	ebffea23 	bl	fdf8 <hal_io_video_puts>
   15568:	e320f000 	nop	{0}
   1556c:	020b2310 	andeq	r2, fp, #16, 6	; 0x40000000

00015570 <mmio_write>:
   15570:	e52db004 	push	{fp}		; (str fp, [sp, #-4]!)
   15574:	e28db000 	add	fp, sp, #0
   15578:	e24dd00c 	sub	sp, sp, #12
   1557c:	e50b0008 	str	r0, [fp, #-8]
   15580:	e50b100c 	str	r1, [fp, #-12]
   15584:	e51b3008 	ldr	r3, [fp, #-8]
   15588:	e51b200c 	ldr	r2, [fp, #-12]
   1558c:	e5832000 	str	r2, [r3]
   15590:	e320f000 	nop	{0}
   15594:	e28bd000 	add	sp, fp, #0
   15598:	e49db004 	pop	{fp}		; (ldr fp, [sp], #4)
   1559c:	e12fff1e 	bx	lr

000155a0 <mmio_read>:
   155a0:	e52db004 	push	{fp}		; (str fp, [sp, #-4]!)
   155a4:	e28db000 	add	fp, sp, #0
   155a8:	e24dd00c 	sub	sp, sp, #12
   155ac:	e50b0008 	str	r0, [fp, #-8]
   155b0:	e51b3008 	ldr	r3, [fp, #-8]
   155b4:	e5933000 	ldr	r3, [r3]
   155b8:	e1a00003 	mov	r0, r3
   155bc:	e28bd000 	add	sp, fp, #0
   155c0:	e49db004 	pop	{fp}		; (ldr fp, [sp], #4)
   155c4:	e12fff1e 	bx	lr

000155c8 <per_core_timer_routing_core0cntv_to_core0irq>:
   155c8:	e92d4800 	push	{fp, lr}
   155cc:	e28db004 	add	fp, sp, #4
   155d0:	e3a01008 	mov	r1, #8
   155d4:	e3a00040 	mov	r0, #64	; 0x40
   155d8:	e3440000 	movt	r0, #16384	; 0x4000
   155dc:	ebffffe3 	bl	15570 <mmio_write>
   155e0:	e320f000 	nop	{0}
   155e4:	e8bd8800 	pop	{fp, pc}

000155e8 <per_core_timer_read_core0timer_pending>:
   155e8:	e92d4800 	push	{fp, lr}
   155ec:	e28db004 	add	fp, sp, #4
   155f0:	e24dd008 	sub	sp, sp, #8
   155f4:	e3a00060 	mov	r0, #96	; 0x60
   155f8:	e3440000 	movt	r0, #16384	; 0x4000
   155fc:	ebffffe7 	bl	155a0 <mmio_read>
   15600:	e50b0008 	str	r0, [fp, #-8]
   15604:	e51b3008 	ldr	r3, [fp, #-8]
   15608:	e1a00003 	mov	r0, r3
   1560c:	e24bd004 	sub	sp, fp, #4
   15610:	e8bd8800 	pop	{fp, pc}

00015614 <enable_cntv>:
   15614:	e52db004 	push	{fp}		; (str fp, [sp, #-4]!)
   15618:	e28db000 	add	fp, sp, #0
   1561c:	e24dd00c 	sub	sp, sp, #12
   15620:	e3a03001 	mov	r3, #1
   15624:	e50b3008 	str	r3, [fp, #-8]
   15628:	e51b3008 	ldr	r3, [fp, #-8]
   1562c:	ee0e3f33 	mcr	15, 0, r3, cr14, cr3, {1}
   15630:	e320f000 	nop	{0}
   15634:	e28bd000 	add	sp, fp, #0
   15638:	e49db004 	pop	{fp}		; (ldr fp, [sp], #4)
   1563c:	e12fff1e 	bx	lr

00015640 <disable_cntv>:
   15640:	e52db004 	push	{fp}		; (str fp, [sp, #-4]!)
   15644:	e28db000 	add	fp, sp, #0
   15648:	e24dd00c 	sub	sp, sp, #12
   1564c:	e3a03000 	mov	r3, #0
   15650:	e50b3008 	str	r3, [fp, #-8]
   15654:	e51b3008 	ldr	r3, [fp, #-8]
   15658:	ee0e3f33 	mcr	15, 0, r3, cr14, cr3, {1}
   1565c:	e320f000 	nop	{0}
   15660:	e28bd000 	add	sp, fp, #0
   15664:	e49db004 	pop	{fp}		; (ldr fp, [sp], #4)
   15668:	e12fff1e 	bx	lr

0001566c <read_cntvct>:
   1566c:	e52db004 	push	{fp}		; (str fp, [sp, #-4]!)
   15670:	e28db000 	add	fp, sp, #0
   15674:	e24dd00c 	sub	sp, sp, #12
   15678:	ec532f1e 	mrrc	15, 1, r2, r3, cr14
   1567c:	e14b20fc 	strd	r2, [fp, #-12]
   15680:	e14b20dc 	ldrd	r2, [fp, #-12]
   15684:	e1a00002 	mov	r0, r2
   15688:	e1a01003 	mov	r1, r3
   1568c:	e28bd000 	add	sp, fp, #0
   15690:	e49db004 	pop	{fp}		; (ldr fp, [sp], #4)
   15694:	e12fff1e 	bx	lr

00015698 <read_cntvoff>:
   15698:	e52db004 	push	{fp}		; (str fp, [sp, #-4]!)
   1569c:	e28db000 	add	fp, sp, #0
   156a0:	e24dd00c 	sub	sp, sp, #12
   156a4:	ec532f4e 	mrrc	15, 4, r2, r3, cr14
   156a8:	e14b20fc 	strd	r2, [fp, #-12]
   156ac:	e14b20dc 	ldrd	r2, [fp, #-12]
   156b0:	e1a00002 	mov	r0, r2
   156b4:	e1a01003 	mov	r1, r3
   156b8:	e28bd000 	add	sp, fp, #0
   156bc:	e49db004 	pop	{fp}		; (ldr fp, [sp], #4)
   156c0:	e12fff1e 	bx	lr

000156c4 <read_cntv_tval>:
   156c4:	e52db004 	push	{fp}		; (str fp, [sp, #-4]!)
   156c8:	e28db000 	add	fp, sp, #0
   156cc:	e24dd00c 	sub	sp, sp, #12
   156d0:	ee1e3f13 	mrc	15, 0, r3, cr14, cr3, {0}
   156d4:	e50b3008 	str	r3, [fp, #-8]
   156d8:	e51b3008 	ldr	r3, [fp, #-8]
   156dc:	e1a00003 	mov	r0, r3
   156e0:	e28bd000 	add	sp, fp, #0
   156e4:	e49db004 	pop	{fp}		; (ldr fp, [sp], #4)
   156e8:	e12fff1e 	bx	lr

000156ec <per_core_timer_read_cntfrq>:
   156ec:	e52db004 	push	{fp}		; (str fp, [sp, #-4]!)
   156f0:	e28db000 	add	fp, sp, #0
   156f4:	e24dd00c 	sub	sp, sp, #12
   156f8:	ee1e3f10 	mrc	15, 0, r3, cr14, cr0, {0}
   156fc:	e50b3008 	str	r3, [fp, #-8]
   15700:	e51b3008 	ldr	r3, [fp, #-8]
   15704:	e1a00003 	mov	r0, r3
   15708:	e28bd000 	add	sp, fp, #0
   1570c:	e49db004 	pop	{fp}		; (ldr fp, [sp], #4)
   15710:	e12fff1e 	bx	lr

00015714 <per_core_timer_write_cntv_tval>:
   15714:	e52db004 	push	{fp}		; (str fp, [sp, #-4]!)
   15718:	e28db000 	add	fp, sp, #0
   1571c:	e24dd00c 	sub	sp, sp, #12
   15720:	e50b0008 	str	r0, [fp, #-8]
   15724:	e51b3008 	ldr	r3, [fp, #-8]
   15728:	ee0e3f13 	mcr	15, 0, r3, cr14, cr3, {0}
   1572c:	e320f000 	nop	{0}
   15730:	e28bd000 	add	sp, fp, #0
   15734:	e49db004 	pop	{fp}		; (ldr fp, [sp], #4)
   15738:	e12fff1e 	bx	lr

0001573c <per_core_timer_enable>:
   1573c:	e92d4800 	push	{fp, lr}
   15740:	e28db004 	add	fp, sp, #4
   15744:	e24dd008 	sub	sp, sp, #8
   15748:	e50b0008 	str	r0, [fp, #-8]
   1574c:	ebffff9d 	bl	155c8 <per_core_timer_routing_core0cntv_to_core0irq>
   15750:	ebffffaf 	bl	15614 <enable_cntv>
   15754:	e320f000 	nop	{0}
   15758:	e24bd004 	sub	sp, fp, #4
   1575c:	e8bd8800 	pop	{fp, pc}

00015760 <memcpy>:
   15760:	4684      	mov	ip, r0
   15762:	ea41 0300 	orr.w	r3, r1, r0
   15766:	f013 0303 	ands.w	r3, r3, #3
   1576a:	d149      	bne.n	15800 <memcpy+0xa0>
   1576c:	3a40      	subs	r2, #64	; 0x40
   1576e:	d323      	bcc.n	157b8 <memcpy+0x58>
   15770:	680b      	ldr	r3, [r1, #0]
   15772:	6003      	str	r3, [r0, #0]
   15774:	684b      	ldr	r3, [r1, #4]
   15776:	6043      	str	r3, [r0, #4]
   15778:	688b      	ldr	r3, [r1, #8]
   1577a:	6083      	str	r3, [r0, #8]
   1577c:	68cb      	ldr	r3, [r1, #12]
   1577e:	60c3      	str	r3, [r0, #12]
   15780:	690b      	ldr	r3, [r1, #16]
   15782:	6103      	str	r3, [r0, #16]
   15784:	694b      	ldr	r3, [r1, #20]
   15786:	6143      	str	r3, [r0, #20]
   15788:	698b      	ldr	r3, [r1, #24]
   1578a:	6183      	str	r3, [r0, #24]
   1578c:	69cb      	ldr	r3, [r1, #28]
   1578e:	61c3      	str	r3, [r0, #28]
   15790:	6a0b      	ldr	r3, [r1, #32]
   15792:	6203      	str	r3, [r0, #32]
   15794:	6a4b      	ldr	r3, [r1, #36]	; 0x24
   15796:	6243      	str	r3, [r0, #36]	; 0x24
   15798:	6a8b      	ldr	r3, [r1, #40]	; 0x28
   1579a:	6283      	str	r3, [r0, #40]	; 0x28
   1579c:	6acb      	ldr	r3, [r1, #44]	; 0x2c
   1579e:	62c3      	str	r3, [r0, #44]	; 0x2c
   157a0:	6b0b      	ldr	r3, [r1, #48]	; 0x30
   157a2:	6303      	str	r3, [r0, #48]	; 0x30
   157a4:	6b4b      	ldr	r3, [r1, #52]	; 0x34
   157a6:	6343      	str	r3, [r0, #52]	; 0x34
   157a8:	6b8b      	ldr	r3, [r1, #56]	; 0x38
   157aa:	6383      	str	r3, [r0, #56]	; 0x38
   157ac:	6bcb      	ldr	r3, [r1, #60]	; 0x3c
   157ae:	63c3      	str	r3, [r0, #60]	; 0x3c
   157b0:	3040      	adds	r0, #64	; 0x40
   157b2:	3140      	adds	r1, #64	; 0x40
   157b4:	3a40      	subs	r2, #64	; 0x40
   157b6:	d2db      	bcs.n	15770 <memcpy+0x10>
   157b8:	3230      	adds	r2, #48	; 0x30
   157ba:	d30b      	bcc.n	157d4 <memcpy+0x74>
   157bc:	680b      	ldr	r3, [r1, #0]
   157be:	6003      	str	r3, [r0, #0]
   157c0:	684b      	ldr	r3, [r1, #4]
   157c2:	6043      	str	r3, [r0, #4]
   157c4:	688b      	ldr	r3, [r1, #8]
   157c6:	6083      	str	r3, [r0, #8]
   157c8:	68cb      	ldr	r3, [r1, #12]
   157ca:	60c3      	str	r3, [r0, #12]
   157cc:	3010      	adds	r0, #16
   157ce:	3110      	adds	r1, #16
   157d0:	3a10      	subs	r2, #16
   157d2:	d2f3      	bcs.n	157bc <memcpy+0x5c>
   157d4:	320c      	adds	r2, #12
   157d6:	d305      	bcc.n	157e4 <memcpy+0x84>
   157d8:	f851 3b04 	ldr.w	r3, [r1], #4
   157dc:	f840 3b04 	str.w	r3, [r0], #4
   157e0:	3a04      	subs	r2, #4
   157e2:	d2f9      	bcs.n	157d8 <memcpy+0x78>
   157e4:	3204      	adds	r2, #4
   157e6:	d008      	beq.n	157fa <memcpy+0x9a>
   157e8:	07d2      	lsls	r2, r2, #31
   157ea:	bf1c      	itt	ne
   157ec:	f811 3b01 	ldrbne.w	r3, [r1], #1
   157f0:	f800 3b01 	strbne.w	r3, [r0], #1
   157f4:	d301      	bcc.n	157fa <memcpy+0x9a>
   157f6:	880b      	ldrh	r3, [r1, #0]
   157f8:	8003      	strh	r3, [r0, #0]
   157fa:	4660      	mov	r0, ip
   157fc:	4770      	bx	lr
   157fe:	bf00      	nop
   15800:	2a08      	cmp	r2, #8
   15802:	d313      	bcc.n	1582c <memcpy+0xcc>
   15804:	078b      	lsls	r3, r1, #30
   15806:	d0b1      	beq.n	1576c <memcpy+0xc>
   15808:	f010 0303 	ands.w	r3, r0, #3
   1580c:	d0ae      	beq.n	1576c <memcpy+0xc>
   1580e:	f1c3 0304 	rsb	r3, r3, #4
   15812:	1ad2      	subs	r2, r2, r3
   15814:	07db      	lsls	r3, r3, #31
   15816:	bf1c      	itt	ne
   15818:	f811 3b01 	ldrbne.w	r3, [r1], #1
   1581c:	f800 3b01 	strbne.w	r3, [r0], #1
   15820:	d3a4      	bcc.n	1576c <memcpy+0xc>
   15822:	f831 3b02 	ldrh.w	r3, [r1], #2
   15826:	f820 3b02 	strh.w	r3, [r0], #2
   1582a:	e79f      	b.n	1576c <memcpy+0xc>
   1582c:	3a04      	subs	r2, #4
   1582e:	d3d9      	bcc.n	157e4 <memcpy+0x84>
   15830:	3a01      	subs	r2, #1
   15832:	f811 3b01 	ldrb.w	r3, [r1], #1
   15836:	f800 3b01 	strb.w	r3, [r0], #1
   1583a:	d2f9      	bcs.n	15830 <memcpy+0xd0>
   1583c:	780b      	ldrb	r3, [r1, #0]
   1583e:	7003      	strb	r3, [r0, #0]
   15840:	784b      	ldrb	r3, [r1, #1]
   15842:	7043      	strb	r3, [r0, #1]
   15844:	788b      	ldrb	r3, [r1, #2]
   15846:	7083      	strb	r3, [r0, #2]
   15848:	4660      	mov	r0, ip
   1584a:	4770      	bx	lr

0001584c <strcmp>:
   1584c:	ea80 0c01 	eor.w	ip, r0, r1
   15850:	f01c 0f03 	tst.w	ip, #3
   15854:	d137      	bne.n	158c6 <strcmp+0x7a>
   15856:	f010 0c03 	ands.w	ip, r0, #3
   1585a:	f020 0003 	bic.w	r0, r0, #3
   1585e:	f021 0103 	bic.w	r1, r1, #3
   15862:	f850 2b04 	ldr.w	r2, [r0], #4
   15866:	bf08      	it	eq
   15868:	f851 3b04 	ldreq.w	r3, [r1], #4
   1586c:	d00e      	beq.n	1588c <strcmp+0x40>
   1586e:	f08c 0c03 	eor.w	ip, ip, #3
   15872:	f06f 437f 	mvn.w	r3, #4278190080	; 0xff000000
   15876:	ea4f 0ccc 	mov.w	ip, ip, lsl #3
   1587a:	fa23 fc0c 	lsr.w	ip, r3, ip
   1587e:	f851 3b04 	ldr.w	r3, [r1], #4
   15882:	ea42 020c 	orr.w	r2, r2, ip
   15886:	ea43 030c 	orr.w	r3, r3, ip
   1588a:	bf00      	nop
   1588c:	f1a2 3c01 	sub.w	ip, r2, #16843009	; 0x1010101
   15890:	429a      	cmp	r2, r3
   15892:	bf01      	itttt	eq
   15894:	ea2c 0c02 	biceq.w	ip, ip, r2
   15898:	f01c 3f80 	tsteq.w	ip, #2155905152	; 0x80808080
   1589c:	f850 2b04 	ldreq.w	r2, [r0], #4
   158a0:	f851 3b04 	ldreq.w	r3, [r1], #4
   158a4:	d0f2      	beq.n	1588c <strcmp+0x40>
   158a6:	ea4f 6002 	mov.w	r0, r2, lsl #24
   158aa:	ea4f 2212 	mov.w	r2, r2, lsr #8
   158ae:	2801      	cmp	r0, #1
   158b0:	bf28      	it	cs
   158b2:	ebb0 6f03 	cmpcs.w	r0, r3, lsl #24
   158b6:	bf08      	it	eq
   158b8:	0a1b      	lsreq	r3, r3, #8
   158ba:	d0f4      	beq.n	158a6 <strcmp+0x5a>
   158bc:	f003 03ff 	and.w	r3, r3, #255	; 0xff
   158c0:	0e00      	lsrs	r0, r0, #24
   158c2:	1ac0      	subs	r0, r0, r3
   158c4:	4770      	bx	lr
   158c6:	f010 0f03 	tst.w	r0, #3
   158ca:	d00a      	beq.n	158e2 <strcmp+0x96>
   158cc:	f810 2b01 	ldrb.w	r2, [r0], #1
   158d0:	f811 3b01 	ldrb.w	r3, [r1], #1
   158d4:	2a01      	cmp	r2, #1
   158d6:	bf28      	it	cs
   158d8:	429a      	cmpcs	r2, r3
   158da:	d0f4      	beq.n	158c6 <strcmp+0x7a>
   158dc:	eba2 0003 	sub.w	r0, r2, r3
   158e0:	4770      	bx	lr
   158e2:	f84d 5d04 	str.w	r5, [sp, #-4]!
   158e6:	f850 2b04 	ldr.w	r2, [r0], #4
   158ea:	f001 0503 	and.w	r5, r1, #3
   158ee:	f021 0103 	bic.w	r1, r1, #3
   158f2:	f851 3b04 	ldr.w	r3, [r1], #4
   158f6:	2d02      	cmp	r5, #2
   158f8:	d026      	beq.n	15948 <strcmp+0xfc>
   158fa:	d84d      	bhi.n	15998 <strcmp+0x14c>
   158fc:	f022 457f 	bic.w	r5, r2, #4278190080	; 0xff000000
   15900:	ebb5 2f13 	cmp.w	r5, r3, lsr #8
   15904:	f1a2 3c01 	sub.w	ip, r2, #16843009	; 0x1010101
   15908:	ea2c 0c02 	bic.w	ip, ip, r2
   1590c:	d10d      	bne.n	1592a <strcmp+0xde>
   1590e:	f01c 3c80 	ands.w	ip, ip, #2155905152	; 0x80808080
   15912:	bf08      	it	eq
   15914:	f851 3b04 	ldreq.w	r3, [r1], #4
   15918:	d10a      	bne.n	15930 <strcmp+0xe4>
   1591a:	ea85 0502 	eor.w	r5, r5, r2
   1591e:	ebb5 6f03 	cmp.w	r5, r3, lsl #24
   15922:	d10c      	bne.n	1593e <strcmp+0xf2>
   15924:	f850 2b04 	ldr.w	r2, [r0], #4
   15928:	e7e8      	b.n	158fc <strcmp+0xb0>
   1592a:	ea4f 2313 	mov.w	r3, r3, lsr #8
   1592e:	e05b      	b.n	159e8 <strcmp+0x19c>
   15930:	f03c 4c7f 	bics.w	ip, ip, #4278190080	; 0xff000000
   15934:	d154      	bne.n	159e0 <strcmp+0x194>
   15936:	780b      	ldrb	r3, [r1, #0]
   15938:	ea4f 6512 	mov.w	r5, r2, lsr #24
   1593c:	e054      	b.n	159e8 <strcmp+0x19c>
   1593e:	ea4f 6512 	mov.w	r5, r2, lsr #24
   15942:	f003 03ff 	and.w	r3, r3, #255	; 0xff
   15946:	e04f      	b.n	159e8 <strcmp+0x19c>
   15948:	ea4f 4502 	mov.w	r5, r2, lsl #16
   1594c:	f1a2 3c01 	sub.w	ip, r2, #16843009	; 0x1010101
   15950:	ea4f 4515 	mov.w	r5, r5, lsr #16
   15954:	ea2c 0c02 	bic.w	ip, ip, r2
   15958:	ebb5 4f13 	cmp.w	r5, r3, lsr #16
   1595c:	d118      	bne.n	15990 <strcmp+0x144>
   1595e:	f01c 3c80 	ands.w	ip, ip, #2155905152	; 0x80808080
   15962:	bf08      	it	eq
   15964:	f851 3b04 	ldreq.w	r3, [r1], #4
   15968:	d107      	bne.n	1597a <strcmp+0x12e>
   1596a:	ea85 0502 	eor.w	r5, r5, r2
   1596e:	ebb5 4f03 	cmp.w	r5, r3, lsl #16
   15972:	d109      	bne.n	15988 <strcmp+0x13c>
   15974:	f850 2b04 	ldr.w	r2, [r0], #4
   15978:	e7e6      	b.n	15948 <strcmp+0xfc>
   1597a:	ea5f 4c0c 	movs.w	ip, ip, lsl #16
   1597e:	d12f      	bne.n	159e0 <strcmp+0x194>
   15980:	880b      	ldrh	r3, [r1, #0]
   15982:	ea4f 4512 	mov.w	r5, r2, lsr #16
   15986:	e02f      	b.n	159e8 <strcmp+0x19c>
   15988:	ea4f 4303 	mov.w	r3, r3, lsl #16
   1598c:	ea4f 4512 	mov.w	r5, r2, lsr #16
   15990:	ea4f 4313 	mov.w	r3, r3, lsr #16
   15994:	e028      	b.n	159e8 <strcmp+0x19c>
   15996:	bf00      	nop
   15998:	f002 05ff 	and.w	r5, r2, #255	; 0xff
   1599c:	ebb5 6f13 	cmp.w	r5, r3, lsr #24
   159a0:	f1a2 3c01 	sub.w	ip, r2, #16843009	; 0x1010101
   159a4:	ea2c 0c02 	bic.w	ip, ip, r2
   159a8:	d10d      	bne.n	159c6 <strcmp+0x17a>
   159aa:	f01c 3c80 	ands.w	ip, ip, #2155905152	; 0x80808080
   159ae:	bf08      	it	eq
   159b0:	f851 3b04 	ldreq.w	r3, [r1], #4
   159b4:	d10a      	bne.n	159cc <strcmp+0x180>
   159b6:	ea85 0502 	eor.w	r5, r5, r2
   159ba:	ebb5 2f03 	cmp.w	r5, r3, lsl #8
   159be:	d10a      	bne.n	159d6 <strcmp+0x18a>
   159c0:	f850 2b04 	ldr.w	r2, [r0], #4
   159c4:	e7e8      	b.n	15998 <strcmp+0x14c>
   159c6:	ea4f 6313 	mov.w	r3, r3, lsr #24
   159ca:	e00d      	b.n	159e8 <strcmp+0x19c>
   159cc:	f012 0fff 	tst.w	r2, #255	; 0xff
   159d0:	d006      	beq.n	159e0 <strcmp+0x194>
   159d2:	f851 3b04 	ldr.w	r3, [r1], #4
   159d6:	ea4f 2512 	mov.w	r5, r2, lsr #8
   159da:	f023 437f 	bic.w	r3, r3, #4278190080	; 0xff000000
   159de:	e003      	b.n	159e8 <strcmp+0x19c>
   159e0:	f04f 0000 	mov.w	r0, #0
   159e4:	bc20      	pop	{r5}
   159e6:	4770      	bx	lr
   159e8:	f005 02ff 	and.w	r2, r5, #255	; 0xff
   159ec:	f003 00ff 	and.w	r0, r3, #255	; 0xff
   159f0:	2801      	cmp	r0, #1
   159f2:	bf28      	it	cs
   159f4:	4290      	cmpcs	r0, r2
   159f6:	bf04      	itt	eq
   159f8:	0a2d      	lsreq	r5, r5, #8
   159fa:	0a1b      	lsreq	r3, r3, #8
   159fc:	d0f4      	beq.n	159e8 <strcmp+0x19c>
   159fe:	eba2 0000 	sub.w	r0, r2, r0
   15a02:	bc20      	pop	{r5}
   15a04:	4770      	bx	lr
   15a06:	bf00      	nop

Disassembly of section .init:

00015a08 <_init>:
   15a08:	b5f8      	push	{r3, r4, r5, r6, r7, lr}
   15a0a:	bf00      	nop
   15a0c:	bcf8      	pop	{r3, r4, r5, r6, r7}
   15a0e:	bc08      	pop	{r3}
   15a10:	469e      	mov	lr, r3
   15a12:	4770      	bx	lr

Disassembly of section .fini:

00015a14 <_fini>:
   15a14:	b5f8      	push	{r3, r4, r5, r6, r7, lr}
   15a16:	bf00      	nop
   15a18:	bcf8      	pop	{r3, r4, r5, r6, r7}
   15a1a:	bc08      	pop	{r3}
   15a1c:	469e      	mov	lr, r3
   15a1e:	4770      	bx	lr

Disassembly of section .text.exit:

00015a20 <exit>:
   15a20:	b508      	push	{r3, lr}
   15a22:	2100      	movs	r1, #0
   15a24:	4604      	mov	r4, r0
   15a26:	f000 f977 	bl	15d18 <__call_exitprocs>
   15a2a:	f647 138c 	movw	r3, #31116	; 0x798c
   15a2e:	f2c0 230c 	movt	r3, #524	; 0x20c
   15a32:	6818      	ldr	r0, [r3, #0]
   15a34:	6bc3      	ldr	r3, [r0, #60]	; 0x3c
   15a36:	b103      	cbz	r3, 15a3a <exit+0x1a>
   15a38:	4798      	blx	r3
   15a3a:	4620      	mov	r0, r4
   15a3c:	f000 faac 	bl	15f98 <_exit>

Disassembly of section .text.__libc_init_array:

00015a40 <__libc_init_array>:
   15a40:	b570      	push	{r4, r5, r6, lr}
   15a42:	f240 0600 	movw	r6, #0
   15a46:	f240 0500 	movw	r5, #0
   15a4a:	f2c0 0600 	movt	r6, #0
   15a4e:	f2c0 0500 	movt	r5, #0
   15a52:	1b76      	subs	r6, r6, r5
   15a54:	10b6      	asrs	r6, r6, #2
   15a56:	d006      	beq.n	15a66 <__libc_init_array+0x26>
   15a58:	2400      	movs	r4, #0
   15a5a:	3401      	adds	r4, #1
   15a5c:	f855 3b04 	ldr.w	r3, [r5], #4
   15a60:	4798      	blx	r3
   15a62:	42a6      	cmp	r6, r4
   15a64:	d1f9      	bne.n	15a5a <__libc_init_array+0x1a>
   15a66:	f240 0600 	movw	r6, #0
   15a6a:	f240 0500 	movw	r5, #0
   15a6e:	f2c0 0600 	movt	r6, #0
   15a72:	f2c0 0500 	movt	r5, #0
   15a76:	1b76      	subs	r6, r6, r5
   15a78:	f7ff ffc6 	bl	15a08 <__text_end>
   15a7c:	10b6      	asrs	r6, r6, #2
   15a7e:	d006      	beq.n	15a8e <__libc_init_array+0x4e>
   15a80:	2400      	movs	r4, #0
   15a82:	3401      	adds	r4, #1
   15a84:	f855 3b04 	ldr.w	r3, [r5], #4
   15a88:	4798      	blx	r3
   15a8a:	42a6      	cmp	r6, r4
   15a8c:	d1f9      	bne.n	15a82 <__libc_init_array+0x42>
   15a8e:	bd70      	pop	{r4, r5, r6, pc}

Disassembly of section .text.memset:

00015a90 <memset>:
   15a90:	b4f0      	push	{r4, r5, r6, r7}
   15a92:	0786      	lsls	r6, r0, #30
   15a94:	d046      	beq.n	15b24 <memset+0x94>
   15a96:	1e54      	subs	r4, r2, #1
   15a98:	2a00      	cmp	r2, #0
   15a9a:	d03c      	beq.n	15b16 <memset+0x86>
   15a9c:	b2ca      	uxtb	r2, r1
   15a9e:	4603      	mov	r3, r0
   15aa0:	e002      	b.n	15aa8 <memset+0x18>
   15aa2:	f114 34ff 	adds.w	r4, r4, #4294967295
   15aa6:	d336      	bcc.n	15b16 <memset+0x86>
   15aa8:	f803 2b01 	strb.w	r2, [r3], #1
   15aac:	079d      	lsls	r5, r3, #30
   15aae:	d1f8      	bne.n	15aa2 <memset+0x12>
   15ab0:	2c03      	cmp	r4, #3
   15ab2:	d929      	bls.n	15b08 <memset+0x78>
   15ab4:	b2cd      	uxtb	r5, r1
   15ab6:	2c0f      	cmp	r4, #15
   15ab8:	ea45 2505 	orr.w	r5, r5, r5, lsl #8
   15abc:	ea45 4505 	orr.w	r5, r5, r5, lsl #16
   15ac0:	d933      	bls.n	15b2a <memset+0x9a>
   15ac2:	f1a4 0610 	sub.w	r6, r4, #16
   15ac6:	f103 0720 	add.w	r7, r3, #32
   15aca:	f103 0210 	add.w	r2, r3, #16
   15ace:	0936      	lsrs	r6, r6, #4
   15ad0:	eb07 1706 	add.w	r7, r7, r6, lsl #4
   15ad4:	e942 5504 	strd	r5, r5, [r2, #-16]
   15ad8:	e942 5502 	strd	r5, r5, [r2, #-8]
   15adc:	3210      	adds	r2, #16
   15ade:	42ba      	cmp	r2, r7
   15ae0:	d1f8      	bne.n	15ad4 <memset+0x44>
   15ae2:	1c72      	adds	r2, r6, #1
   15ae4:	f014 0f0c 	tst.w	r4, #12
   15ae8:	f004 060f 	and.w	r6, r4, #15
   15aec:	eb03 1202 	add.w	r2, r3, r2, lsl #4
   15af0:	d013      	beq.n	15b1a <memset+0x8a>
   15af2:	1f33      	subs	r3, r6, #4
   15af4:	f023 0303 	bic.w	r3, r3, #3
   15af8:	3304      	adds	r3, #4
   15afa:	4413      	add	r3, r2
   15afc:	f842 5b04 	str.w	r5, [r2], #4
   15b00:	4293      	cmp	r3, r2
   15b02:	d1fb      	bne.n	15afc <memset+0x6c>
   15b04:	f006 0403 	and.w	r4, r6, #3
   15b08:	b12c      	cbz	r4, 15b16 <memset+0x86>
   15b0a:	b2c9      	uxtb	r1, r1
   15b0c:	441c      	add	r4, r3
   15b0e:	f803 1b01 	strb.w	r1, [r3], #1
   15b12:	429c      	cmp	r4, r3
   15b14:	d1fb      	bne.n	15b0e <memset+0x7e>
   15b16:	bcf0      	pop	{r4, r5, r6, r7}
   15b18:	4770      	bx	lr
   15b1a:	4634      	mov	r4, r6
   15b1c:	4613      	mov	r3, r2
   15b1e:	2c00      	cmp	r4, #0
   15b20:	d1f3      	bne.n	15b0a <memset+0x7a>
   15b22:	e7f8      	b.n	15b16 <memset+0x86>
   15b24:	4614      	mov	r4, r2
   15b26:	4603      	mov	r3, r0
   15b28:	e7c2      	b.n	15ab0 <memset+0x20>
   15b2a:	461a      	mov	r2, r3
   15b2c:	4626      	mov	r6, r4
   15b2e:	e7e0      	b.n	15af2 <memset+0x62>

Disassembly of section .text.strchr:

00015b30 <strchr>:
   15b30:	b2c9      	uxtb	r1, r1
   15b32:	f000 0303 	and.w	r3, r0, #3
   15b36:	2900      	cmp	r1, #0
   15b38:	d042      	beq.n	15bc0 <strchr+0x90>
   15b3a:	b17b      	cbz	r3, 15b5c <strchr+0x2c>
   15b3c:	7803      	ldrb	r3, [r0, #0]
   15b3e:	2b00      	cmp	r3, #0
   15b40:	d066      	beq.n	15c10 <strchr+0xe0>
   15b42:	4299      	cmp	r1, r3
   15b44:	d061      	beq.n	15c0a <strchr+0xda>
   15b46:	1c43      	adds	r3, r0, #1
   15b48:	e005      	b.n	15b56 <strchr+0x26>
   15b4a:	f813 2b01 	ldrb.w	r2, [r3], #1
   15b4e:	2a00      	cmp	r2, #0
   15b50:	d05c      	beq.n	15c0c <strchr+0xdc>
   15b52:	428a      	cmp	r2, r1
   15b54:	d059      	beq.n	15c0a <strchr+0xda>
   15b56:	079a      	lsls	r2, r3, #30
   15b58:	4618      	mov	r0, r3
   15b5a:	d1f6      	bne.n	15b4a <strchr+0x1a>
   15b5c:	b470      	push	{r4, r5, r6}
   15b5e:	ea41 2601 	orr.w	r6, r1, r1, lsl #8
   15b62:	6804      	ldr	r4, [r0, #0]
   15b64:	ea46 4606 	orr.w	r6, r6, r6, lsl #16
   15b68:	ea86 0504 	eor.w	r5, r6, r4
   15b6c:	f1a4 3301 	sub.w	r3, r4, #16843009	; 0x1010101
   15b70:	f1a5 3201 	sub.w	r2, r5, #16843009	; 0x1010101
   15b74:	ea23 0304 	bic.w	r3, r3, r4
   15b78:	ea22 0205 	bic.w	r2, r2, r5
   15b7c:	4313      	orrs	r3, r2
   15b7e:	f013 3f80 	tst.w	r3, #2155905152	; 0x80808080
   15b82:	d10f      	bne.n	15ba4 <strchr+0x74>
   15b84:	f850 4f04 	ldr.w	r4, [r0, #4]!
   15b88:	ea84 0506 	eor.w	r5, r4, r6
   15b8c:	f1a4 3301 	sub.w	r3, r4, #16843009	; 0x1010101
   15b90:	f1a5 3201 	sub.w	r2, r5, #16843009	; 0x1010101
   15b94:	ea23 0304 	bic.w	r3, r3, r4
   15b98:	ea22 0205 	bic.w	r2, r2, r5
   15b9c:	4313      	orrs	r3, r2
   15b9e:	f013 3f80 	tst.w	r3, #2155905152	; 0x80808080
   15ba2:	d0ef      	beq.n	15b84 <strchr+0x54>
   15ba4:	7803      	ldrb	r3, [r0, #0]
   15ba6:	b143      	cbz	r3, 15bba <strchr+0x8a>
   15ba8:	4299      	cmp	r1, r3
   15baa:	d102      	bne.n	15bb2 <strchr+0x82>
   15bac:	e006      	b.n	15bbc <strchr+0x8c>
   15bae:	428b      	cmp	r3, r1
   15bb0:	d004      	beq.n	15bbc <strchr+0x8c>
   15bb2:	f810 3f01 	ldrb.w	r3, [r0, #1]!
   15bb6:	2b00      	cmp	r3, #0
   15bb8:	d1f9      	bne.n	15bae <strchr+0x7e>
   15bba:	4618      	mov	r0, r3
   15bbc:	bc70      	pop	{r4, r5, r6}
   15bbe:	4770      	bx	lr
   15bc0:	b15b      	cbz	r3, 15bda <strchr+0xaa>
   15bc2:	7803      	ldrb	r3, [r0, #0]
   15bc4:	b30b      	cbz	r3, 15c0a <strchr+0xda>
   15bc6:	1c43      	adds	r3, r0, #1
   15bc8:	e001      	b.n	15bce <strchr+0x9e>
   15bca:	7802      	ldrb	r2, [r0, #0]
   15bcc:	b1ea      	cbz	r2, 15c0a <strchr+0xda>
   15bce:	f013 0f03 	tst.w	r3, #3
   15bd2:	4618      	mov	r0, r3
   15bd4:	f103 0301 	add.w	r3, r3, #1
   15bd8:	d1f7      	bne.n	15bca <strchr+0x9a>
   15bda:	6802      	ldr	r2, [r0, #0]
   15bdc:	f1a2 3301 	sub.w	r3, r2, #16843009	; 0x1010101
   15be0:	ea23 0302 	bic.w	r3, r3, r2
   15be4:	f013 3f80 	tst.w	r3, #2155905152	; 0x80808080
   15be8:	d108      	bne.n	15bfc <strchr+0xcc>
   15bea:	f850 2f04 	ldr.w	r2, [r0, #4]!
   15bee:	f1a2 3301 	sub.w	r3, r2, #16843009	; 0x1010101
   15bf2:	ea23 0302 	bic.w	r3, r3, r2
   15bf6:	f013 3f80 	tst.w	r3, #2155905152	; 0x80808080
   15bfa:	d0f6      	beq.n	15bea <strchr+0xba>
   15bfc:	7803      	ldrb	r3, [r0, #0]
   15bfe:	b123      	cbz	r3, 15c0a <strchr+0xda>
   15c00:	f810 3f01 	ldrb.w	r3, [r0, #1]!
   15c04:	2b00      	cmp	r3, #0
   15c06:	d1fb      	bne.n	15c00 <strchr+0xd0>
   15c08:	4770      	bx	lr
   15c0a:	4770      	bx	lr
   15c0c:	4610      	mov	r0, r2
   15c0e:	4770      	bx	lr
   15c10:	4618      	mov	r0, r3
   15c12:	4770      	bx	lr

Disassembly of section .text.strlen:

00015c14 <strlen>:
   15c14:	f020 0103 	bic.w	r1, r0, #3
   15c18:	f010 0003 	ands.w	r0, r0, #3
   15c1c:	f1c0 0000 	rsb	r0, r0, #0
   15c20:	f851 3b04 	ldr.w	r3, [r1], #4
   15c24:	f100 0c04 	add.w	ip, r0, #4
   15c28:	ea4f 0ccc 	mov.w	ip, ip, lsl #3
   15c2c:	f06f 0200 	mvn.w	r2, #0
   15c30:	bf1c      	itt	ne
   15c32:	fa22 f20c 	lsrne.w	r2, r2, ip
   15c36:	4313      	orrne	r3, r2
   15c38:	f04f 0c01 	mov.w	ip, #1
   15c3c:	ea4c 2c0c 	orr.w	ip, ip, ip, lsl #8
   15c40:	ea4c 4c0c 	orr.w	ip, ip, ip, lsl #16
   15c44:	eba3 020c 	sub.w	r2, r3, ip
   15c48:	ea22 0203 	bic.w	r2, r2, r3
   15c4c:	ea12 12cc 	ands.w	r2, r2, ip, lsl #7
   15c50:	bf04      	itt	eq
   15c52:	f851 3b04 	ldreq.w	r3, [r1], #4
   15c56:	3004      	addeq	r0, #4
   15c58:	d0f4      	beq.n	15c44 <strlen+0x30>
   15c5a:	f1c2 0100 	rsb	r1, r2, #0
   15c5e:	ea02 0201 	and.w	r2, r2, r1
   15c62:	fab2 f282 	clz	r2, r2
   15c66:	f1c2 021f 	rsb	r2, r2, #31
   15c6a:	eb00 00d2 	add.w	r0, r0, r2, lsr #3
   15c6e:	4770      	bx	lr

Disassembly of section .text.strnlen:

00015c70 <strnlen>:
   15c70:	b1c9      	cbz	r1, 15ca6 <strnlen+0x36>
   15c72:	7802      	ldrb	r2, [r0, #0]
   15c74:	b1ca      	cbz	r2, 15caa <strnlen+0x3a>
   15c76:	1c43      	adds	r3, r0, #1
   15c78:	4401      	add	r1, r0
   15c7a:	4299      	cmp	r1, r3
   15c7c:	461a      	mov	r2, r3
   15c7e:	f103 0301 	add.w	r3, r3, #1
   15c82:	d014      	beq.n	15cae <strnlen+0x3e>
   15c84:	b410      	push	{r4}
   15c86:	7814      	ldrb	r4, [r2, #0]
   15c88:	b13c      	cbz	r4, 15c9a <strnlen+0x2a>
   15c8a:	4299      	cmp	r1, r3
   15c8c:	461a      	mov	r2, r3
   15c8e:	f103 0301 	add.w	r3, r3, #1
   15c92:	d005      	beq.n	15ca0 <strnlen+0x30>
   15c94:	7814      	ldrb	r4, [r2, #0]
   15c96:	2c00      	cmp	r4, #0
   15c98:	d1f7      	bne.n	15c8a <strnlen+0x1a>
   15c9a:	1a10      	subs	r0, r2, r0
   15c9c:	bc10      	pop	{r4}
   15c9e:	4770      	bx	lr
   15ca0:	1a08      	subs	r0, r1, r0
   15ca2:	bc10      	pop	{r4}
   15ca4:	4770      	bx	lr
   15ca6:	4608      	mov	r0, r1
   15ca8:	4770      	bx	lr
   15caa:	4610      	mov	r0, r2
   15cac:	4770      	bx	lr
   15cae:	1a08      	subs	r0, r1, r0
   15cb0:	4770      	bx	lr
   15cb2:	bf00      	nop

Disassembly of section .text.wctob:

00015cb4 <wctob>:
   15cb4:	1c43      	adds	r3, r0, #1
   15cb6:	d020      	beq.n	15cfa <wctob+0x46>
   15cb8:	b510      	push	{r4, lr}
   15cba:	b084      	sub	sp, #16
   15cbc:	4604      	mov	r4, r0
   15cbe:	2208      	movs	r2, #8
   15cc0:	2100      	movs	r1, #0
   15cc2:	eb0d 0002 	add.w	r0, sp, r2
   15cc6:	f7ff fee3 	bl	15a90 <memset>
   15cca:	f246 4060 	movw	r0, #25696	; 0x6460
   15cce:	f646 0198 	movw	r1, #26776	; 0x6898
   15cd2:	f2c0 0001 	movt	r0, #1
   15cd6:	f2c0 0101 	movt	r1, #1
   15cda:	4622      	mov	r2, r4
   15cdc:	ab02      	add	r3, sp, #8
   15cde:	6800      	ldr	r0, [r0, #0]
   15ce0:	f8d1 40e0 	ldr.w	r4, [r1, #224]	; 0xe0
   15ce4:	a901      	add	r1, sp, #4
   15ce6:	47a0      	blx	r4
   15ce8:	2801      	cmp	r0, #1
   15cea:	d103      	bne.n	15cf4 <wctob+0x40>
   15cec:	f89d 0004 	ldrb.w	r0, [sp, #4]
   15cf0:	b004      	add	sp, #16
   15cf2:	bd10      	pop	{r4, pc}
   15cf4:	f04f 30ff 	mov.w	r0, #4294967295
   15cf8:	e7fa      	b.n	15cf0 <wctob+0x3c>
   15cfa:	f04f 30ff 	mov.w	r0, #4294967295
   15cfe:	4770      	bx	lr

Disassembly of section .text.startup.register_fini:

00015d00 <register_fini>:
   15d00:	f240 0300 	movw	r3, #0
   15d04:	f2c0 0300 	movt	r3, #0
   15d08:	b12b      	cbz	r3, 15d16 <register_fini+0x16>
   15d0a:	f645 50d9 	movw	r0, #24025	; 0x5dd9
   15d0e:	f2c0 0001 	movt	r0, #1
   15d12:	f000 b85b 	b.w	15dcc <atexit>
   15d16:	4770      	bx	lr

Disassembly of section .text.__call_exitprocs:

00015d18 <__call_exitprocs>:
   15d18:	e92d 4ff0 	stmdb	sp!, {r4, r5, r6, r7, r8, r9, sl, fp, lr}
   15d1c:	f646 0394 	movw	r3, #26772	; 0x6894
   15d20:	b083      	sub	sp, #12
   15d22:	f2c0 0301 	movt	r3, #1
   15d26:	460f      	mov	r7, r1
   15d28:	f04f 0900 	mov.w	r9, #0
   15d2c:	e9cd 0300 	strd	r0, r3, [sp]
   15d30:	6818      	ldr	r0, [r3, #0]
   15d32:	f000 f8af 	bl	15e94 <__retarget_lock_acquire_recursive>
   15d36:	f647 138c 	movw	r3, #31116	; 0x798c
   15d3a:	f2c0 230c 	movt	r3, #524	; 0x20c
   15d3e:	f8d3 a000 	ldr.w	sl, [r3]
   15d42:	f8da 6148 	ldr.w	r6, [sl, #328]	; 0x148
   15d46:	b186      	cbz	r6, 15d6a <__call_exitprocs+0x52>
   15d48:	6874      	ldr	r4, [r6, #4]
   15d4a:	1e65      	subs	r5, r4, #1
   15d4c:	d40d      	bmi.n	15d6a <__call_exitprocs+0x52>
   15d4e:	3401      	adds	r4, #1
   15d50:	f04f 0801 	mov.w	r8, #1
   15d54:	eb06 0484 	add.w	r4, r6, r4, lsl #2
   15d58:	b177      	cbz	r7, 15d78 <__call_exitprocs+0x60>
   15d5a:	f8d4 3100 	ldr.w	r3, [r4, #256]	; 0x100
   15d5e:	42bb      	cmp	r3, r7
   15d60:	d00a      	beq.n	15d78 <__call_exitprocs+0x60>
   15d62:	3d01      	subs	r5, #1
   15d64:	3c04      	subs	r4, #4
   15d66:	1c6b      	adds	r3, r5, #1
   15d68:	d1f6      	bne.n	15d58 <__call_exitprocs+0x40>
   15d6a:	9b01      	ldr	r3, [sp, #4]
   15d6c:	6818      	ldr	r0, [r3, #0]
   15d6e:	b003      	add	sp, #12
   15d70:	e8bd 4ff0 	ldmia.w	sp!, {r4, r5, r6, r7, r8, r9, sl, fp, lr}
   15d74:	f000 b896 	b.w	15ea4 <__retarget_lock_release_recursive>
   15d78:	6873      	ldr	r3, [r6, #4]
   15d7a:	6822      	ldr	r2, [r4, #0]
   15d7c:	3b01      	subs	r3, #1
   15d7e:	42ab      	cmp	r3, r5
   15d80:	bf0c      	ite	eq
   15d82:	6075      	streq	r5, [r6, #4]
   15d84:	f8c4 9000 	strne.w	r9, [r4]
   15d88:	2a00      	cmp	r2, #0
   15d8a:	d0ea      	beq.n	15d62 <__call_exitprocs+0x4a>
   15d8c:	f8d6 1188 	ldr.w	r1, [r6, #392]	; 0x188
   15d90:	fa08 fc05 	lsl.w	ip, r8, r5
   15d94:	f8d6 b004 	ldr.w	fp, [r6, #4]
   15d98:	ea1c 0f01 	tst.w	ip, r1
   15d9c:	d108      	bne.n	15db0 <__call_exitprocs+0x98>
   15d9e:	4790      	blx	r2
   15da0:	6872      	ldr	r2, [r6, #4]
   15da2:	455a      	cmp	r2, fp
   15da4:	d1cd      	bne.n	15d42 <__call_exitprocs+0x2a>
   15da6:	f8da 3148 	ldr.w	r3, [sl, #328]	; 0x148
   15daa:	42b3      	cmp	r3, r6
   15dac:	d0d9      	beq.n	15d62 <__call_exitprocs+0x4a>
   15dae:	e7c8      	b.n	15d42 <__call_exitprocs+0x2a>
   15db0:	f8d6 318c 	ldr.w	r3, [r6, #396]	; 0x18c
   15db4:	f8d4 1080 	ldr.w	r1, [r4, #128]	; 0x80
   15db8:	ea1c 0f03 	tst.w	ip, r3
   15dbc:	d102      	bne.n	15dc4 <__call_exitprocs+0xac>
   15dbe:	9800      	ldr	r0, [sp, #0]
   15dc0:	4790      	blx	r2
   15dc2:	e7ed      	b.n	15da0 <__call_exitprocs+0x88>
   15dc4:	4608      	mov	r0, r1
   15dc6:	4790      	blx	r2
   15dc8:	e7ea      	b.n	15da0 <__call_exitprocs+0x88>
   15dca:	bf00      	nop

Disassembly of section .text.atexit:

00015dcc <atexit>:
   15dcc:	2300      	movs	r3, #0
   15dce:	4601      	mov	r1, r0
   15dd0:	461a      	mov	r2, r3
   15dd2:	4618      	mov	r0, r3
   15dd4:	f000 b89a 	b.w	15f0c <__register_exitproc>

Disassembly of section .text.__libc_fini_array:

00015dd8 <__libc_fini_array>:
   15dd8:	b538      	push	{r3, r4, r5, lr}
   15dda:	f240 0400 	movw	r4, #0
   15dde:	f240 0500 	movw	r5, #0
   15de2:	f2c0 0400 	movt	r4, #0
   15de6:	f2c0 0500 	movt	r5, #0
   15dea:	1b64      	subs	r4, r4, r5
   15dec:	10a4      	asrs	r4, r4, #2
   15dee:	d007      	beq.n	15e00 <__libc_fini_array+0x28>
   15df0:	eb05 0584 	add.w	r5, r5, r4, lsl #2
   15df4:	3c01      	subs	r4, #1
   15df6:	f855 3d04 	ldr.w	r3, [r5, #-4]!
   15dfa:	4798      	blx	r3
   15dfc:	2c00      	cmp	r4, #0
   15dfe:	d1f9      	bne.n	15df4 <__libc_fini_array+0x1c>
   15e00:	e8bd 4038 	ldmia.w	sp!, {r3, r4, r5, lr}
   15e04:	f7ff be06 	b.w	15a14 <_fini>

Disassembly of section .text._setlocale_r:

00015e08 <_setlocale_r>:
   15e08:	b172      	cbz	r2, 15e28 <_setlocale_r+0x20>
   15e0a:	b510      	push	{r4, lr}
   15e0c:	f647 1194 	movw	r1, #31124	; 0x7994
   15e10:	4610      	mov	r0, r2
   15e12:	f2c0 210c 	movt	r1, #524	; 0x20c
   15e16:	4614      	mov	r4, r2
   15e18:	f7ff fd18 	bl	1584c <strcmp>
   15e1c:	b948      	cbnz	r0, 15e32 <_setlocale_r+0x2a>
   15e1e:	f647 1090 	movw	r0, #31120	; 0x7990
   15e22:	f2c0 200c 	movt	r0, #524	; 0x20c
   15e26:	bd10      	pop	{r4, pc}
   15e28:	f647 1090 	movw	r0, #31120	; 0x7990
   15e2c:	f2c0 200c 	movt	r0, #524	; 0x20c
   15e30:	4770      	bx	lr
   15e32:	f647 1190 	movw	r1, #31120	; 0x7990
   15e36:	4620      	mov	r0, r4
   15e38:	f2c0 210c 	movt	r1, #524	; 0x20c
   15e3c:	f7ff fd06 	bl	1584c <strcmp>
   15e40:	2800      	cmp	r0, #0
   15e42:	d0ec      	beq.n	15e1e <_setlocale_r+0x16>
   15e44:	f647 119c 	movw	r1, #31132	; 0x799c
   15e48:	4620      	mov	r0, r4
   15e4a:	f2c0 210c 	movt	r1, #524	; 0x20c
   15e4e:	f7ff fcfd 	bl	1584c <strcmp>
   15e52:	2800      	cmp	r0, #0
   15e54:	d0e3      	beq.n	15e1e <_setlocale_r+0x16>
   15e56:	2000      	movs	r0, #0
   15e58:	bd10      	pop	{r4, pc}
   15e5a:	bf00      	nop

Disassembly of section .text.__locale_mb_cur_max:

00015e5c <__locale_mb_cur_max>:
   15e5c:	f646 0398 	movw	r3, #26776	; 0x6898
   15e60:	f2c0 0301 	movt	r3, #1
   15e64:	f893 0128 	ldrb.w	r0, [r3, #296]	; 0x128
   15e68:	4770      	bx	lr
   15e6a:	bf00      	nop

Disassembly of section .text.setlocale:

00015e6c <setlocale>:
   15e6c:	f246 4360 	movw	r3, #25696	; 0x6460
   15e70:	f2c0 0301 	movt	r3, #1
   15e74:	460a      	mov	r2, r1
   15e76:	4601      	mov	r1, r0
   15e78:	6818      	ldr	r0, [r3, #0]
   15e7a:	f7ff bfc5 	b.w	15e08 <_setlocale_r>
   15e7e:	bf00      	nop

Disassembly of section .text.__retarget_lock_init:

00015e80 <__retarget_lock_init>:
   15e80:	4770      	bx	lr
   15e82:	bf00      	nop

Disassembly of section .text.__retarget_lock_init_recursive:

00015e84 <__retarget_lock_init_recursive>:
   15e84:	4770      	bx	lr
   15e86:	bf00      	nop

Disassembly of section .text.__retarget_lock_close:

00015e88 <__retarget_lock_close>:
   15e88:	4770      	bx	lr
   15e8a:	bf00      	nop

Disassembly of section .text.__retarget_lock_close_recursive:

00015e8c <__retarget_lock_close_recursive>:
   15e8c:	4770      	bx	lr
   15e8e:	bf00      	nop

Disassembly of section .text.__retarget_lock_acquire:

00015e90 <__retarget_lock_acquire>:
   15e90:	4770      	bx	lr
   15e92:	bf00      	nop

Disassembly of section .text.__retarget_lock_acquire_recursive:

00015e94 <__retarget_lock_acquire_recursive>:
   15e94:	4770      	bx	lr
   15e96:	bf00      	nop

Disassembly of section .text.__retarget_lock_try_acquire:

00015e98 <__retarget_lock_try_acquire>:
   15e98:	2001      	movs	r0, #1
   15e9a:	4770      	bx	lr

Disassembly of section .text.__retarget_lock_try_acquire_recursive:

00015e9c <__retarget_lock_try_acquire_recursive>:
   15e9c:	2001      	movs	r0, #1
   15e9e:	4770      	bx	lr

Disassembly of section .text.__retarget_lock_release:

00015ea0 <__retarget_lock_release>:
   15ea0:	4770      	bx	lr
   15ea2:	bf00      	nop

Disassembly of section .text.__retarget_lock_release_recursive:

00015ea4 <__retarget_lock_release_recursive>:
   15ea4:	4770      	bx	lr
   15ea6:	bf00      	nop

Disassembly of section .text._mbtowc_r:

00015ea8 <_mbtowc_r>:
   15ea8:	b410      	push	{r4}
   15eaa:	f646 0498 	movw	r4, #26776	; 0x6898
   15eae:	f2c0 0401 	movt	r4, #1
   15eb2:	f8d4 40e4 	ldr.w	r4, [r4, #228]	; 0xe4
   15eb6:	46a4      	mov	ip, r4
   15eb8:	bc10      	pop	{r4}
   15eba:	4760      	bx	ip

Disassembly of section .text.__ascii_mbtowc:

00015ebc <__ascii_mbtowc>:
   15ebc:	b082      	sub	sp, #8
   15ebe:	b151      	cbz	r1, 15ed6 <__ascii_mbtowc+0x1a>
   15ec0:	4610      	mov	r0, r2
   15ec2:	b132      	cbz	r2, 15ed2 <__ascii_mbtowc+0x16>
   15ec4:	b14b      	cbz	r3, 15eda <__ascii_mbtowc+0x1e>
   15ec6:	7813      	ldrb	r3, [r2, #0]
   15ec8:	600b      	str	r3, [r1, #0]
   15eca:	7812      	ldrb	r2, [r2, #0]
   15ecc:	1c10      	adds	r0, r2, #0
   15ece:	bf18      	it	ne
   15ed0:	2001      	movne	r0, #1
   15ed2:	b002      	add	sp, #8
   15ed4:	4770      	bx	lr
   15ed6:	a901      	add	r1, sp, #4
   15ed8:	e7f2      	b.n	15ec0 <__ascii_mbtowc+0x4>
   15eda:	f06f 0001 	mvn.w	r0, #1
   15ede:	e7f8      	b.n	15ed2 <__ascii_mbtowc+0x16>

Disassembly of section .text._wctomb_r:

00015ee0 <_wctomb_r>:
   15ee0:	b410      	push	{r4}
   15ee2:	f646 0498 	movw	r4, #26776	; 0x6898
   15ee6:	f2c0 0401 	movt	r4, #1
   15eea:	f8d4 40e0 	ldr.w	r4, [r4, #224]	; 0xe0
   15eee:	46a4      	mov	ip, r4
   15ef0:	bc10      	pop	{r4}
   15ef2:	4760      	bx	ip

Disassembly of section .text.__ascii_wctomb:

00015ef4 <__ascii_wctomb>:
   15ef4:	b141      	cbz	r1, 15f08 <__ascii_wctomb+0x14>
   15ef6:	2aff      	cmp	r2, #255	; 0xff
   15ef8:	bf95      	itete	ls
   15efa:	700a      	strbls	r2, [r1, #0]
   15efc:	f04f 31ff 	movhi.w	r1, #4294967295
   15f00:	2101      	movls	r1, #1
   15f02:	238a      	movhi	r3, #138	; 0x8a
   15f04:	bf88      	it	hi
   15f06:	6003      	strhi	r3, [r0, #0]
   15f08:	4608      	mov	r0, r1
   15f0a:	4770      	bx	lr

Disassembly of section .text.__register_exitproc:

00015f0c <__register_exitproc>:
   15f0c:	e92d 41f0 	stmdb	sp!, {r4, r5, r6, r7, r8, lr}
   15f10:	f646 0494 	movw	r4, #26772	; 0x6894
   15f14:	f2c0 0401 	movt	r4, #1
   15f18:	4605      	mov	r5, r0
   15f1a:	4690      	mov	r8, r2
   15f1c:	461f      	mov	r7, r3
   15f1e:	6820      	ldr	r0, [r4, #0]
   15f20:	460e      	mov	r6, r1
   15f22:	f7ff ffb7 	bl	15e94 <__retarget_lock_acquire_recursive>
   15f26:	f647 138c 	movw	r3, #31116	; 0x798c
   15f2a:	f2c0 230c 	movt	r3, #524	; 0x20c
   15f2e:	681a      	ldr	r2, [r3, #0]
   15f30:	f8d2 3148 	ldr.w	r3, [r2, #328]	; 0x148
   15f34:	b333      	cbz	r3, 15f84 <__register_exitproc+0x78>
   15f36:	685a      	ldr	r2, [r3, #4]
   15f38:	6820      	ldr	r0, [r4, #0]
   15f3a:	2a1f      	cmp	r2, #31
   15f3c:	dc27      	bgt.n	15f8e <__register_exitproc+0x82>
   15f3e:	b94d      	cbnz	r5, 15f54 <__register_exitproc+0x48>
   15f40:	1c91      	adds	r1, r2, #2
   15f42:	3201      	adds	r2, #1
   15f44:	605a      	str	r2, [r3, #4]
   15f46:	f843 6021 	str.w	r6, [r3, r1, lsl #2]
   15f4a:	f7ff ffab 	bl	15ea4 <__retarget_lock_release_recursive>
   15f4e:	2000      	movs	r0, #0
   15f50:	e8bd 81f0 	ldmia.w	sp!, {r4, r5, r6, r7, r8, pc}
   15f54:	eb03 0182 	add.w	r1, r3, r2, lsl #2
   15f58:	2401      	movs	r4, #1
   15f5a:	fa04 fe02 	lsl.w	lr, r4, r2
   15f5e:	2d02      	cmp	r5, #2
   15f60:	f8c1 8088 	str.w	r8, [r1, #136]	; 0x88
   15f64:	f8d3 4188 	ldr.w	r4, [r3, #392]	; 0x188
   15f68:	ea44 0c0e 	orr.w	ip, r4, lr
   15f6c:	f8c3 c188 	str.w	ip, [r3, #392]	; 0x188
   15f70:	f8c1 7108 	str.w	r7, [r1, #264]	; 0x108
   15f74:	bf02      	ittt	eq
   15f76:	f8d3 118c 	ldreq.w	r1, [r3, #396]	; 0x18c
   15f7a:	ea4e 0401 	orreq.w	r4, lr, r1
   15f7e:	f8c3 418c 	streq.w	r4, [r3, #396]	; 0x18c
   15f82:	e7dd      	b.n	15f40 <__register_exitproc+0x34>
   15f84:	f502 73a6 	add.w	r3, r2, #332	; 0x14c
   15f88:	f8c2 3148 	str.w	r3, [r2, #328]	; 0x148
   15f8c:	e7d3      	b.n	15f36 <__register_exitproc+0x2a>
   15f8e:	f7ff ff89 	bl	15ea4 <__retarget_lock_release_recursive>
   15f92:	f04f 30ff 	mov.w	r0, #4294967295
   15f96:	e7db      	b.n	15f50 <__register_exitproc+0x44>

Disassembly of section .text._exit:

00015f98 <_exit>:
   15f98:	e7fe      	b.n	15f98 <_exit>
   15f9a:	bf00      	nop

Disassembly of section .data:

00015f9c <__data_start__>:
   15f9c:	00000000 	andeq	r0, r0, r0

00015fa0 <RPi_BusAlias>:
   15fa0:	00000000 	andeq	r0, r0, r0

00015fa4 <RPi_IO_Base_Addr>:
   15fa4:	3f000000 	svccc	0x00000000

00015fa8 <sdCommandTable>:
   15fa8:	495f4f47 	ldmdbmi	pc, {r0, r1, r2, r6, r8, r9, sl, fp, lr}^	; <UNPREDICTABLE>
   15fac:	5f454c44 	svcpl	0x00454c44
   15fb0:	54415453 	strbpl	r5, [r1], #-1107	; 0xfffffbad
   15fb4:	00000045 	andeq	r0, r0, r5, asr #32
	...
   15fc0:	5f4c4c41 	svcpl	0x004c4c41
   15fc4:	444e4553 	strbmi	r4, [lr], #-1363	; 0xfffffaad
   15fc8:	4449435f 	strbmi	r4, [r9], #-863	; 0xfffffca1
   15fcc:	00000000 	andeq	r0, r0, r0
   15fd0:	02010000 	andeq	r0, r1, #0
   15fd4:	00000000 	andeq	r0, r0, r0
   15fd8:	444e4553 	strbmi	r4, [lr], #-1363	; 0xfffffaad
   15fdc:	4c45525f 	sfmmi	f5, 2, [r5], {95}	; 0x5f
   15fe0:	4444415f 	strbmi	r4, [r4], #-351	; 0xfffffea1
   15fe4:	00000052 	andeq	r0, r0, r2, asr r0
   15fe8:	03020000 	movweq	r0, #8192	; 0x2000
   15fec:	00000000 	andeq	r0, r0, r0
   15ff0:	5f544553 	svcpl	0x00544553
   15ff4:	00525344 	subseq	r5, r2, r4, asr #6
	...
   16000:	04000000 	streq	r0, [r0], #-0
   16004:	00000000 	andeq	r0, r0, r0
   16008:	54495753 	strbpl	r5, [r9], #-1875	; 0xfffff8ad
   1600c:	465f4843 	ldrbmi	r4, [pc], -r3, asr #16
   16010:	00434e55 	subeq	r4, r3, r5, asr lr
   16014:	00000000 	andeq	r0, r0, r0
   16018:	06020000 	streq	r0, [r2], -r0
   1601c:	00000000 	andeq	r0, r0, r0
   16020:	44524143 	ldrbmi	r4, [r2], #-323	; 0xfffffebd
   16024:	4c45535f 	mcrrmi	3, 5, r5, r5, cr15
   16028:	00544345 	subseq	r4, r4, r5, asr #6
   1602c:	00000000 	andeq	r0, r0, r0
   16030:	07030000 	streq	r0, [r3, -r0]
   16034:	00000001 	andeq	r0, r0, r1
   16038:	444e4553 	strbmi	r4, [lr], #-1363	; 0xfffffaad
   1603c:	5f46495f 	svcpl	0x0046495f
   16040:	444e4f43 	strbmi	r4, [lr], #-3907	; 0xfffff0bd
   16044:	00000000 	andeq	r0, r0, r0
   16048:	08020000 	stmdaeq	r2, {}	; <UNPREDICTABLE>
   1604c:	00640000 	rsbeq	r0, r4, r0
   16050:	444e4553 	strbmi	r4, [lr], #-1363	; 0xfffffaad
   16054:	4453435f 	ldrbmi	r4, [r3], #-863	; 0xfffffca1
	...
   16060:	09010000 	stmdbeq	r1, {}	; <UNPREDICTABLE>
   16064:	00000001 	andeq	r0, r0, r1
   16068:	444e4553 	strbmi	r4, [lr], #-1363	; 0xfffffaad
   1606c:	4449435f 	strbmi	r4, [r9], #-863	; 0xfffffca1
	...
   16078:	0a010000 	beq	56080 <binary+0x39ea4>
   1607c:	00000001 	andeq	r0, r0, r1
   16080:	544c4f56 	strbpl	r4, [ip], #-3926	; 0xfffff0aa
   16084:	4957535f 	ldmdbmi	r7, {r0, r1, r2, r3, r4, r6, r8, r9, ip, lr}^
   16088:	00484354 	subeq	r4, r8, r4, asr r3
   1608c:	00000000 	andeq	r0, r0, r0
   16090:	0b020000 	bleq	96098 <binary+0x79ebc>
   16094:	00000000 	andeq	r0, r0, r0
   16098:	504f5453 	subpl	r5, pc, r3, asr r4	; <UNPREDICTABLE>
   1609c:	4152545f 	cmpmi	r2, pc, asr r4
   160a0:	0000534e 	andeq	r5, r0, lr, asr #6
   160a4:	00000000 	andeq	r0, r0, r0
   160a8:	0c030000 	stceq	0, cr0, [r3], {-0}
   160ac:	00000000 	andeq	r0, r0, r0
   160b0:	444e4553 	strbmi	r4, [lr], #-1363	; 0xfffffaad
   160b4:	4154535f 	cmpmi	r4, pc, asr r3
   160b8:	00535554 	subseq	r5, r3, r4, asr r5
   160bc:	00000000 	andeq	r0, r0, r0
   160c0:	0d020000 	stceq	0, cr0, [r2, #-0]
   160c4:	00000001 	andeq	r0, r0, r1
   160c8:	495f4f47 	ldmdbmi	pc, {r0, r1, r2, r6, r8, r9, sl, fp, lr}^	; <UNPREDICTABLE>
   160cc:	5443414e 	strbpl	r4, [r3], #-334	; 0xfffffeb2
   160d0:	00455649 	subeq	r5, r5, r9, asr #12
   160d4:	00000000 	andeq	r0, r0, r0
   160d8:	0f000000 	svceq	0x00000000
   160dc:	00000001 	andeq	r0, r0, r1
   160e0:	5f544553 	svcpl	0x00544553
   160e4:	434f4c42 	movtmi	r4, #64578	; 0xfc42
   160e8:	4e454c4b 	cdpmi	12, 4, cr4, cr5, cr11, {2}
   160ec:	00000000 	andeq	r0, r0, r0
   160f0:	10020000 	andne	r0, r2, r0
   160f4:	00000000 	andeq	r0, r0, r0
   160f8:	44414552 	strbmi	r4, [r1], #-1362	; 0xfffffaae
   160fc:	4e49535f 	mcrmi	3, 2, r5, cr9, cr15, {2}
   16100:	00454c47 	subeq	r4, r5, r7, asr #24
   16104:	00000000 	andeq	r0, r0, r0
   16108:	11220010 			; <UNDEFINED> instruction: 0x11220010
   1610c:	00000000 	andeq	r0, r0, r0
   16110:	44414552 	strbmi	r4, [r1], #-1362	; 0xfffffaae
   16114:	4c554d5f 	mrrcmi	13, 5, r4, r5, cr15
   16118:	00004954 	andeq	r4, r0, r4, asr r9
   1611c:	00000000 	andeq	r0, r0, r0
   16120:	12220032 	eorne	r0, r2, #50	; 0x32
   16124:	00000000 	andeq	r0, r0, r0
   16128:	444e4553 	strbmi	r4, [lr], #-1363	; 0xfffffaad
   1612c:	4e55545f 	mrcmi	4, 2, r5, cr5, cr15, {2}
   16130:	00474e49 	subeq	r4, r7, r9, asr #28
   16134:	00000000 	andeq	r0, r0, r0
   16138:	13020000 	movwne	r0, #8192	; 0x2000
   1613c:	00000000 	andeq	r0, r0, r0
   16140:	45455053 	strbmi	r5, [r5, #-83]	; 0xffffffad
   16144:	4c435f44 	mcrrmi	15, 4, r5, r3, cr4
   16148:	00535341 	subseq	r5, r3, r1, asr #6
   1614c:	00000000 	andeq	r0, r0, r0
   16150:	14030000 	strne	r0, [r3], #-0
   16154:	00000000 	andeq	r0, r0, r0
   16158:	5f544553 	svcpl	0x00544553
   1615c:	434f4c42 	movtmi	r4, #64578	; 0xfc42
   16160:	544e434b 	strbpl	r4, [lr], #-843	; 0xfffffcb5
   16164:	00000000 	andeq	r0, r0, r0
   16168:	17020000 	strne	r0, [r2, -r0]
   1616c:	00000000 	andeq	r0, r0, r0
   16170:	54495257 	strbpl	r5, [r9], #-599	; 0xfffffda9
   16174:	49535f45 	ldmdbmi	r3, {r0, r2, r6, r8, r9, sl, fp, ip, lr}^
   16178:	454c474e 	strbmi	r4, [ip, #-1870]	; 0xfffff8b2
   1617c:	00000000 	andeq	r0, r0, r0
   16180:	18220000 	stmdane	r2!, {}	; <UNPREDICTABLE>
   16184:	00000000 	andeq	r0, r0, r0
   16188:	54495257 	strbpl	r5, [r9], #-599	; 0xfffffda9
   1618c:	554d5f45 	strbpl	r5, [sp, #-3909]	; 0xfffff0bb
   16190:	0049544c 	subeq	r5, r9, ip, asr #8
   16194:	00000000 	andeq	r0, r0, r0
   16198:	19220022 	stmdbne	r2!, {r1, r5}
   1619c:	00000000 	andeq	r0, r0, r0
   161a0:	474f5250 	smlsldmi	r5, pc, r0, r2	; <UNPREDICTABLE>
   161a4:	5f4d4152 	svcpl	0x004d4152
   161a8:	00445343 	subeq	r5, r4, r3, asr #6
   161ac:	00000000 	andeq	r0, r0, r0
   161b0:	1b020000 	blne	961b8 <binary+0x79fdc>
   161b4:	00000000 	andeq	r0, r0, r0
   161b8:	5f544553 	svcpl	0x00544553
   161bc:	54495257 	strbpl	r5, [r9], #-599	; 0xfffffda9
   161c0:	52505f45 	subspl	r5, r0, #276	; 0x114
   161c4:	00000000 	andeq	r0, r0, r0
   161c8:	1c030000 	stcne	0, cr0, [r3], {-0}
   161cc:	00000000 	andeq	r0, r0, r0
   161d0:	5f524c43 	svcpl	0x00524c43
   161d4:	54495257 	strbpl	r5, [r9], #-599	; 0xfffffda9
   161d8:	52505f45 	subspl	r5, r0, #276	; 0x114
   161dc:	00000000 	andeq	r0, r0, r0
   161e0:	1d030000 	stcne	0, cr0, [r3, #-0]
   161e4:	00000000 	andeq	r0, r0, r0
   161e8:	5f444e53 	svcpl	0x00444e53
   161ec:	54495257 	strbpl	r5, [r9], #-599	; 0xfffffda9
   161f0:	52505f45 	subspl	r5, r0, #276	; 0x114
   161f4:	00000000 	andeq	r0, r0, r0
   161f8:	1e020000 	cdpne	0, 0, cr0, cr2, cr0, {0}
   161fc:	00000000 	andeq	r0, r0, r0
   16200:	53415245 	movtpl	r5, #4677	; 0x1245
   16204:	52575f45 	subspl	r5, r7, #276	; 0x114
   16208:	0054535f 	subseq	r5, r4, pc, asr r3
   1620c:	00000000 	andeq	r0, r0, r0
   16210:	20020000 	andcs	r0, r2, r0
   16214:	00000000 	andeq	r0, r0, r0
   16218:	53415245 	movtpl	r5, #4677	; 0x1245
   1621c:	52575f45 	subspl	r5, r7, #276	; 0x114
   16220:	444e455f 	strbmi	r4, [lr], #-1375	; 0xfffffaa1
   16224:	00000000 	andeq	r0, r0, r0
   16228:	21020000 	mrscs	r0, (UNDEF: 2)
   1622c:	00000000 	andeq	r0, r0, r0
   16230:	53415245 	movtpl	r5, #4677	; 0x1245
   16234:	00000045 	andeq	r0, r0, r5, asr #32
	...
   16240:	26030000 	strcs	r0, [r3], -r0
   16244:	00000000 	andeq	r0, r0, r0
   16248:	4b434f4c 	blmi	10e9f80 <binary+0x10cdda4>
   1624c:	4c4e555f 	cfstr64mi	mvdx5, [lr], {95}	; 0x5f
   16250:	004b434f 	subeq	r4, fp, pc, asr #6
   16254:	00000000 	andeq	r0, r0, r0
   16258:	2a020000 	bcs	96260 <binary+0x7a084>
   1625c:	00000000 	andeq	r0, r0, r0
   16260:	5f505041 	svcpl	0x00505041
   16264:	00444d43 	subeq	r4, r4, r3, asr #26
	...
   16270:	37000000 	strcc	r0, [r0, -r0]
   16274:	00640000 	rsbeq	r0, r4, r0
   16278:	5f505041 	svcpl	0x00505041
   1627c:	00444d43 	subeq	r4, r4, r3, asr #26
	...
   16288:	37020000 	strcc	r0, [r2, -r0]
   1628c:	00000001 	andeq	r0, r0, r1
   16290:	5f4e4547 	svcpl	0x004e4547
   16294:	00444d43 	subeq	r4, r4, r3, asr #26
	...
   162a0:	38020000 	stmdacc	r2, {}	; <UNPREDICTABLE>
   162a4:	00000000 	andeq	r0, r0, r0
   162a8:	5f544553 	svcpl	0x00544553
   162ac:	5f535542 	svcpl	0x00535542
   162b0:	54444957 	strbpl	r4, [r4], #-2391	; 0xfffff6a9
   162b4:	00000048 	andeq	r0, r0, r8, asr #32
   162b8:	06020000 	streq	r0, [r2], -r0
   162bc:	00000000 	andeq	r0, r0, r0
   162c0:	535f4453 	cmppl	pc, #1392508928	; 0x53000000
   162c4:	55544154 	ldrbpl	r4, [r4, #-340]	; 0xfffffeac
   162c8:	00000053 	andeq	r0, r0, r3, asr r0
   162cc:	00000000 	andeq	r0, r0, r0
   162d0:	0d020000 	stceq	0, cr0, [r2, #-0]
   162d4:	00000001 	andeq	r0, r0, r1
   162d8:	444e4553 	strbmi	r4, [lr], #-1363	; 0xfffffaad
   162dc:	4d554e5f 	ldclmi	14, cr4, [r5, #-380]	; 0xfffffe84
   162e0:	4252575f 	subsmi	r5, r2, #24903680	; 0x17c0000
   162e4:	0000004c 	andeq	r0, r0, ip, asr #32
   162e8:	16020000 	strne	r0, [r2], -r0
   162ec:	00000000 	andeq	r0, r0, r0
   162f0:	444e4553 	strbmi	r4, [lr], #-1363	; 0xfffffaad
   162f4:	4d554e5f 	ldclmi	14, cr4, [r5, #-380]	; 0xfffffe84
   162f8:	5352455f 	cmppl	r2, #398458880	; 0x17c00000
   162fc:	00000000 	andeq	r0, r0, r0
   16300:	17020000 	strne	r0, [r2, -r0]
   16304:	00000000 	andeq	r0, r0, r0
   16308:	535f4453 	cmppl	pc, #1392508928	; 0x53000000
   1630c:	4f444e45 	svcmi	0x00444e45
   16310:	4e4f4350 	mcrmi	3, 2, r4, cr15, cr0, {2}
   16314:	00000044 	andeq	r0, r0, r4, asr #32
   16318:	29020000 	stmdbcs	r2, {}	; <UNPREDICTABLE>
   1631c:	03e80000 	mvneq	r0, #0
   16320:	5f544553 	svcpl	0x00544553
   16324:	5f524c43 	svcpl	0x00524c43
   16328:	00544544 	subseq	r4, r4, r4, asr #10
   1632c:	00000000 	andeq	r0, r0, r0
   16330:	2a020000 	bcs	96338 <binary+0x7a15c>
   16334:	00000000 	andeq	r0, r0, r0
   16338:	444e4553 	strbmi	r4, [lr], #-1363	; 0xfffffaad
   1633c:	5243535f 	subpl	r5, r3, #2080374785	; 0x7c000001
	...
   16348:	33220010 			; <UNDEFINED> instruction: 0x33220010
   1634c:	00000000 	andeq	r0, r0, r0

00016350 <ActivityGPIOPort>:
   16350:	0000002f 	andeq	r0, r0, pc, lsr #32

00016354 <curr_x>:
   16354:	00000004 	andeq	r0, r0, r4

00016358 <curr_y>:
   16358:	00000012 	andeq	r0, r0, r2, lsl r0
   1635c:	020c77e8 	andeq	r7, ip, #232, 14	; 0x3a00000
   16360:	020c77f0 	andeq	r7, ip, #240, 14	; 0x3c00000
   16364:	020c77fc 	andeq	r7, ip, #252, 14	; 0x3f00000
   16368:	020c7804 	andeq	r7, ip, #4, 16	; 0x40000
   1636c:	020c780c 	andeq	r7, ip, #12, 16	; 0xc0000
   16370:	020c7810 	andeq	r7, ip, #16, 16	; 0x100000
   16374:	020c7818 	andeq	r7, ip, #24, 16	; 0x180000
   16378:	020c7820 	andeq	r7, ip, #32, 16	; 0x200000
   1637c:	020c7828 	andeq	r7, ip, #40, 16	; 0x280000
   16380:	020c7834 	andeq	r7, ip, #52, 16	; 0x340000
   16384:	020c783c 	andeq	r7, ip, #60, 16	; 0x3c0000
   16388:	020c7848 	andeq	r7, ip, #72, 16	; 0x480000

Disassembly of section .init_array:

0001638c <__frame_dummy_init_array_entry>:
   1638c:	00008121 	andeq	r8, r0, r1, lsr #2

Disassembly of section .fini_array:

00016390 <__do_global_dtors_aux_fini_array_entry>:
   16390:	000080f5 	strdeq	r8, [r0], -r5

Disassembly of section .got:

00016394 <.got>:
   16394:	0000912c 	andeq	r9, r0, ip, lsr #2
   16398:	020c7180 	andeq	r7, ip, #128, 2
   1639c:	020c7178 	andeq	r7, ip, #120, 2
   163a0:	00016354 	andeq	r6, r1, r4, asr r3
   163a4:	020c7048 	andeq	r7, ip, #72	; 0x48
   163a8:	0201c1e8 	andeq	ip, r1, #232, 2	; 0x3a
   163ac:	020c7184 	andeq	r7, ip, #132, 2	; 0x21
   163b0:	00015154 	andeq	r5, r1, r4, asr r1
   163b4:	00015fa4 	andeq	r5, r1, r4, lsr #31
   163b8:	00009098 	muleq	r0, r8, r0
   163bc:	020ca9a8 	andeq	sl, ip, #168, 18	; 0x2a0000
   163c0:	00003000 	andeq	r3, r0, r0
   163c4:	0001535c 	andeq	r5, r1, ip, asr r3
   163c8:	00016358 	andeq	r6, r1, r8, asr r3
   163cc:	020c717c 	andeq	r7, ip, #124, 2
   163d0:	00016a28 	andeq	r6, r1, r8, lsr #20
   163d4:	020c7888 	andeq	r7, ip, #136, 16	; 0x880000
   163d8:	000154d0 	ldrdeq	r5, [r1], -r0

Disassembly of section .got.plt:

000163dc <_GLOBAL_OFFSET_TABLE_>:
	...

Disassembly of section .data.rel.local:

000163e8 <SD_TYPE_NAME>:
   163e8:	020c71c0 	andeq	r7, ip, #192, 2	; 0x30
   163ec:	020c71c8 	andeq	r7, ip, #200, 2	; 0x32
   163f0:	020c71cc 	andeq	r7, ip, #204, 2	; 0x33
   163f4:	020c71d4 	andeq	r7, ip, #212, 2	; 0x35
   163f8:	020c71e0 	andeq	r7, ip, #224, 2	; 0x38

000163fc <cmd_names>:
   163fc:	020c75bc 	andeq	r7, ip, #188, 10	; 0x2f000000
   16400:	020c75c0 	andeq	r7, ip, #192, 10	; 0x30000000
   16404:	020c75c4 	andeq	r7, ip, #196, 10	; 0x31000000
   16408:	020c75cc 	andeq	r7, ip, #204, 10	; 0x33000000
   1640c:	020c75d4 	andeq	r7, ip, #212, 10	; 0x35000000
   16410:	020c75dc 	andeq	r7, ip, #220, 10	; 0x37000000
   16414:	020c75e0 	andeq	r7, ip, #224, 10	; 0x38000000

00016418 <day_to_month>:
   16418:	020c75e8 	andeq	r7, ip, #232, 10	; 0x3a000000
   1641c:	020c75ec 	andeq	r7, ip, #236, 10	; 0x3b000000
   16420:	020c75f0 	andeq	r7, ip, #240, 10	; 0x3c000000
   16424:	020c75f4 	andeq	r7, ip, #244, 10	; 0x3d000000
   16428:	020c75f8 	andeq	r7, ip, #248, 10	; 0x3e000000
   1642c:	020c75fc 	andeq	r7, ip, #252, 10	; 0x3f000000
   16430:	020c7600 	andeq	r7, ip, #0, 12
   16434:	020c7604 	andeq	r7, ip, #4, 12	; 0x400000
   16438:	020c7608 	andeq	r7, ip, #8, 12	; 0x800000
   1643c:	020c760c 	andeq	r7, ip, #12, 12	; 0xc00000
   16440:	020c7610 	andeq	r7, ip, #16, 12	; 0x1000000
   16444:	020c7614 	andeq	r7, ip, #20, 12	; 0x1400000

Disassembly of section .data.rel:

00016448 <cmd_ptrs>:
   16448:	0001470c 	andeq	r4, r1, ip, lsl #14
   1644c:	00014880 	andeq	r4, r1, r0, lsl #17
   16450:	00014950 	andeq	r4, r1, r0, asr r9
   16454:	000149f8 	strdeq	r4, [r1], -r8
   16458:	00014280 	andeq	r4, r1, r0, lsl #5
   1645c:	00014150 	andeq	r4, r1, r0, asr r1

Disassembly of section .data._impure_ptr:

00016460 <_impure_ptr>:
   16460:	00016468 	andeq	r6, r1, r8, ror #8

Disassembly of section .data.impure_data:

00016468 <impure_data>:
   16468:	00000000 	andeq	r0, r0, r0
   1646c:	00016754 	andeq	r6, r1, r4, asr r7
   16470:	000167bc 			; <UNDEFINED> instruction: 0x000167bc
   16474:	00016824 	andeq	r6, r1, r4, lsr #16
	...
   16510:	00000001 	andeq	r0, r0, r1
   16514:	00000000 	andeq	r0, r0, r0
   16518:	abcd330e 	blge	ff363158 <MBOX0+0xc03578d8>
   1651c:	e66d1234 			; <UNDEFINED> instruction: 0xe66d1234
   16520:	0005deec 	andeq	sp, r5, ip, ror #29
   16524:	0000000b 	andeq	r0, r0, fp
	...

Disassembly of section .init_array.00000:

00016890 <.init_array.00000>:
   16890:	00015d01 	andeq	r5, r1, r1, lsl #26

Disassembly of section .data.__atexit_recursive_mutex:

00016894 <__atexit_recursive_mutex>:
   16894:	020c7188 	andeq	r7, ip, #136, 2	; 0x22

Disassembly of section .data.__global_locale:

00016898 <__global_locale>:
   16898:	00000043 	andeq	r0, r0, r3, asr #32
	...
   168b8:	00000043 	andeq	r0, r0, r3, asr #32
	...
   168d8:	00000043 	andeq	r0, r0, r3, asr #32
	...
   168f8:	00000043 	andeq	r0, r0, r3, asr #32
	...
   16918:	00000043 	andeq	r0, r0, r3, asr #32
	...
   16938:	00000043 	andeq	r0, r0, r3, asr #32
	...
   16958:	00000043 	andeq	r0, r0, r3, asr #32
	...
   16978:	00015ef5 	strdeq	r5, [r1], -r5	; <UNPREDICTABLE>
   1697c:	00015ebd 			; <UNDEFINED> instruction: 0x00015ebd
   16980:	00000000 	andeq	r0, r0, r0
   16984:	020c7888 	andeq	r7, ip, #136, 16	; 0x880000
   16988:	020c79a0 	andeq	r7, ip, #160, 18	; 0x280000
   1698c:	020c799c 	andeq	r7, ip, #156, 18	; 0x270000
   16990:	020c799c 	andeq	r7, ip, #156, 18	; 0x270000
   16994:	020c799c 	andeq	r7, ip, #156, 18	; 0x270000
   16998:	020c799c 	andeq	r7, ip, #156, 18	; 0x270000
   1699c:	020c799c 	andeq	r7, ip, #156, 18	; 0x270000
   169a0:	020c799c 	andeq	r7, ip, #156, 18	; 0x270000
   169a4:	020c799c 	andeq	r7, ip, #156, 18	; 0x270000
   169a8:	020c799c 	andeq	r7, ip, #156, 18	; 0x270000
   169ac:	020c799c 	andeq	r7, ip, #156, 18	; 0x270000
   169b0:	ffffffff 			; <UNDEFINED> instruction: 0xffffffff
   169b4:	ffffffff 			; <UNDEFINED> instruction: 0xffffffff
   169b8:	ffffffff 			; <UNDEFINED> instruction: 0xffffffff
   169bc:	0000ffff 	strdeq	pc, [r0], -pc	; <UNPREDICTABLE>
   169c0:	53410001 	movtpl	r0, #4097	; 0x1001
   169c4:	00494943 	subeq	r4, r9, r3, asr #18
	...
   169e0:	53410000 	movtpl	r0, #4096	; 0x1000
   169e4:	00494943 	subeq	r4, r9, r3, asr #18
	...

Disassembly of section .bss:

00016a08 <__bss_start__>:
   16a08:	00000000 	andeq	r0, r0, r0

00016a0c <object.8884>:
	...

00016a28 <LOG_ERROR>:
	...

00016a30 <sdCard>:
	...

00016aa8 <intSearchRecord>:
	...

000176e8 <intFileIORecord>:
	...

00018fc8 <ModelCheckHasRun>:
   18fc8:	00000000 	andeq	r0, r0, r0

00018fcc <font>:
	...

00019030 <char_font_map>:
	...

0001c1cc <newline>:
	...

0001c1cd <sdcard_fat_init>:
   1c1cd:	 	andeq	r0, r0, r0

0001c1d0 <app_memreg>:
	...

0001c1dc <binary>:
	...

0201c1dc <app_stack_sz>:
 201c1dc:	00000000 	andeq	r0, r0, r0

0201c1e0 <cntfrq>:
	...

0201c1e8 <buffer_logo>:
	...

020c7048 <curr_path>:
	...

020c70ac <sd_card_init_info>:
	...

020c7174 <systick_callback>:
 20c7174:	00000000 	andeq	r0, r0, r0

020c7178 <irq_callback>:
 20c7178:	00000000 	andeq	r0, r0, r0

020c717c <svc_callback>:
 20c717c:	00000000 	andeq	r0, r0, r0

020c7180 <is_pending_i>:
 20c7180:	00000000 	andeq	r0, r0, r0

020c7184 <callback_i>:
 20c7184:	00000000 	andeq	r0, r0, r0

020c7188 <__lock___atexit_recursive_mutex>:
 20c7188:	00000000 	andeq	r0, r0, r0

020c718c <__lock___arc4random_mutex>:
 20c718c:	00000000 	andeq	r0, r0, r0

020c7190 <__lock___env_recursive_mutex>:
 20c7190:	00000000 	andeq	r0, r0, r0

020c7194 <__lock___sinit_recursive_mutex>:
 20c7194:	00000000 	andeq	r0, r0, r0

020c7198 <__lock___malloc_recursive_mutex>:
 20c7198:	00000000 	andeq	r0, r0, r0

020c719c <__lock___at_quick_exit_mutex>:
 20c719c:	00000000 	andeq	r0, r0, r0

020c71a0 <__lock___dd_hash_mutex>:
 20c71a0:	00000000 	andeq	r0, r0, r0

020c71a4 <__lock___tz_mutex>:
 20c71a4:	00000000 	andeq	r0, r0, r0

020c71a8 <__lock___sfp_recursive_mutex>:
	...

Disassembly of section .bss._PathLocale:

020c71ac <_PathLocale>:
 20c71ac:	00000000 	andeq	r0, r0, r0

Disassembly of section .rodata:

020c71b0 <__rodata_start>:
 20c71b0:	33323130 	teqcc	r2, #48, 2
 20c71b4:	37363534 			; <UNDEFINED> instruction: 0x37363534
 20c71b8:	42413938 	submi	r3, r1, #56, 18	; 0xe0000
 20c71bc:	46454443 	strbmi	r4, [r5], -r3, asr #8
 20c71c0:	6e6b6e55 	mcrvs	14, 3, r6, cr11, cr5, {2}
 20c71c4:	006e776f 	rsbeq	r7, lr, pc, ror #14
 20c71c8:	00434d4d 	subeq	r4, r3, sp, asr #26
 20c71cc:	65707954 	ldrbvs	r7, [r0, #-2388]!	; 0xfffff6ac
 20c71d0:	00003120 	andeq	r3, r0, r0, lsr #2
 20c71d4:	65707954 	ldrbvs	r7, [r0, #-2388]!	; 0xfffff6ac
 20c71d8:	53203220 			; <UNDEFINED> instruction: 0x53203220
 20c71dc:	00000043 	andeq	r0, r0, r3, asr #32
 20c71e0:	65707954 	ldrbvs	r7, [r0, #-2388]!	; 0xfffff6ac
 20c71e4:	48203220 	stmdami	r0!, {r5, r9, ip, sp}
 20c71e8:	00000043 	andeq	r0, r0, r3, asr #32
 20c71ec:	434d4d45 	movtmi	r4, #56645	; 0xdd45
 20c71f0:	6157203a 	cmpvs	r7, sl, lsr r0
 20c71f4:	66207469 	strtvs	r7, [r0], -r9, ror #8
 20c71f8:	6920726f 	stmdbvs	r0!, {r0, r1, r2, r3, r5, r6, r9, ip, sp, lr}
 20c71fc:	7265746e 	rsbvc	r7, r5, #1845493760	; 0x6e000000
 20c7200:	74707572 	ldrbtvc	r7, [r0], #-1394	; 0xfffffa8e
 20c7204:	38302520 	ldmdacc	r0!, {r5, r8, sl, sp}
 20c7208:	69742078 	ldmdbvs	r4!, {r3, r4, r5, r6, sp}^
 20c720c:	756f656d 	strbvc	r6, [pc, #-1389]!	; 20c6ca7 <buffer_logo+0xaaabf>
 20c7210:	25203a74 	strcs	r3, [r0, #-2676]!	; 0xfffff58c
 20c7214:	20783830 	rsbscs	r3, r8, r0, lsr r8
 20c7218:	78383025 	ldmdavc	r8!, {r0, r2, r5, ip, sp}
 20c721c:	38302520 	ldmdacc	r0!, {r5, r8, sl, sp}
 20c7220:	00000a78 	andeq	r0, r0, r8, ror sl
 20c7224:	434d4d45 	movtmi	r4, #56645	; 0xdd45
 20c7228:	7245203a 	subvc	r2, r5, #58	; 0x3a
 20c722c:	20726f72 	rsbscs	r6, r2, r2, ror pc
 20c7230:	74696177 	strbtvc	r6, [r9], #-375	; 0xfffffe89
 20c7234:	20676e69 	rsbcs	r6, r7, r9, ror #28
 20c7238:	20726f66 	rsbscs	r6, r2, r6, ror #30
 20c723c:	65746e69 	ldrbvs	r6, [r4, #-3689]!	; 0xfffff197
 20c7240:	70757272 	rsbsvc	r7, r5, r2, ror r2
 20c7244:	25203a74 	strcs	r3, [r0, #-2676]!	; 0xfffff58c
 20c7248:	20783830 	rsbscs	r3, r8, r0, lsr r8
 20c724c:	78383025 	ldmdavc	r8!, {r0, r2, r5, ip, sp}
 20c7250:	38302520 	ldmdacc	r0!, {r5, r8, sl, sp}
 20c7254:	00000a78 	andeq	r0, r0, r8, ror sl
 20c7258:	434d4d45 	movtmi	r4, #56645	; 0xdd45
 20c725c:	6157203a 	cmpvs	r7, sl, lsr r0
 20c7260:	66207469 	strtvs	r7, [r0], -r9, ror #8
 20c7264:	6320726f 			; <UNDEFINED> instruction: 0x6320726f
 20c7268:	616d6d6f 	cmnvs	sp, pc, ror #26
 20c726c:	6120646e 			; <UNDEFINED> instruction: 0x6120646e
 20c7270:	74726f62 	ldrbtvc	r6, [r2], #-3938	; 0xfffff09e
 20c7274:	203a6465 	eorscs	r6, sl, r5, ror #8
 20c7278:	78383025 	ldmdavc	r8!, {r0, r2, r5, ip, sp}
 20c727c:	38302520 	ldmdacc	r0!, {r5, r8, sl, sp}
 20c7280:	30252078 	eorcc	r2, r5, r8, ror r0
 20c7284:	000a7838 	andeq	r7, sl, r8, lsr r8
 20c7288:	434d4d45 	movtmi	r4, #56645	; 0xdd45
 20c728c:	6157203a 	cmpvs	r7, sl, lsr r0
 20c7290:	66207469 	strtvs	r7, [r0], -r9, ror #8
 20c7294:	6420726f 	strtvs	r7, [r0], #-623	; 0xfffffd91
 20c7298:	20617461 	rsbcs	r7, r1, r1, ror #8
 20c729c:	726f6261 	rsbvc	r6, pc, #268435462	; 0x10000006
 20c72a0:	3a646574 	bcc	39e0878 <__end+0x1915ed0>
 20c72a4:	38302520 	ldmdacc	r0!, {r5, r8, sl, sp}
 20c72a8:	30252078 	eorcc	r2, r5, r8, ror r0
 20c72ac:	25207838 	strcs	r7, [r0, #-2104]!	; 0xfffff7c8
 20c72b0:	0a783830 	beq	3ed5378 <__end+0x1e0a9d0>
 20c72b4:	00000000 	andeq	r0, r0, r0
 20c72b8:	434d4d45 	movtmi	r4, #56645	; 0xdd45
 20c72bc:	6954203a 	ldmdbvs	r4, {r1, r3, r4, r5, sp}^
 20c72c0:	756f656d 	strbvc	r6, [pc, #-1389]!	; 20c6d5b <buffer_logo+0xaab73>
 20c72c4:	61772074 	cmnvs	r7, r4, ror r0
 20c72c8:	6e697469 	cdpvs	4, 6, cr7, cr9, cr9, {3}
 20c72cc:	6f662067 	svcvs	0x00662067
 20c72d0:	65722072 	ldrbvs	r2, [r2, #-114]!	; 0xffffff8e
 20c72d4:	20796461 	rsbscs	r6, r9, r1, ror #8
 20c72d8:	72206f74 	eorvc	r6, r0, #116, 30	; 0x1d0
 20c72dc:	0a646165 	beq	39df878 <__end+0x1914ed0>
 20c72e0:	00000000 	andeq	r0, r0, r0
 20c72e4:	434d4d45 	movtmi	r4, #56645	; 0xdd45
 20c72e8:	4553203a 	ldrbmi	r2, [r3, #-58]	; 0xffffffc6
 20c72ec:	535f444e 	cmppl	pc, #1308622848	; 0x4e000000
 20c72f0:	45205243 	strmi	r5, [r0, #-579]!	; 0xfffffdbd
 20c72f4:	203a5252 	eorscs	r5, sl, r2, asr r2
 20c72f8:	78383025 	ldmdavc	r8!, {r0, r2, r5, ip, sp}
 20c72fc:	38302520 	ldmdacc	r0!, {r5, r8, sl, sp}
 20c7300:	30252078 	eorcc	r2, r5, r8, ror r0
 20c7304:	000a7838 	andeq	r7, sl, r8, lsr r8
 20c7308:	434d4d45 	movtmi	r4, #56645	; 0xdd45
 20c730c:	6552203a 	ldrbvs	r2, [r2, #-58]	; 0xffffffc6
 20c7310:	6e696461 	cdpvs	4, 6, cr6, cr9, cr1, {3}
 20c7314:	43532067 	cmpmi	r3, #103	; 0x67
 20c7318:	6f202c52 	svcvs	0x00202c52
 20c731c:	20796c6e 	rsbscs	r6, r9, lr, ror #24
 20c7320:	64616572 	strbtvs	r6, [r1], #-1394	; 0xfffffa8e
 20c7324:	20642520 	rsbcs	r2, r4, r0, lsr #10
 20c7328:	64726f77 	ldrbtvs	r6, [r2], #-3959	; 0xfffff089
 20c732c:	00000a73 	andeq	r0, r0, r3, ror sl
 20c7330:	434d4d45 	movtmi	r4, #56645	; 0xdd45
 20c7334:	6553203a 	ldrbvs	r2, [r3, #-58]	; 0xffffffc6
 20c7338:	6c632074 	stclvs	0, cr2, [r3], #-464	; 0xfffffe30
 20c733c:	3a6b636f 	bcc	3ba0100 <__end+0x1ad5758>
 20c7340:	6d697420 	cfstrdvs	mvd7, [r9, #-128]!	; 0xffffff80
 20c7344:	74756f65 	ldrbtvc	r6, [r5], #-3941	; 0xfffff09b
 20c7348:	69617720 	stmdbvs	r1!, {r5, r8, r9, sl, ip, sp, lr}^
 20c734c:	676e6974 			; <UNDEFINED> instruction: 0x676e6974
 20c7350:	726f6620 	rsbvc	r6, pc, #32, 12	; 0x2000000
 20c7354:	686e6920 	stmdavs	lr!, {r5, r8, fp, sp, lr}^
 20c7358:	74696269 	strbtvc	r6, [r9], #-617	; 0xfffffd97
 20c735c:	616c6620 	cmnvs	ip, r0, lsr #12
 20c7360:	202e7367 	eorcs	r7, lr, r7, ror #6
 20c7364:	74617453 	strbtvc	r7, [r1], #-1107	; 0xfffffbad
 20c7368:	25207375 	strcs	r7, [r0, #-885]!	; 0xfffffc8b
 20c736c:	2e783830 	mrccs	8, 3, r3, cr8, cr0, {1}
 20c7370:	0000000a 	andeq	r0, r0, sl
 20c7374:	434d4d45 	movtmi	r4, #56645	; 0xdd45
 20c7378:	5245203a 	subpl	r2, r5, #58	; 0x3a
 20c737c:	3a524f52 	bcc	355b0cc <__end+0x1490724>
 20c7380:	69616620 	stmdbvs	r1!, {r5, r9, sl, sp, lr}^
 20c7384:	2064656c 	rsbcs	r6, r4, ip, ror #10
 20c7388:	67206f74 			; <UNDEFINED> instruction: 0x67206f74
 20c738c:	73207465 			; <UNDEFINED> instruction: 0x73207465
 20c7390:	6c626174 	stfvse	f6, [r2], #-464	; 0xfffffe30
 20c7394:	6c632065 	stclvs	0, cr2, [r3], #-404	; 0xfffffe6c
 20c7398:	2e6b636f 	cdpcs	3, 6, cr6, cr11, cr15, {3}
 20c739c:	0000000a 	andeq	r0, r0, sl
 20c73a0:	434d4d45 	movtmi	r4, #56645	; 0xdd45
 20c73a4:	5245203a 	subpl	r2, r5, #58	; 0x3a
 20c73a8:	3a524f52 	bcc	355b0f8 <__end+0x1490750>
 20c73ac:	69616620 	stmdbvs	r1!, {r5, r9, sl, sp, lr}^
 20c73b0:	2064656c 	rsbcs	r6, r4, ip, ror #10
 20c73b4:	72206f74 	eorvc	r6, r0, #116, 30	; 0x1d0
 20c73b8:	74657365 	strbtvc	r7, [r5], #-869	; 0xfffffc9b
 20c73bc:	00000a2e 	andeq	r0, r0, lr, lsr #20
 20c73c0:	434d4d45 	movtmi	r4, #56645	; 0xdd45
 20c73c4:	4341203a 	movtmi	r2, #4154	; 0x103a
 20c73c8:	3134444d 	teqcc	r4, sp, asr #8
 20c73cc:	74657220 	strbtvc	r7, [r5], #-544	; 0xfffffde0
 20c73d0:	656e7275 	strbvs	r7, [lr, #-629]!	; 0xfffffd8b
 20c73d4:	6f6e2064 	svcvs	0x006e2064
 20c73d8:	69742d6e 	ldmdbvs	r4!, {r1, r2, r3, r5, r6, r8, sl, fp, sp}^
 20c73dc:	756f656d 	strbvc	r6, [pc, #-1389]!	; 20c6e77 <buffer_logo+0xaac8f>
 20c73e0:	72652074 	rsbvc	r2, r5, #116	; 0x74
 20c73e4:	20726f72 	rsbscs	r6, r2, r2, ror pc
 20c73e8:	000a6425 	andeq	r6, sl, r5, lsr #8
 20c73ec:	434d4d45 	movtmi	r4, #56645	; 0xdd45
 20c73f0:	7254203a 	subsvc	r2, r4, #58	; 0x3a
 20c73f4:	66736e61 	ldrbtvs	r6, [r3], -r1, ror #28
 20c73f8:	65207265 	strvs	r7, [r0, #-613]!	; 0xfffffd9b
 20c73fc:	726f7272 	rsbvc	r7, pc, #536870919	; 0x20000007
 20c7400:	6c6e6f20 	stclvs	15, cr6, [lr], #-128	; 0xffffff80
 20c7404:	6f642079 	svcvs	0x00642079
 20c7408:	2520656e 	strcs	r6, [r0, #-1390]!	; 0xfffffa92
 20c740c:	64252f64 	strtvs	r2, [r5], #-3940	; 0xfffff09c
 20c7410:	6f6c6220 	svcvs	0x006c6220
 20c7414:	0a736b63 	beq	3da21a8 <__end+0x1cd7800>
 20c7418:	00000000 	andeq	r0, r0, r0
 20c741c:	434d4d45 	movtmi	r4, #56645	; 0xdd45
 20c7420:	6954203a 	ldmdbvs	r4, {r1, r3, r4, r5, sp}^
 20c7424:	756f656d 	strbvc	r6, [pc, #-1389]!	; 20c6ebf <buffer_logo+0xaacd7>
 20c7428:	61772074 	cmnvs	r7, r4, ror r0
 20c742c:	6e697469 	cdpvs	4, 6, cr7, cr9, cr9, {3}
 20c7430:	6f662067 	svcvs	0x00662067
 20c7434:	61642072 	smcvs	16898	; 0x4202
 20c7438:	64206174 	strtvs	r6, [r0], #-372	; 0xfffffe8c
 20c743c:	0a656e6f 	beq	3a22e00 <__end+0x1958458>
 20c7440:	00000000 	andeq	r0, r0, r0
 20c7444:	434d4d45 	movtmi	r4, #56645	; 0xdd45
 20c7448:	6954203a 	ldmdbvs	r4, {r1, r3, r4, r5, sp}^
 20c744c:	756f656d 	strbvc	r6, [pc, #-1389]!	; 20c6ee7 <buffer_logo+0xaacff>
 20c7450:	61772074 	cmnvs	r7, r4, ror r0
 20c7454:	6e697469 	cdpvs	4, 6, cr7, cr9, cr9, {3}
 20c7458:	6f662067 	svcvs	0x00662067
 20c745c:	72652072 	rsbvc	r2, r5, #114	; 0x72
 20c7460:	3a657361 	bcc	3a241ec <__end+0x1959844>
 20c7464:	38302520 	ldmdacc	r0!, {r5, r8, sl, sp}
 20c7468:	30252078 	eorcc	r2, r5, r8, ror r0
 20c746c:	000a7838 	andeq	r7, sl, r8, lsr r8
 20c7470:	33544146 	cmpcc	r4, #-2147483631	; 0x80000011
 20c7474:	6f562032 	svcvs	0x00562032
 20c7478:	656d756c 	strbvs	r7, [sp, #-1388]!	; 0xfffffa94
 20c747c:	62614c20 	rsbvs	r4, r1, #32, 24	; 0x2000
 20c7480:	203a6c65 	eorscs	r6, sl, r5, ror #24
 20c7484:	202c7325 	eorcs	r7, ip, r5, lsr #6
 20c7488:	203a4449 	eorscs	r4, sl, r9, asr #8
 20c748c:	78383025 	ldmdavc	r8!, {r0, r2, r5, ip, sp}
 20c7490:	0000000a 	andeq	r0, r0, sl
 20c7494:	31544146 	cmpcc	r4, r6, asr #2
 20c7498:	36312f32 	shasxcc	r2, r1, r2
 20c749c:	6c6f5620 	stclvs	6, cr5, [pc], #-128	; 20c7424 <__rodata_start+0x274>
 20c74a0:	20656d75 	rsbcs	r6, r5, r5, ror sp
 20c74a4:	6562614c 	strbvs	r6, [r2, #-332]!	; 0xfffffeb4
 20c74a8:	25203a6c 	strcs	r3, [r0, #-2668]!	; 0xfffff594
 20c74ac:	56202c73 			; <UNDEFINED> instruction: 0x56202c73
 20c74b0:	6d756c6f 	ldclvs	12, cr6, [r5, #-444]!	; 0xfffffe44
 20c74b4:	44492065 	strbmi	r2, [r9], #-101	; 0xffffff9b
 20c74b8:	38302520 	ldmdacc	r0!, {r5, r8, sl, sp}
 20c74bc:	00000a78 	andeq	r0, r0, r8, ror sl
 20c74c0:	73726946 	cmnvc	r2, #1146880	; 0x118000
 20c74c4:	65532074 	ldrbvs	r2, [r3, #-116]	; 0xffffff8c
 20c74c8:	726f7463 	rsbvc	r7, pc, #1660944384	; 0x63000000
 20c74cc:	6c25203a 	stcvs	0, cr2, [r5], #-232	; 0xffffff18
 20c74d0:	44202c75 	strtmi	r2, [r0], #-3189	; 0xfffff38b
 20c74d4:	20617461 	rsbcs	r7, r1, r1, ror #8
 20c74d8:	74636553 	strbtvc	r6, [r3], #-1363	; 0xfffffaad
 20c74dc:	3a73726f 	bcc	3da3ea0 <__end+0x1cd94f8>
 20c74e0:	756c2520 	strbvc	r2, [ip, #-1312]!	; 0xfffffae0
 20c74e4:	6f54202c 	svcvs	0x0054202c
 20c74e8:	436c6174 	cmnmi	ip, #116, 2
 20c74ec:	7473756c 	ldrbtvc	r7, [r3], #-1388	; 0xfffffa94
 20c74f0:	3a737265 	bcc	3da3e8c <__end+0x1cd94e4>
 20c74f4:	756c2520 	strbvc	r2, [ip, #-1312]!	; 0xfffffae0
 20c74f8:	6f52202c 	svcvs	0x0052202c
 20c74fc:	6c43746f 	cfstrdvs	mvd7, [r3], {111}	; 0x6f
 20c7500:	65747375 	ldrbvs	r7, [r4, #-885]!	; 0xfffffc8b
 20c7504:	25203a72 	strcs	r3, [r0, #-2674]!	; 0xfffff58e
 20c7508:	000a756c 	andeq	r7, sl, ip, ror #10
 20c750c:	434d4d45 	movtmi	r4, #56645	; 0xdd45
 20c7510:	4453203a 	ldrbmi	r2, [r3], #-58	; 0xffffffc6
 20c7514:	72614320 	rsbvc	r4, r1, #32, 6	; 0x80000000
 20c7518:	73252064 			; <UNDEFINED> instruction: 0x73252064
 20c751c:	4d642520 	cfstr64mi	mvdx2, [r4, #-128]!	; 0xffffff80
 20c7520:	666d2062 	strbtvs	r2, [sp], -r2, rrx
 20c7524:	64252072 	strtvs	r2, [r5], #-114	; 0xffffff8e
 20c7528:	63252720 			; <UNDEFINED> instruction: 0x63252720
 20c752c:	253a6325 	ldrcs	r6, [sl, #-805]!	; 0xfffffcdb
 20c7530:	25632563 	strbcs	r2, [r3, #-1379]!	; 0xfffffa9d
 20c7534:	25632563 	strbcs	r2, [r3, #-1379]!	; 0xfffffa9d
 20c7538:	72202763 	eorvc	r2, r0, #25952256	; 0x18c0000
 20c753c:	252e6425 	strcs	r6, [lr, #-1061]!	; 0xfffffbdb
 20c7540:	64252064 	strtvs	r2, [r5], #-100	; 0xffffff9c
 20c7544:	2c64252f 	cfstr64cs	mvdx2, [r4], #-188	; 0xffffff44
 20c7548:	30252320 	eorcc	r2, r5, r0, lsr #6
 20c754c:	52207838 	eorpl	r7, r0, #56, 16	; 0x380000
 20c7550:	25204143 	strcs	r4, [r0, #-323]!	; 0xfffffebd
 20c7554:	0a783430 	beq	3ed461c <__end+0x1e09c74>
 20c7558:	00000000 	andeq	r0, r0, r0
 20c755c:	20555043 	subscs	r5, r5, r3, asr #32
 20c7560:	71657266 	cmnvc	r5, r6, ror #4
 20c7564:	636e6575 	cmnvs	lr, #490733568	; 0x1d400000
 20c7568:	65732079 	ldrbvs	r2, [r3, #-121]!	; 0xffffff87
 20c756c:	6f742074 	svcvs	0x00742074
 20c7570:	20752520 	rsbscs	r2, r5, r0, lsr #10
 20c7574:	000a7a48 	andeq	r7, sl, r8, asr #20
 20c7578:	65646956 	strbvs	r6, [r4, #-2390]!	; 0xfffff6aa
 20c757c:	6e49206f 	cdpvs	0, 4, cr2, cr9, cr15, {3}
 20c7580:	61697469 	cmnvs	r9, r9, ror #8
 20c7584:	657a696c 	ldrbvs	r6, [sl, #-2412]!	; 0xfffff694
 20c7588:	000d0a64 	andeq	r0, sp, r4, ror #20
 20c758c:	65646956 	strbvs	r6, [r4, #-2390]!	; 0xfffff6aa
 20c7590:	6e49206f 	cdpvs	0, 4, cr2, cr9, cr15, {3}
 20c7594:	46207469 	strtmi	r7, [r0], -r9, ror #8
 20c7598:	656c6961 	strbvs	r6, [ip, #-2401]!	; 0xfffff69f
 20c759c:	785b2064 	ldmdavc	fp, {r2, r5, r6, sp}^
 20c75a0:	000d0a5d 	andeq	r0, sp, sp, asr sl
 20c75a4:	69726553 	ldmdbvs	r2!, {r0, r1, r4, r6, r8, sl, sp, lr}^
 20c75a8:	49206c61 	stmdbmi	r0!, {r0, r5, r6, sl, fp, sp, lr}
 20c75ac:	6974696e 	ldmdbvs	r4!, {r1, r2, r3, r5, r6, r8, fp, sp, lr}^
 20c75b0:	7a696c61 	bvc	3b2273c <__end+0x1a57d94>
 20c75b4:	0d0a6465 	cfstrseq	mvf6, [sl, #-404]	; 0xfffffe6c
 20c75b8:	00000000 	andeq	r0, r0, r0
 20c75bc:	0000736c 	andeq	r7, r0, ip, ror #6
 20c75c0:	00746163 	rsbseq	r6, r4, r3, ror #2
 20c75c4:	65746164 	ldrbvs	r6, [r4, #-356]!	; 0xfffffe9c
 20c75c8:	00000000 	andeq	r0, r0, r0
 20c75cc:	69737973 	ldmdbvs	r3!, {r0, r1, r4, r5, r6, r8, fp, ip, sp, lr}^
 20c75d0:	006f666e 	rsbeq	r6, pc, lr, ror #12
 20c75d4:	706d7564 	rsbvc	r7, sp, r4, ror #10
 20c75d8:	00000000 	andeq	r0, r0, r0
 20c75dc:	00006463 	andeq	r6, r0, r3, ror #8
 20c75e0:	5d5d5b5b 	vldrpl	d21, [sp, #-364]	; 0xfffffe94
 20c75e4:	00000000 	andeq	r0, r0, r0
 20c75e8:	006e614a 	rsbeq	r6, lr, sl, asr #2
 20c75ec:	00626546 	rsbeq	r6, r2, r6, asr #10
 20c75f0:	0072614d 	rsbseq	r6, r2, sp, asr #2
 20c75f4:	00727041 	rsbseq	r7, r2, r1, asr #32
 20c75f8:	0079614d 	rsbseq	r6, r9, sp, asr #2
 20c75fc:	006e754a 	rsbeq	r7, lr, sl, asr #10
 20c7600:	006c754a 	rsbeq	r7, ip, sl, asr #10
 20c7604:	00677541 	rsbeq	r7, r7, r1, asr #10
 20c7608:	00706553 	rsbseq	r6, r0, r3, asr r5
 20c760c:	0074634f 	rsbseq	r6, r4, pc, asr #6
 20c7610:	00766f4e 	rsbseq	r6, r6, lr, asr #30
 20c7614:	00636544 	rsbeq	r6, r3, r4, asr #10
 20c7618:	00000024 	andeq	r0, r0, r4, lsr #32
 20c761c:	72657375 	rsbvc	r7, r5, #-738197503	; 0xd4000001
 20c7620:	00000000 	andeq	r0, r0, r0
 20c7624:	73257325 			; <UNDEFINED> instruction: 0x73257325
 20c7628:	00000020 	andeq	r0, r0, r0, lsr #32
 20c762c:	00000d0a 	andeq	r0, r0, sl, lsl #26
 20c7630:	20707041 	rsbscs	r7, r0, r1, asr #32
 20c7634:	20746f6e 	rsbscs	r6, r4, lr, ror #30
 20c7638:	6e756f66 	cdpvs	15, 7, cr6, cr5, cr6, {3}
 20c763c:	00000064 	andeq	r0, r0, r4, rrx
 20c7640:	20707041 	rsbscs	r7, r0, r1, asr #32
 20c7644:	206f6f74 	rsbcs	r6, pc, r4, ror pc	; <UNPREDICTABLE>
 20c7648:	00676962 	rsbeq	r6, r7, r2, ror #18
 20c764c:	72500d0a 	subsvc	r0, r0, #640	; 0x280
 20c7650:	7365636f 	cmnvc	r5, #-1140850687	; 0xbc000001
 20c7654:	78652073 	stmdavc	r5!, {r0, r1, r4, r5, r6, sp}^
 20c7658:	64657469 	strbtvs	r7, [r5], #-1129	; 0xfffffb97
 20c765c:	74697720 	strbtvc	r7, [r9], #-1824	; 0xfffff8e0
 20c7660:	61762068 	cmnvs	r6, r8, rrx
 20c7664:	2065756c 	rsbcs	r7, r5, ip, ror #10
 20c7668:	00006425 	andeq	r6, r0, r5, lsr #8
 20c766c:	494e494d 	stmdbmi	lr, {r0, r2, r3, r6, r8, fp, lr}^
 20c7670:	422e534f 	eormi	r5, lr, #1006632961	; 0x3c000001
 20c7674:	0000504d 	andeq	r5, r0, sp, asr #32
 20c7678:	61460d0a 	cmpvs	r6, sl, lsl #26
 20c767c:	64656c69 	strbtvs	r6, [r5], #-3177	; 0xfffff397
 20c7680:	206f7420 	rsbcs	r7, pc, r0, lsr #8
 20c7684:	70736964 	rsbsvc	r6, r3, r4, ror #18
 20c7688:	2079616c 	rsbscs	r6, r9, ip, ror #2
 20c768c:	6f676f6c 	svcvs	0x00676f6c
 20c7690:	250d0a20 	strcs	r0, [sp, #-2592]	; 0xfffff5e0
 20c7694:	6f6e2073 	svcvs	0x006e2073
 20c7698:	6f662074 	svcvs	0x00662074
 20c769c:	0a646e75 	beq	39e3078 <__end+0x19186d0>
 20c76a0:	0000000d 	andeq	r0, r0, sp
 20c76a4:	00000000 	andeq	r0, r0, r0
 20c76a8:	5a206950 	bpl	28e1bf0 <__end+0x817248>
 20c76ac:	006f7265 	rsbeq	r7, pc, r5, ror #4
 20c76b0:	696e694d 	stmdbvs	lr!, {r0, r2, r3, r6, r8, fp, sp, lr}^
 20c76b4:	0000534f 	andeq	r5, r0, pc, asr #6
 20c76b8:	0d0a0d0a 	stceq	13, cr0, [sl, #-40]	; 0xffffffd8
 20c76bc:	636c6557 	cmnvs	ip, #364904448	; 0x15c00000
 20c76c0:	20656d6f 	rsbcs	r6, r5, pc, ror #26
 20c76c4:	25206f74 	strcs	r6, [r0, #-3956]!	; 0xfffff08c
 20c76c8:	73252073 			; <UNDEFINED> instruction: 0x73252073
 20c76cc:	00000d0a 	andeq	r0, r0, sl, lsl #26
 20c76d0:	0000002f 	andeq	r0, r0, pc, lsr #32
 20c76d4:	00007325 	andeq	r7, r0, r5, lsr #6
 20c76d8:	203a6463 	eorscs	r6, sl, r3, ror #8
 20c76dc:	68746170 	ldmdavs	r4!, {r4, r5, r6, r8, sp, lr}^
 20c76e0:	73696d20 	cmnvc	r9, #32, 26	; 0x800
 20c76e4:	676e6973 			; <UNDEFINED> instruction: 0x676e6973
 20c76e8:	00000000 	andeq	r0, r0, r0
 20c76ec:	00002e2e 	andeq	r2, r0, lr, lsr #28
 20c76f0:	73257325 			; <UNDEFINED> instruction: 0x73257325
 20c76f4:	0000002f 	andeq	r0, r0, pc, lsr #32
 20c76f8:	72727563 	rsbsvc	r7, r2, #415236096	; 0x18c00000
 20c76fc:	20746e65 	rsbscs	r6, r4, r5, ror #28
 20c7700:	3a726964 	bcc	3d61c98 <__end+0x1c972f0>
 20c7704:	00000020 	andeq	r0, r0, r0, lsr #32
 20c7708:	68742820 	ldmdavs	r4!, {r5, fp, sp}^
 20c770c:	69207369 	stmdbvs	r0!, {r0, r3, r5, r6, r8, r9, ip, sp, lr}
 20c7710:	6e692073 	mcrvs	0, 3, r2, cr9, cr3, {3}
 20c7714:	76656420 	strbtvc	r6, [r5], -r0, lsr #8
 20c7718:	706f6c65 	rsbvc	r6, pc, r5, ror #24
 20c771c:	746e656d 	strbtvc	r6, [lr], #-1389	; 0xfffffa93
 20c7720:	69747320 	ldmdbvs	r4!, {r5, r8, r9, ip, sp, lr}^
 20c7724:	21216c6c 			; <UNDEFINED> instruction: 0x21216c6c
 20c7728:	00000a29 	andeq	r0, r0, r9, lsr #20
 20c772c:	706d7564 	rsbvc	r7, sp, r4, ror #10
 20c7730:	6966203a 	stmdbvs	r6!, {r1, r3, r4, r5, sp}^
 20c7734:	616e656c 	cmnvs	lr, ip, ror #10
 20c7738:	6d20656d 	cfstr32vs	mvfx6, [r0, #-436]!	; 0xfffffe4c
 20c773c:	69737369 	ldmdbvs	r3!, {r0, r3, r5, r6, r8, r9, ip, sp, lr}^
 20c7740:	0000676e 	andeq	r6, r0, lr, ror #14
 20c7744:	706d7564 	rsbvc	r7, sp, r4, ror #10
 20c7748:	6966203a 	stmdbvs	r6!, {r1, r3, r4, r5, sp}^
 20c774c:	6420656c 	strtvs	r6, [r0], #-1388	; 0xfffffa94
 20c7750:	2073656f 	rsbscs	r6, r3, pc, ror #10
 20c7754:	20746f6e 	rsbscs	r6, r4, lr, ror #30
 20c7758:	73697865 	cmnvc	r9, #6619136	; 0x650000
 20c775c:	00000074 	andeq	r0, r0, r4, ror r0
 20c7760:	78323025 	ldmdavc	r2!, {r0, r2, r5, ip, sp}
 20c7764:	00000020 	andeq	r0, r0, r0, lsr #32
 20c7768:	00006325 	andeq	r6, r0, r5, lsr #6
 20c776c:	00000020 	andeq	r0, r0, r0, lsr #32
 20c7770:	00000d0a 	andeq	r0, r0, sl, lsl #26
 20c7774:	20202020 	eorcs	r2, r0, r0, lsr #32
 20c7778:	00202020 	eoreq	r2, r0, r0, lsr #32
 20c777c:	74794220 	ldrbtvc	r4, [r9], #-544	; 0xfffffde0
 20c7780:	00007365 	andeq	r7, r0, r5, ror #6
 20c7784:	66206f4e 	strtvs	r6, [r0], -lr, asr #30
 20c7788:	73656c69 	cmnvc	r5, #26880	; 0x6900
 20c778c:	756f6620 	strbvc	r6, [pc, #-1568]!	; 20c7174 <systick_callback>
 20c7790:	0d0a646e 	cfstrseq	mvf6, [sl, #-440]	; 0xfffffe48
 20c7794:	00000000 	andeq	r0, r0, r0
 20c7798:	3a746163 	bcc	3ddfd2c <__end+0x1d15384>
 20c779c:	6c696620 	stclvs	6, cr6, [r9], #-128	; 0xffffff80
 20c77a0:	6d616e65 	stclvs	14, cr6, [r1, #-404]!	; 0xfffffe6c
 20c77a4:	696d2065 	stmdbvs	sp!, {r0, r2, r5, r6, sp}^
 20c77a8:	6e697373 	mcrvs	3, 3, r7, cr9, cr3, {3}
 20c77ac:	00000067 	andeq	r0, r0, r7, rrx
 20c77b0:	3a746163 	bcc	3ddfd44 <__end+0x1d1539c>
 20c77b4:	6c696620 	stclvs	6, cr6, [r9], #-128	; 0xffffff80
 20c77b8:	6f642065 	svcvs	0x00642065
 20c77bc:	6e207365 	cdpvs	3, 2, cr7, cr0, cr5, {3}
 20c77c0:	6520746f 	strvs	r7, [r0, #-1135]!	; 0xfffffb91
 20c77c4:	74736978 	ldrbtvc	r6, [r3], #-2424	; 0xfffff688
 20c77c8:	00000000 	andeq	r0, r0, r0
 20c77cc:	25207325 	strcs	r7, [r0, #-805]!	; 0xfffffcdb
 20c77d0:	25202c64 	strcs	r2, [r0, #-3172]!	; 0xfffff39c
 20c77d4:	30252064 	eorcc	r2, r5, r4, rrx
 20c77d8:	253a6432 	ldrcs	r6, [sl, #-1074]!	; 0xfffffbce
 20c77dc:	3a643230 	bcc	39d40a4 <__end+0x19096fc>
 20c77e0:	64323025 	ldrtvs	r3, [r2], #-37	; 0xffffffdb
 20c77e4:	00000000 	andeq	r0, r0, r0
 20c77e8:	756e614a 	strbvc	r6, [lr, #-330]!	; 0xfffffeb6
 20c77ec:	00797261 	rsbseq	r7, r9, r1, ror #4
 20c77f0:	72626546 	rsbvc	r6, r2, #293601280	; 0x11800000
 20c77f4:	79726175 	ldmdbvc	r2!, {r0, r2, r4, r5, r6, r8, sp, lr}^
 20c77f8:	00000000 	andeq	r0, r0, r0
 20c77fc:	6372614d 	cmnvs	r2, #1073741843	; 0x40000013
 20c7800:	00000068 	andeq	r0, r0, r8, rrx
 20c7804:	69727041 	ldmdbvs	r2!, {r0, r6, ip, sp, lr}^
 20c7808:	0000006c 	andeq	r0, r0, ip, rrx
 20c780c:	0079614d 	rsbseq	r6, r9, sp, asr #2
 20c7810:	656e754a 	strbvs	r7, [lr, #-1354]!	; 0xfffffab6
 20c7814:	00000000 	andeq	r0, r0, r0
 20c7818:	796c754a 	stmdbvc	ip!, {r1, r3, r6, r8, sl, ip, sp, lr}^
 20c781c:	00000000 	andeq	r0, r0, r0
 20c7820:	75677541 	strbvc	r7, [r7, #-1345]!	; 0xfffffabf
 20c7824:	00007473 	andeq	r7, r0, r3, ror r4
 20c7828:	74706553 	ldrbtvc	r6, [r0], #-1363	; 0xfffffaad
 20c782c:	65626d65 	strbvs	r6, [r2, #-3429]!	; 0xfffff29b
 20c7830:	00000072 	andeq	r0, r0, r2, ror r0
 20c7834:	6f74634f 	svcvs	0x0074634f
 20c7838:	00726562 	rsbseq	r6, r2, r2, ror #10
 20c783c:	65766f4e 	ldrbvs	r6, [r6, #-3918]!	; 0xfffff0b2
 20c7840:	7265626d 	rsbvc	r6, r5, #-805306362	; 0xd0000006
 20c7844:	00000000 	andeq	r0, r0, r0
 20c7848:	65636544 	strbvs	r6, [r3, #-1348]!	; 0xfffffabc
 20c784c:	7265626d 	rsbvc	r6, r5, #-805306362	; 0xd0000006
 20c7850:	00000000 	andeq	r0, r0, r0
 20c7854:	5a206950 	bpl	28e1d9c <__end+0x8173f4>
 20c7858:	006f7265 	rsbeq	r7, pc, r5, ror #4
 20c785c:	696e694d 	stmdbvs	lr!, {r0, r2, r3, r6, r8, fp, sp, lr}^
 20c7860:	0000534f 	andeq	r5, r0, pc, asr #6
 20c7864:	25207325 	strcs	r7, [r0, #-805]!	; 0xfffffcdb
 20c7868:	00000073 	andeq	r0, r0, r3, ror r0
 20c786c:	2a2e2a5c 	bcs	2c521e4 <__end+0xb8783c>
 20c7870:	00000000 	andeq	r0, r0, r0
 20c7874:	6b636974 	blvs	39a1e4c <__end+0x18d74a4>
 20c7878:	Address 0x020c7878 is out of bounds.


Disassembly of section .eh_frame:

020c787c <__FRAME_END__>:
 20c787c:	00000000 	andeq	r0, r0, r0

Disassembly of section .ARM.exidx:

020c7880 <.ARM.exidx>:
 20c7880:	7df408c4 	ldclvc	8, cr0, [r4, #784]!	; 0x310
 20c7884:	00000001 	andeq	r0, r0, r1

Disassembly of section .rodata._ctype_:

020c7888 <_ctype_>:
 20c7888:	20202000 	eorcs	r2, r0, r0
 20c788c:	20202020 	eorcs	r2, r0, r0, lsr #32
 20c7890:	28282020 	stmdacs	r8!, {r5, sp}
 20c7894:	20282828 	eorcs	r2, r8, r8, lsr #16
 20c7898:	20202020 	eorcs	r2, r0, r0, lsr #32
 20c789c:	20202020 	eorcs	r2, r0, r0, lsr #32
 20c78a0:	20202020 	eorcs	r2, r0, r0, lsr #32
 20c78a4:	20202020 	eorcs	r2, r0, r0, lsr #32
 20c78a8:	10108820 	andsne	r8, r0, r0, lsr #16
 20c78ac:	10101010 	andsne	r1, r0, r0, lsl r0
 20c78b0:	10101010 	andsne	r1, r0, r0, lsl r0
 20c78b4:	10101010 	andsne	r1, r0, r0, lsl r0
 20c78b8:	04040410 	streq	r0, [r4], #-1040	; 0xfffffbf0
 20c78bc:	04040404 	streq	r0, [r4], #-1028	; 0xfffffbfc
 20c78c0:	10040404 	andne	r0, r4, r4, lsl #8
 20c78c4:	10101010 	andsne	r1, r0, r0, lsl r0
 20c78c8:	41411010 	cmpmi	r1, r0, lsl r0
 20c78cc:	41414141 	cmpmi	r1, r1, asr #2
 20c78d0:	01010101 	tsteq	r1, r1, lsl #2
 20c78d4:	01010101 	tsteq	r1, r1, lsl #2
 20c78d8:	01010101 	tsteq	r1, r1, lsl #2
 20c78dc:	01010101 	tsteq	r1, r1, lsl #2
 20c78e0:	01010101 	tsteq	r1, r1, lsl #2
 20c78e4:	10101010 	andsne	r1, r0, r0, lsl r0
 20c78e8:	42421010 	submi	r1, r2, #16
 20c78ec:	42424242 	submi	r4, r2, #536870916	; 0x20000004
 20c78f0:	02020202 	andeq	r0, r2, #536870912	; 0x20000000
 20c78f4:	02020202 	andeq	r0, r2, #536870912	; 0x20000000
 20c78f8:	02020202 	andeq	r0, r2, #536870912	; 0x20000000
 20c78fc:	02020202 	andeq	r0, r2, #536870912	; 0x20000000
 20c7900:	02020202 	andeq	r0, r2, #536870912	; 0x20000000
 20c7904:	10101010 	andsne	r1, r0, r0, lsl r0
 20c7908:	00000020 	andeq	r0, r0, r0, lsr #32
	...

Disassembly of section .rodata._global_impure_ptr:

020c798c <_global_impure_ptr>:
 20c798c:	00016468 	andeq	r6, r1, r8, ror #8

Disassembly of section .rodata._setlocale_r.str1.4:

020c7990 <.rodata._setlocale_r.str1.4>:
 20c7990:	00000043 	andeq	r0, r0, r3, asr #32
 20c7994:	49534f50 	ldmdbmi	r3, {r4, r6, r8, r9, sl, fp, lr}^
 20c7998:	00000058 	andeq	r0, r0, r8, asr r0
 20c799c:	00000000 	andeq	r0, r0, r0

Disassembly of section .rodata.str1.4:

020c79a0 <.rodata.str1.4>:
 20c79a0:	0000002e 	andeq	r0, r0, lr, lsr #32

Disassembly of section .stack:

020c79a4 <__stack_start-0x4>:
 20c79a4:	00000000 	andeq	r0, r0, r0

020c79a8 <__stack_start>:
	...

Disassembly of section .ARM.attributes:

00000000 <.ARM.attributes>:
   0:	00002e41 	andeq	r2, r0, r1, asr #28
   4:	61656100 	cmnvs	r5, r0, lsl #2
   8:	01006962 	tsteq	r0, r2, ror #18
   c:	00000024 	andeq	r0, r0, r4, lsr #32
  10:	06003705 	streq	r3, [r0], -r5, lsl #14
  14:	0841070a 	stmdaeq	r1, {r1, r3, r8, r9, sl}^
  18:	12020901 	andne	r0, r2, #16384	; 0x4000
  1c:	15011404 	strne	r1, [r1, #-1028]	; 0xfffffbfc
  20:	18031701 	stmdane	r3, {r0, r8, r9, sl, ip}
  24:	22011a01 	andcs	r1, r1, #4096	; 0x1000
  28:	2c012a01 			; <UNDEFINED> instruction: 0x2c012a01
  2c:	Address 0x0000002c is out of bounds.


Disassembly of section .comment:

00000000 <.comment>:
   0:	3a434347 	bcc	10d0d24 <binary+0x10b4b48>
   4:	4e472820 	cdpmi	8, 4, cr2, cr7, cr0, {1}
   8:	6f542055 	svcvs	0x00542055
   c:	20736c6f 	rsbscs	r6, r3, pc, ror #24
  10:	20726f66 	rsbscs	r6, r2, r6, ror #30
  14:	206d7241 	rsbcs	r7, sp, r1, asr #4
  18:	65626d45 	strbvs	r6, [r2, #-3397]!	; 0xfffff2bb
  1c:	64656464 	strbtvs	r6, [r5], #-1124	; 0xfffffb9c
  20:	6f725020 	svcvs	0x00725020
  24:	73736563 	cmnvc	r3, #415236096	; 0x18c00000
  28:	2073726f 	rsbscs	r7, r3, pc, ror #4
  2c:	30322d38 	eorscc	r2, r2, r8, lsr sp
  30:	712d3831 			; <UNDEFINED> instruction: 0x712d3831
  34:	616d2d34 	cmnvs	sp, r4, lsr sp
  38:	29726f6a 	ldmdbcs	r2!, {r1, r3, r5, r6, r8, r9, sl, fp, sp, lr}^
  3c:	322e3820 	eorcc	r3, lr, #32, 16	; 0x200000
  40:	3220312e 	eorcc	r3, r0, #-2147483637	; 0x8000000b
  44:	31383130 	teqcc	r8, r0, lsr r1
  48:	20333132 	eorscs	r3, r3, r2, lsr r1
  4c:	6c657228 	sfmvs	f7, 2, [r5], #-160	; 0xffffff60
  50:	65736165 	ldrbvs	r6, [r3, #-357]!	; 0xfffffe9b
  54:	675b2029 	ldrbvs	r2, [fp, -r9, lsr #32]
  58:	382d6363 	stmdacc	sp!, {r0, r1, r5, r6, r8, r9, sp, lr}
  5c:	6172622d 	cmnvs	r2, sp, lsr #4
  60:	2068636e 	rsbcs	r6, r8, lr, ror #6
  64:	69766572 	ldmdbvs	r6!, {r1, r4, r5, r6, r8, sl, sp, lr}^
  68:	6e6f6973 			; <UNDEFINED> instruction: 0x6e6f6973
  6c:	37363220 	ldrcc	r3, [r6, -r0, lsr #4]!
  70:	5d343730 	ldcpl	7, cr3, [r4, #-192]!	; 0xffffff40
	...

Disassembly of section .debug_frame:

00000000 <.debug_frame>:
   0:	0000000c 	andeq	r0, r0, ip
   4:	ffffffff 			; <UNDEFINED> instruction: 0xffffffff
   8:	7c020001 	stcvc	0, cr0, [r2], {1}
   c:	000d0c0e 	andeq	r0, sp, lr, lsl #24
  10:	00000014 	andeq	r0, r0, r4, lsl r0
  14:	00000000 	andeq	r0, r0, r0
  18:	00015a20 	andeq	r5, r1, r0, lsr #20
  1c:	00000020 	andeq	r0, r0, r0, lsr #32
  20:	83080e41 	movwhi	r0, #36417	; 0x8e41
  24:	00018e02 	andeq	r8, r1, r2, lsl #28
  28:	0000000c 	andeq	r0, r0, ip
  2c:	ffffffff 			; <UNDEFINED> instruction: 0xffffffff
  30:	7c020001 	stcvc	0, cr0, [r2], {1}
  34:	000d0c0e 	andeq	r0, sp, lr, lsl #24
  38:	00000018 	andeq	r0, r0, r8, lsl r0
  3c:	00000028 	andeq	r0, r0, r8, lsr #32
  40:	00015a40 	andeq	r5, r1, r0, asr #20
  44:	00000050 	andeq	r0, r0, r0, asr r0
  48:	84100e41 	ldrhi	r0, [r0], #-3649	; 0xfffff1bf
  4c:	86038504 	strhi	r8, [r3], -r4, lsl #10
  50:	00018e02 	andeq	r8, r1, r2, lsl #28
  54:	0000000c 	andeq	r0, r0, ip
  58:	ffffffff 			; <UNDEFINED> instruction: 0xffffffff
  5c:	7c020001 	stcvc	0, cr0, [r2], {1}
  60:	000d0c0e 	andeq	r0, sp, lr, lsl #24
  64:	00000024 	andeq	r0, r0, r4, lsr #32
  68:	00000054 	andeq	r0, r0, r4, asr r0
  6c:	00015a90 	muleq	r1, r0, sl
  70:	000000a0 	andeq	r0, r0, r0, lsr #1
  74:	84100e41 	ldrhi	r0, [r0], #-3649	; 0xfffff1bf
  78:	86038504 	strhi	r8, [r3], -r4, lsl #10
  7c:	02018702 	andeq	r8, r1, #524288	; 0x80000
  80:	c6c70a43 	strbgt	r0, [r7], r3, asr #20
  84:	000ec4c5 	andeq	ip, lr, r5, asr #9
  88:	00000b41 	andeq	r0, r0, r1, asr #22
  8c:	0000000c 	andeq	r0, r0, ip
  90:	ffffffff 			; <UNDEFINED> instruction: 0xffffffff
  94:	7c020001 	stcvc	0, cr0, [r2], {1}
  98:	000d0c0e 	andeq	r0, sp, lr, lsl #24
  9c:	0000001c 	andeq	r0, r0, ip, lsl r0
  a0:	0000008c 	andeq	r0, r0, ip, lsl #1
  a4:	00015b30 	andeq	r5, r1, r0, lsr fp
  a8:	000000e4 	andeq	r0, r0, r4, ror #1
  ac:	840c0e57 	strhi	r0, [ip], #-3671	; 0xfffff1a9
  b0:	86028503 	strhi	r8, [r2], -r3, lsl #10
  b4:	c5c67001 	strbgt	r7, [r6, #1]
  b8:	00000ec4 	andeq	r0, r0, r4, asr #29
  bc:	0000000c 	andeq	r0, r0, ip
  c0:	ffffffff 			; <UNDEFINED> instruction: 0xffffffff
  c4:	7c020001 	stcvc	0, cr0, [r2], {1}
  c8:	000d0c0e 	andeq	r0, sp, lr, lsl #24
  cc:	00000020 	andeq	r0, r0, r0, lsr #32
  d0:	000000bc 	strheq	r0, [r0], -ip
  d4:	0001584c 	andeq	r5, r1, ip, asr #16
  d8:	000001ba 			; <UNDEFINED> instruction: 0x000001ba
  dc:	040e4d02 	streq	r4, [lr], #-3330	; 0xfffff2fe
  e0:	7f020185 	svcvc	0x00020185
  e4:	0ec5410a 	poleqs	f4, f5, #2.0
  e8:	4e0b4100 	adfmie	f4, f3, f0
  ec:	00000ec5 	andeq	r0, r0, r5, asr #29
  f0:	0000000c 	andeq	r0, r0, ip
  f4:	ffffffff 			; <UNDEFINED> instruction: 0xffffffff
  f8:	7c020001 	stcvc	0, cr0, [r2], {1}
  fc:	000d0c0e 	andeq	r0, sp, lr, lsl #24
 100:	0000000c 	andeq	r0, r0, ip
 104:	000000f0 	strdeq	r0, [r0], -r0	; <UNPREDICTABLE>
 108:	00015c14 	andeq	r5, r1, r4, lsl ip
 10c:	0000005c 	andeq	r0, r0, ip, asr r0
 110:	0000000c 	andeq	r0, r0, ip
 114:	ffffffff 			; <UNDEFINED> instruction: 0xffffffff
 118:	7c020001 	stcvc	0, cr0, [r2], {1}
 11c:	000d0c0e 	andeq	r0, sp, lr, lsl #24
 120:	0000001c 	andeq	r0, r0, ip, lsl r0
 124:	00000110 	andeq	r0, r0, r0, lsl r1
 128:	00015c70 	andeq	r5, r1, r0, ror ip
 12c:	00000042 	andeq	r0, r0, r2, asr #32
 130:	84040e4b 	strhi	r0, [r4], #-3659	; 0xfffff1b5
 134:	c40a4c01 	strgt	r4, [sl], #-3073	; 0xfffff3ff
 138:	0b41000e 	bleq	1040178 <binary+0x1023f9c>
 13c:	000ec442 	andeq	ip, lr, r2, asr #8
 140:	0000000c 	andeq	r0, r0, ip
 144:	ffffffff 			; <UNDEFINED> instruction: 0xffffffff
 148:	7c020001 	stcvc	0, cr0, [r2], {1}
 14c:	000d0c0e 	andeq	r0, sp, lr, lsl #24
 150:	00000024 	andeq	r0, r0, r4, lsr #32
 154:	00000140 	andeq	r0, r0, r0, asr #2
 158:	00015cb4 			; <UNDEFINED> instruction: 0x00015cb4
 15c:	0000004c 	andeq	r0, r0, ip, asr #32
 160:	84080e43 	strhi	r0, [r8], #-3651	; 0xfffff1bd
 164:	41018e02 	tstmi	r1, r2, lsl #28
 168:	0a5b180e 	beq	16c61a8 <binary+0x16a9fcc>
 16c:	0b41080e 	bleq	10421ac <binary+0x1025fd0>
 170:	c4000e43 	strgt	r0, [r0], #-3651	; 0xfffff1bd
 174:	000000ce 	andeq	r0, r0, lr, asr #1
 178:	0000000c 	andeq	r0, r0, ip
 17c:	ffffffff 			; <UNDEFINED> instruction: 0xffffffff
 180:	7c020001 	stcvc	0, cr0, [r2], {1}
 184:	000d0c0e 	andeq	r0, sp, lr, lsl #24
 188:	0000000c 	andeq	r0, r0, ip
 18c:	00000178 	andeq	r0, r0, r8, ror r1
 190:	00015d00 	andeq	r5, r1, r0, lsl #26
 194:	00000018 	andeq	r0, r0, r8, lsl r0
 198:	00000038 	andeq	r0, r0, r8, lsr r0
 19c:	00000178 	andeq	r0, r0, r8, ror r1
 1a0:	00015d18 	andeq	r5, r1, r8, lsl sp
 1a4:	000000b2 	strheq	r0, [r0], -r2
 1a8:	84240e42 	strthi	r0, [r4], #-3650	; 0xfffff1be
 1ac:	86088509 	strhi	r8, [r8], -r9, lsl #10
 1b0:	88068707 	stmdahi	r6, {r0, r1, r2, r8, r9, sl, pc}
 1b4:	8a048905 	bhi	1225d0 <binary+0x1063f4>
 1b8:	8e028b03 	vmlahi.f64	d8, d2, d3
 1bc:	300e4301 	andcc	r4, lr, r1, lsl #6
 1c0:	240e0a67 	strcs	r0, [lr], #-2663	; 0xfffff599
 1c4:	cacbce42 	bgt	ff2f3ad4 <MBOX0+0xc02e8254>
 1c8:	c6c7c8c9 	strbgt	ip, [r7], r9, asr #17
 1cc:	000ec4c5 	andeq	ip, lr, r5, asr #9
 1d0:	00000b42 	andeq	r0, r0, r2, asr #22
 1d4:	0000000c 	andeq	r0, r0, ip
 1d8:	ffffffff 			; <UNDEFINED> instruction: 0xffffffff
 1dc:	7c020001 	stcvc	0, cr0, [r2], {1}
 1e0:	000d0c0e 	andeq	r0, sp, lr, lsl #24
 1e4:	0000000c 	andeq	r0, r0, ip
 1e8:	000001d4 	ldrdeq	r0, [r0], -r4
 1ec:	00015dcc 	andeq	r5, r1, ip, asr #27
 1f0:	0000000c 	andeq	r0, r0, ip
 1f4:	0000000c 	andeq	r0, r0, ip
 1f8:	ffffffff 			; <UNDEFINED> instruction: 0xffffffff
 1fc:	7c020001 	stcvc	0, cr0, [r2], {1}
 200:	000d0c0e 	andeq	r0, sp, lr, lsl #24
 204:	00000020 	andeq	r0, r0, r0, lsr #32
 208:	000001f4 	strdeq	r0, [r0], -r4
 20c:	00015dd8 	ldrdeq	r5, [r1], -r8
 210:	00000030 	andeq	r0, r0, r0, lsr r0
 214:	83100e41 	tsthi	r0, #1040	; 0x410
 218:	85038404 	strhi	r8, [r3, #-1028]	; 0xfffffbfc
 21c:	55018e02 	strpl	r8, [r1, #-3586]	; 0xfffff1fe
 220:	c3c4c5ce 	bicgt	ip, r4, #864026624	; 0x33800000
 224:	0000000e 	andeq	r0, r0, lr
 228:	0000000c 	andeq	r0, r0, ip
 22c:	ffffffff 			; <UNDEFINED> instruction: 0xffffffff
 230:	7c020001 	stcvc	0, cr0, [r2], {1}
 234:	000d0c0e 	andeq	r0, sp, lr, lsl #24
 238:	00000020 	andeq	r0, r0, r0, lsr #32
 23c:	00000228 	andeq	r0, r0, r8, lsr #4
 240:	00015e08 	andeq	r5, r1, r8, lsl #28
 244:	00000052 	andeq	r0, r0, r2, asr r0
 248:	84080e42 	strhi	r0, [r8], #-3650	; 0xfffff1be
 24c:	4e018e02 	cdpmi	14, 0, cr8, cr1, cr2, {0}
 250:	cec4000e 	cdpgt	0, 12, cr0, cr4, cr14, {0}
 254:	84080e45 	strhi	r0, [r8], #-3653	; 0xfffff1bb
 258:	00018e02 	andeq	r8, r1, r2, lsl #28
 25c:	0000000c 	andeq	r0, r0, ip
 260:	00000228 	andeq	r0, r0, r8, lsr #4
 264:	00015e5c 	andeq	r5, r1, ip, asr lr
 268:	0000000e 	andeq	r0, r0, lr
 26c:	0000000c 	andeq	r0, r0, ip
 270:	00000228 	andeq	r0, r0, r8, lsr #4
 274:	00015e6c 	andeq	r5, r1, ip, ror #28
 278:	00000012 	andeq	r0, r0, r2, lsl r0
 27c:	0000000c 	andeq	r0, r0, ip
 280:	ffffffff 			; <UNDEFINED> instruction: 0xffffffff
 284:	7c020001 	stcvc	0, cr0, [r2], {1}
 288:	000d0c0e 	andeq	r0, sp, lr, lsl #24
 28c:	0000000c 	andeq	r0, r0, ip
 290:	0000027c 	andeq	r0, r0, ip, ror r2
 294:	00015e80 	andeq	r5, r1, r0, lsl #29
 298:	00000002 	andeq	r0, r0, r2
 29c:	0000000c 	andeq	r0, r0, ip
 2a0:	0000027c 	andeq	r0, r0, ip, ror r2
 2a4:	00015e84 	andeq	r5, r1, r4, lsl #29
 2a8:	00000002 	andeq	r0, r0, r2
 2ac:	0000000c 	andeq	r0, r0, ip
 2b0:	0000027c 	andeq	r0, r0, ip, ror r2
 2b4:	00015e88 	andeq	r5, r1, r8, lsl #29
 2b8:	00000002 	andeq	r0, r0, r2
 2bc:	0000000c 	andeq	r0, r0, ip
 2c0:	0000027c 	andeq	r0, r0, ip, ror r2
 2c4:	00015e8c 	andeq	r5, r1, ip, lsl #29
 2c8:	00000002 	andeq	r0, r0, r2
 2cc:	0000000c 	andeq	r0, r0, ip
 2d0:	0000027c 	andeq	r0, r0, ip, ror r2
 2d4:	00015e90 	muleq	r1, r0, lr
 2d8:	00000002 	andeq	r0, r0, r2
 2dc:	0000000c 	andeq	r0, r0, ip
 2e0:	0000027c 	andeq	r0, r0, ip, ror r2
 2e4:	00015e94 	muleq	r1, r4, lr
 2e8:	00000002 	andeq	r0, r0, r2
 2ec:	0000000c 	andeq	r0, r0, ip
 2f0:	0000027c 	andeq	r0, r0, ip, ror r2
 2f4:	00015e98 	muleq	r1, r8, lr
 2f8:	00000004 	andeq	r0, r0, r4
 2fc:	0000000c 	andeq	r0, r0, ip
 300:	0000027c 	andeq	r0, r0, ip, ror r2
 304:	00015e9c 	muleq	r1, ip, lr
 308:	00000004 	andeq	r0, r0, r4
 30c:	0000000c 	andeq	r0, r0, ip
 310:	0000027c 	andeq	r0, r0, ip, ror r2
 314:	00015ea0 	andeq	r5, r1, r0, lsr #29
 318:	00000002 	andeq	r0, r0, r2
 31c:	0000000c 	andeq	r0, r0, ip
 320:	0000027c 	andeq	r0, r0, ip, ror r2
 324:	00015ea4 	andeq	r5, r1, r4, lsr #29
 328:	00000002 	andeq	r0, r0, r2
 32c:	0000000c 	andeq	r0, r0, ip
 330:	ffffffff 			; <UNDEFINED> instruction: 0xffffffff
 334:	7c020001 	stcvc	0, cr0, [r2], {1}
 338:	000d0c0e 	andeq	r0, sp, lr, lsl #24
 33c:	00000018 	andeq	r0, r0, r8, lsl r0
 340:	0000032c 	andeq	r0, r0, ip, lsr #6
 344:	00015ea8 	andeq	r5, r1, r8, lsr #29
 348:	00000014 	andeq	r0, r0, r4, lsl r0
 34c:	84040e41 	strhi	r0, [r4], #-3649	; 0xfffff1bf
 350:	0ec44801 	cdpeq	8, 12, cr4, cr4, cr1, {0}
 354:	00000000 	andeq	r0, r0, r0
 358:	00000018 	andeq	r0, r0, r8, lsl r0
 35c:	0000032c 	andeq	r0, r0, ip, lsr #6
 360:	00015ebc 			; <UNDEFINED> instruction: 0x00015ebc
 364:	00000024 	andeq	r0, r0, r4, lsr #32
 368:	4b080e41 	blmi	203c74 <binary+0x1e7a98>
 36c:	41000e0a 	tstmi	r0, sl, lsl #28
 370:	0000000b 	andeq	r0, r0, fp
 374:	0000000c 	andeq	r0, r0, ip
 378:	ffffffff 			; <UNDEFINED> instruction: 0xffffffff
 37c:	7c020001 	stcvc	0, cr0, [r2], {1}
 380:	000d0c0e 	andeq	r0, sp, lr, lsl #24
 384:	00000018 	andeq	r0, r0, r8, lsl r0
 388:	00000374 	andeq	r0, r0, r4, ror r3
 38c:	00015ee0 	andeq	r5, r1, r0, ror #29
 390:	00000014 	andeq	r0, r0, r4, lsl r0
 394:	84040e41 	strhi	r0, [r4], #-3649	; 0xfffff1bf
 398:	0ec44801 	cdpeq	8, 12, cr4, cr4, cr1, {0}
 39c:	00000000 	andeq	r0, r0, r0
 3a0:	0000000c 	andeq	r0, r0, ip
 3a4:	00000374 	andeq	r0, r0, r4, ror r3
 3a8:	00015ef4 	strdeq	r5, [r1], -r4
 3ac:	00000018 	andeq	r0, r0, r8, lsl r0
 3b0:	0000000c 	andeq	r0, r0, ip
 3b4:	ffffffff 			; <UNDEFINED> instruction: 0xffffffff
 3b8:	7c020001 	stcvc	0, cr0, [r2], {1}
 3bc:	000d0c0e 	andeq	r0, sp, lr, lsl #24
 3c0:	0000001c 	andeq	r0, r0, ip, lsl r0
 3c4:	000003b0 			; <UNDEFINED> instruction: 0x000003b0
 3c8:	00015f0c 	andeq	r5, r1, ip, lsl #30
 3cc:	0000008c 	andeq	r0, r0, ip, lsl #1
 3d0:	84180e42 	ldrhi	r0, [r8], #-3650	; 0xfffff1be
 3d4:	86058506 	strhi	r8, [r5], -r6, lsl #10
 3d8:	88038704 	stmdahi	r3, {r2, r8, r9, sl, pc}
 3dc:	00018e02 	andeq	r8, r1, r2, lsl #28
 3e0:	0000000c 	andeq	r0, r0, ip
 3e4:	ffffffff 			; <UNDEFINED> instruction: 0xffffffff
 3e8:	7c020001 	stcvc	0, cr0, [r2], {1}
 3ec:	000d0c0e 	andeq	r0, sp, lr, lsl #24
 3f0:	0000000c 	andeq	r0, r0, ip
 3f4:	000003e0 	andeq	r0, r0, r0, ror #7
 3f8:	00015f98 	muleq	r1, r8, pc	; <UNPREDICTABLE>
 3fc:	00000002 	andeq	r0, r0, r2
