AARCH64 GAS  C:\Users\A01169~1\AppData\Local\Temp\cclmDoLY.s 			page 1


   1              		.arch armv8-a
   2              		.file	"main.c"
   3              		.text
   4              		.align	2
   5              		.p2align 4,,15
   6              		.global	kernel_main
   7              		.type	kernel_main, %function
   8              	kernel_main:
   9 0000 F353BEA9 		stp	x19, x20, [sp, -32]!
  10 0004 13000090 		adrp	x19, printf
  11 0008 73020091 		add	x19, x19, :lo12:printf
  12 000c E30313AA 		mov	x3, x19
  13 0010 02008052 		mov	w2, 0
  14 0014 01008052 		mov	w1, 0
  15 0018 00008052 		mov	w0, 0
  16 001c FE0B00F9 		str	x30, [sp, 16]
  17 0020 00000094 		bl	PiConsole_Init
  18 0024 E00313AA 		mov	x0, x19
  19 0028 14000090 		adrp	x20, .LC13
  20 002c 94020091 		add	x20, x20, :lo12:.LC13
  21 0030 00000094 		bl	displaySmartStart
  22 0034 E00314AA 		mov	x0, x20
  23 0038 00000094 		bl	printf
  24 003c E00313AA 		mov	x0, x19
  25 0040 00000094 		bl	ARM_setmaxspeed
  26 0044 E10313AA 		mov	x1, x19
  27 0048 22008052 		mov	w2, 1
  28 004c E00313AA 		mov	x0, x19
  29 0050 00000094 		bl	sdInitCard
  30 0054 E00314AA 		mov	x0, x20
  31 0058 14000090 		adrp	x20, .LC16
  32 005c 94020091 		add	x20, x20, :lo12:.LC16
  33 0060 00000094 		bl	printf
  34 0064 00000094 		bl	hal_io_video_init
  35 0068 00000090 		adrp	x0, .LC14
  36 006c 00000091 		add	x0, x0, :lo12:.LC14
  37 0070 E2FF9F52 		mov	w2, 65535
  38 0074 61008052 		mov	w1, 3
  39 0078 00000094 		bl	hal_io_video_puts
  40 007c 00000094 		bl	hal_io_serial_init
  41 0080 01000090 		adrp	x1, .LC15
  42 0084 21000091 		add	x1, x1, :lo12:.LC15
  43 0088 00008052 		mov	w0, 0
  44 008c 00000094 		bl	hal_io_serial_puts
  45              		.p2align 3
  46              	.L2:
  47 0090 00008052 		mov	w0, 0
  48 0094 00000094 		bl	hal_io_serial_getc
  49 0098 131C0012 		and	w19, w0, 255
  50 009c 00008052 		mov	w0, 0
  51 00a0 E103132A 		mov	w1, w19
  52 00a4 00000094 		bl	hal_io_serial_putc
  53 00a8 E103132A 		mov	w1, w19
  54 00ac E00314AA 		mov	x0, x20
  55 00b0 00000094 		bl	printf
  56 00b4 F7FFFF17 		b	.L2
  57              		.size	kernel_main, .-kernel_main
AARCH64 GAS  C:\Users\A01169~1\AppData\Local\Temp\cclmDoLY.s 			page 2


  58              		.align	2
  59 00b8 1F2003D5 		.p2align 4,,15
  59      1F2003D5 
  60              		.global	DisplayDirectory
  61              		.type	DisplayDirectory, %function
  62              	DisplayDirectory:
  63 00c0 FFC309D1 		sub	sp, sp, #624
  64 00c4 020C80D2 		mov	x2, 96
  65 00c8 01000090 		adrp	x1, .LANCHOR0
  66 00cc 21000091 		add	x1, x1, :lo12:.LANCHOR0
  67 00d0 F55B06A9 		stp	x21, x22, [sp, 96]
  68 00d4 F5230291 		add	x21, sp, 136
  69 00d8 16000090 		adrp	x22, .LC18
  70 00dc D6020091 		add	x22, x22, :lo12:.LC18
  71 00e0 F35305A9 		stp	x19, x20, [sp, 80]
  72 00e4 F30300AA 		mov	x19, x0
  73 00e8 E00315AA 		mov	x0, x21
  74 00ec F77B07A9 		stp	x23, x30, [sp, 112]
  75 00f0 00000094 		bl	memcpy
  76 00f4 E1A30391 		add	x1, sp, 232
  77 00f8 E00313AA 		mov	x0, x19
  78 00fc 34E00191 		add	x20, x1, 120
  79 0100 13000090 		adrp	x19, .LC19
  80 0104 73020091 		add	x19, x19, :lo12:.LC19
  81 0108 00000094 		bl	sdFindFirstFile
  82 010c F703002A 		mov	w23, w0
  83              		.p2align 3
  84              	.L6:
  85 0110 E15741B9 		ldr	w1, [sp, 340]
  86 0114 E00313AA 		mov	x0, x19
  87 0118 3F400071 		cmp	w1, 16
  88 011c E0040054 		beq	.L11
  89 0120 E9FB80B9 		ldrsw	x9, [sp, 248]
  90 0124 E8F740B9 		ldr	w8, [sp, 244]
  91 0128 EBAB4939 		ldrb	w11, [sp, 618]
  92 012c ECA74939 		ldrb	w12, [sp, 617]
  93 0130 EDA34939 		ldrb	w13, [sp, 616]
  94 0134 EE9F4939 		ldrb	w14, [sp, 615]
  95 0138 EA5F41B9 		ldr	w10, [sp, 348]
  96 013c EE0300B9 		str	w14, [sp]
  97 0140 ED0B00B9 		str	w13, [sp, 8]
  98 0144 EC1300B9 		str	w12, [sp, 16]
  99 0148 EB1B00B9 		str	w11, [sp, 24]
 100 014c EA1300F9 		str	x10, [sp, 32]
 101 0150 E82B00B9 		str	w8, [sp, 40]
 102 0154 E8FF40B9 		ldr	w8, [sp, 252]
 103 0158 E1834939 		ldrb	w1, [sp, 608]
 104 015c E79B4939 		ldrb	w7, [sp, 614]
 105 0160 08B11D11 		add	w8, w8, 1900
 106 0164 E6974939 		ldrb	w6, [sp, 613]
 107 0168 E5934939 		ldrb	w5, [sp, 612]
 108 016c E48F4939 		ldrb	w4, [sp, 611]
 109 0170 E38B4939 		ldrb	w3, [sp, 610]
 110 0174 E2874939 		ldrb	w2, [sp, 609]
 111 0178 A97A69F8 		ldr	x9, [x21, x9, lsl 3]
 112 017c E91B00F9 		str	x9, [sp, 48]
 113 0180 E83B00B9 		str	w8, [sp, 56]
AARCH64 GAS  C:\Users\A01169~1\AppData\Local\Temp\cclmDoLY.s 			page 3


 114 0184 F42300F9 		str	x20, [sp, 64]
 115 0188 00000094 		bl	printf
 116 018c E1A30391 		add	x1, sp, 232
 117 0190 E003172A 		mov	w0, w23
 118 0194 00000094 		bl	sdFindNextFile
 119 0198 C0FBFF35 		cbnz	w0, .L6
 120 019c E003172A 		mov	w0, w23
 121 01a0 00000094 		bl	sdFindClose
 122 01a4 F35345A9 		ldp	x19, x20, [sp, 80]
 123 01a8 F55B46A9 		ldp	x21, x22, [sp, 96]
 124 01ac F77B47A9 		ldp	x23, x30, [sp, 112]
 125 01b0 FFC30991 		add	sp, sp, 624
 126 01b4 C0035FD6 		ret
 127              		.p2align 2
 128              	.L11:
 129 01b8 E10314AA 		mov	x1, x20
 130 01bc E00316AA 		mov	x0, x22
 131 01c0 00000094 		bl	printf
 132 01c4 E1A30391 		add	x1, sp, 232
 133 01c8 E003172A 		mov	w0, w23
 134 01cc 00000094 		bl	sdFindNextFile
 135 01d0 00FAFF35 		cbnz	w0, .L6
 136 01d4 E003172A 		mov	w0, w23
 137 01d8 00000094 		bl	sdFindClose
 138 01dc F35345A9 		ldp	x19, x20, [sp, 80]
 139 01e0 F55B46A9 		ldp	x21, x22, [sp, 96]
 140 01e4 F77B47A9 		ldp	x23, x30, [sp, 112]
 141 01e8 FFC30991 		add	sp, sp, 624
 142 01ec C0035FD6 		ret
 143              		.size	DisplayDirectory, .-DisplayDirectory
 144              		.comm	buffer,500,8
 145              		.section	.rodata
 146              		.align	3
 147              		.set	.LANCHOR0,. + 0
 148              	.LC17:
 149 0000 00000000 		.xword	.LC0
 149      00000000 
 150 0008 00000000 		.xword	.LC1
 150      00000000 
 151 0010 00000000 		.xword	.LC2
 151      00000000 
 152 0018 00000000 		.xword	.LC3
 152      00000000 
 153 0020 00000000 		.xword	.LC4
 153      00000000 
 154 0028 00000000 		.xword	.LC5
 154      00000000 
 155 0030 00000000 		.xword	.LC6
 155      00000000 
 156 0038 00000000 		.xword	.LC7
 156      00000000 
 157 0040 00000000 		.xword	.LC8
 157      00000000 
 158 0048 00000000 		.xword	.LC9
 158      00000000 
 159 0050 00000000 		.xword	.LC10
 159      00000000 
AARCH64 GAS  C:\Users\A01169~1\AppData\Local\Temp\cclmDoLY.s 			page 4


 160 0058 00000000 		.xword	.LC11
 160      00000000 
 161              		.section	.rodata.str1.8,"aMS",@progbits,1
 162              		.align	3
 163              	.LC13:
 164 0000 0A00     		.string	"\n"
 165 0002 00000000 		.zero	6
 165      0000
 166              	.LC14:
 167 0008 48454C4C 		.string	"HELLO THERE "
 167      4F205448 
 167      45524520 
 167      00
 168 0015 000000   		.zero	3
 169              	.LC15:
 170 0018 54797065 		.string	"Typewriter:"
 170      77726974 
 170      65723A00 
 171 0024 00000000 		.zero	4
 172              	.LC16:
 173 0028 256300   		.string	"%c"
 174 002b 00000000 		.zero	5
 174      00
 175              	.LC18:
 176 0030 2573203C 		.string	"%s <DIR>\n"
 176      4449523E 
 176      0A00
 177 003a 00000000 		.zero	6
 177      0000
 178              	.LC19:
 179 0040 25632563 		.string	"%c%c%c%c%c%c%c%c.%c%c%c Size: %9lu bytes, %2d/%s/%4d, LFN: %s\n"
 179      25632563 
 179      25632563 
 179      25632563 
 179      2E256325 
 180 007f 00       		.zero	1
 181              	.LC0:
 182 0080 4A616E00 		.string	"Jan"
 183 0084 00000000 		.zero	4
 184              	.LC1:
 185 0088 46656200 		.string	"Feb"
 186 008c 00000000 		.zero	4
 187              	.LC2:
 188 0090 4D617200 		.string	"Mar"
 189 0094 00000000 		.zero	4
 190              	.LC3:
 191 0098 41707200 		.string	"Apr"
 192 009c 00000000 		.zero	4
 193              	.LC4:
 194 00a0 4D617900 		.string	"May"
 195 00a4 00000000 		.zero	4
 196              	.LC5:
 197 00a8 4A756E00 		.string	"Jun"
 198 00ac 00000000 		.zero	4
 199              	.LC6:
 200 00b0 4A756C00 		.string	"Jul"
 201 00b4 00000000 		.zero	4
AARCH64 GAS  C:\Users\A01169~1\AppData\Local\Temp\cclmDoLY.s 			page 5


 202              	.LC7:
 203 00b8 41756700 		.string	"Aug"
 204 00bc 00000000 		.zero	4
 205              	.LC8:
 206 00c0 53657000 		.string	"Sep"
 207 00c4 00000000 		.zero	4
 208              	.LC9:
 209 00c8 4F637400 		.string	"Oct"
 210 00cc 00000000 		.zero	4
 211              	.LC10:
 212 00d0 4E6F7600 		.string	"Nov"
 213 00d4 00000000 		.zero	4
 214              	.LC11:
 215 00d8 44656300 		.string	"Dec"
 216              		.ident	"GCC: (GNU Toolchain for the A-profile Architecture 8.2-2019.01 (arm-rel-8.28)) 8.2.1 20180
AARCH64 GAS  C:\Users\A01169~1\AppData\Local\Temp\cclmDoLY.s 			page 6


DEFINED SYMBOLS
                            *ABS*:0000000000000000 main.c
C:\Users\A01169~1\AppData\Local\Temp\cclmDoLY.s:4      .text:0000000000000000 $x
C:\Users\A01169~1\AppData\Local\Temp\cclmDoLY.s:8      .text:0000000000000000 kernel_main
C:\Users\A01169~1\AppData\Local\Temp\cclmDoLY.s:62     .text:00000000000000c0 DisplayDirectory
                            *COM*:00000000000001f4 buffer
C:\Users\A01169~1\AppData\Local\Temp\cclmDoLY.s:146    .rodata:0000000000000000 $d
C:\Users\A01169~1\AppData\Local\Temp\cclmDoLY.s:162    .rodata.str1.8:0000000000000000 $d

UNDEFINED SYMBOLS
printf
PiConsole_Init
displaySmartStart
ARM_setmaxspeed
sdInitCard
hal_io_video_init
hal_io_video_puts
hal_io_serial_init
hal_io_serial_puts
hal_io_serial_getc
hal_io_serial_putc
memcpy
sdFindFirstFile
sdFindNextFile
sdFindClose
AARCH64 GAS  C:\Users\A01169~1\AppData\Local\Temp\cclmDoLY.s 			page 1


   1              	# 1 "src/boot/SmartStart64.S"
   1              	﻿;/*"++++++++++++++++++++++++++++++++++++++++++++++++++++++++++++++++++++++++"
   0              	
   0              	
   2              	;@"																			"			
   3              	;@"      Filename: smartstart64.s											"
   4              	;@"      Copyright(c): Leon de Boer(LdB) 2017								"
   5              	;@"      Version: 2.02														"
   6              	;@"																			"		
   7              	;@"***************[ THIS CODE IS FREEWARE UNDER CC Attribution]*************"
   8              	;@"																            "
   9              	;@"     This sourcecode is released for the purpose to promote programming  "
  10              	;@"  on the Raspberry Pi. You may redistribute it and/or modify with the    "
  11              	;@"  following disclaimer and condition.                                    "
  12              	;@"																            "
  13              	;@"      The SOURCE CODE is distributed "AS IS" WITHOUT WARRANTIES AS TO    "
  14              	;@"   PERFORMANCE OF MERCHANTABILITY WHETHER EXPRESSED OR IMPLIED.          "
  15              	;@"   Redistributions of source code must retain the copyright notices to   "
  16              	;@"   maintain the author credit (attribution) .							"
  17              	;@"																			"
  18              	;@"*************************************************************************"
  19              	;@"                                                                         "
  20              	;@"       This code expands on my earlier SmartStart bootstub assembler for "
  21              	;@" the Pi3. It directly supports multicore operation in C/C++. To do that  "
  22              	;@" it provides stack space to each core and provides a modified bootloader " 
  23              	;@" spinlock that protects against registers X0-X7 trashed. As any C/C++    "
  24              	;@" 64 bit compiler will trash those registers, to use C/C++ in multicore   "
  25              	;@" programming this protection must be done.								"
  26              	;@"       This is a matching paired AARCH64 stub for the 64bit linker file  "
  27              	;@" and carries the samme arrangement as AARCH32 to ease porting.		    "
  28              	;@"																            "
  29              	;@"+++++++++++++++++++++++++++++++++++++++++++++++++++++++++++++++++++++++"*/
  30              	
  31              	.section ".text.startup", "ax", %progbits
  32              	.balign	4
  33              	.globl _start
  34              	_start:	
  35 0000 0C000010 		adr x12, _start							// Hold boot address in high register R12
  36 0004 610D0058 		ldr x1, =RPi_BootAddr					// Address of RPi_BootAddr
  37 0008 2C0000B9 		str w12, [x1]							// Store the boot address
  38              	
  39 000c 600D0058 		ldr	x0, =0x3F000000						// No need to detect address in 64bit mode it has to be 0x3F000000 on Pi3
  40 0010 810D0058 		ldr x1, =RPi_IO_Base_Addr				// Address of RPi_IO_Base_Addr
  41 0014 200000B9 		str w0, [x1]							// Store the IO base address
  42              	
  43 0018 200080D2 		mov x0, #1								// Multicore support starts as 1 core
  44 001c 610D0058 		ldr x1, =RPi_CoresReady					// Address of RPi_CoresReady
  45 0020 200000B9 		str w0, [x1]							// Store the CoresReady count as 1
  46              	
  47 0024 001380D2 		mov x0, #0x98							// Compiled for ARM8 CPU in AARCH64 and supports 4 cores
  48 0028 410D0058 		ldr x1, =RPi_CompileMode				// Address of RPi_CompileMode
  49 002c 200000B9 		str w0, [x1]							// Store the compiler mode  
  50              	
  51 0030 000038D5 		mrs	x0, midr_el1						// Read CPU Id register
  52 0034 210D0058 		ldr x1, =RPi_CpuId						// Address of RPi_CpuId
  53 0038 200000B9 		str w0, [x1]							// Store the CPU id 
  54              	
AARCH64 GAS  C:\Users\A01169~1\AppData\Local\Temp\cclmDoLY.s 			page 2


  55              	//"================================================================"
  56              	//  Initialize Generic Timers for Core0
  57              	//"================================================================"
  58 003c 00E13CD5 		mrs	x0, cnthctl_el2
  59 0040 000440B2 		orr	x0, x0, #0x3						/* Enable EL1 access to timers */
  60 0044 00E11CD5 		msr	cnthctl_el2, x0
  61 0048 7FE01CD5 		msr	cntvoff_el2, xzr
  62              		
  63              		/* Not sure if I want this yet */
  64 004c 00E138D5 		mrs	x0, cntkctl_el1
  65 0050 000440B2 		orr	x0, x0, #0x3						/* Enable EL0 access to timers */
  66 0054 00E118D5 		msr	cntkctl_el1, x0
  67              	
  68              	//"================================================================"
  69              	//  Setup stack pointers for each core and each CPU operation mode
  70              	//"================================================================"
  71              	multicore_start:
  72 0058 420C0058 	    ldr x2, = __EL2_stack_core0				// Address of EL2_stack_core0 stack pointer value
  73 005c 630C0058 	    ldr x3, = __EL1_stack_core0				// Address of EL1_stack_core0 stack pointer value
  74 0060 840C0058 	    ldr x4, = __EL0_stack_core0				// Address of EL0_stack_core0 stack pointer value
  75 0064 A60038D5 		mrs x6, mpidr_el1						// Read core id on ARM8
  76 0068 C60440F2 		ands x6, x6, #0x3						// Make cpu id bitmask
  77 006c C0010054 		beq set_stacks							// Ready to set core 0 stacks
  78 0070 420C0058 	    ldr x2, = __EL2_stack_core1				// Address of EL2_stack_core1 stack pointer value
  79 0074 630C0058 	    ldr x3, = __EL1_stack_core1				// Address of EL1_stack_core1 stack pointer value
  80 0078 840C0058 	    ldr x4, = __EL0_stack_core1				// Address of EL0_stack_core1 stack pointer value
  81 007c DF0400F1 		cmp x6, #1								// Check cpu id for core 1
  82 0080 20010054 		beq set_stacks							// Ready to set core 1 stacks
  83 0084 620C0058 	    ldr x2, = __EL2_stack_core2				// Address of EL2_stack_core2 stack pointer value
  84 0088 830C0058 	    ldr x3, = __EL1_stack_core2				// Address of EL1_stack_core2 stack pointer value
  85 008c A40C0058 	    ldr x4, = __EL0_stack_core2				// Address of EL0_stack_core2 stack pointer value
  86 0090 DF0800F1 		cmp x6, #2								// Check cpu id for core 2
  87 0094 80000054 		beq set_stacks							// Ready to set core 1 stacks
  88 0098 820C0058 	    ldr x2, = __EL2_stack_core3				// Address of EL2_stack_core3 stack pointer value
  89 009c A30C0058 	    ldr x3, = __EL1_stack_core3				// Address of EL1_stack_core3 stack pointer value
  90 00a0 C40C0058 	    ldr x4, = __EL0_stack_core3				// Address of EL0_stack_core3 stack pointer value
  91              	set_stacks:
  92 00a4 5F000091 		mov	sp, x2								/* EL2 stack set */
  93 00a8 03411CD5 		msr	sp_el1, x3							/* EL1 stack set */
  94 00ac 044118D5 		msr	sp_el0, x4							/* EL0 stack set */
  95              	
  96              	//"================================================================"
  97              	//  Initilize MPID/MPIDR registers for all Cores
  98              	//"================================================================"
  99 00b0 000038D5 		mrs	x0, midr_el1
 100 00b4 A10038D5 		mrs	x1, mpidr_el1
 101 00b8 00001CD5 		msr	vpidr_el2, x0
 102 00bc A1001CD5 		msr	vmpidr_el2, x1
 103              	
 104              	//"================================================================"
 105              	//  Disable coprocessor traps for all Cores
 106              	//"================================================================"
 107 00c0 E07F86D2 		mov	x0, #0x33ff
 108 00c4 40111CD5 		msr	cptr_el2, x0						// Disable coprocessor traps to EL2
 109 00c8 7F111CD5 		msr	hstr_el2, xzr						// Disable coprocessor traps to EL2
 110 00cc 0006A0D2 		mov	x0, #3 << 20
 111 00d0 401018D5 		msr	cpacr_el1, x0						// Enable FP/SIMD at EL1
AARCH64 GAS  C:\Users\A01169~1\AppData\Local\Temp\cclmDoLY.s 			page 3


 112              	
 113              	//"================================================================"
 114              	//  Initialize HCR_EL2 so EL1 is 64 bits for all Cores
 115              	//"================================================================"
 116 00d4 0000B0D2 		mov	x0, #(1 << 31)						// 64bit EL1
 117 00d8 00111CD5 		msr	hcr_el2, x0
 118              	
 119              	//"================================================================"
 120              	//  Initialize SCTLR_EL1 for all Cores
 121              	//"================================================================"
 122              	    /*  RES1 bits (29,28,23,22,20,11) to 1
 123              		 *  RES0 bits (31,30,27,21,17,13,10,6) +
 124              		 *  UCI,EE,EOE,WXN,nTWE,nTWI,UCT,DZE,I,UMA,SED,ITD,
 125              		 *  CP15BEN,SA0,SA,C,A,M to 0 */
 126 00dc 000081D2 		mov	x0, #0x0800
 127 00e0 001AA6F2 		movk	x0, #0x30d0, lsl #16
 128 00e4 00007EB2 		orr    x0, x0, #(0x1 << 2)            // The C bit on (data cache). 
 129 00e8 000074B2 		orr    x0, x0, #(0x1 << 12)           // The I bit on (instruction cache)
 130 00ec 001018D5 		msr	sctlr_el1, x0
 131              	
 132              	//"================================================================"
 133              	//  Return to the EL1_SP1 mode from EL2 for all Cores
 134              	//"================================================================"
 135 00f0 A07880D2 		mov	x0, #0x3c5							// EL1_SP1 | D | A | I | F
 136 00f4 00401CD5 		msr	spsr_el2, x0						// Set spsr_el2 with settings
 137 00f8 60000010 		adr	x0, exit_el1						// Address to exit EL2
 138 00fc 20401CD5 		msr	elr_el2, x0							// Set elevated return register
 139 0100 E0039FD6 		eret									// Call elevated return
 140              	exit_el1:
 141 0104 A60038D5 		mrs x6, mpidr_el1						// Read core id on ARM8
 142 0108 C6044092 		and x6, x6, #0x3						// Make cpu id bitmask
 143 010c C60000B4 		cbz x6, cpu0_exit_multicore_park		// Core0 continues on
 144              	
 145              	//"================================================================"
 146              	//      Now park Core 1,2,3 into secondary spinloop on BCM2837
 147              	//"================================================================"
 148 0110 C1050058 		ldr x1, =RPi_CoresReady					// Address of CoreReady count
 149 0114 200040B9 		ldr w0, [x1]							// Load current core count 
 150 0118 00040011 		add w0, w0, #1							// Add one as core about to go ready
 151 011c 200000B9 		str w0, [x1]							// Update CoreReady count
 152 0120 50000014 		b  StartSecondarySpin					// Jump to setup secondary spin
 153              	cpu0_exit_multicore_park:
 154              	
 155              	//"================================================================"
 156              	//  Set vector table for EL1 for Core0 (All others cores parked)
 157              	//"================================================================"
 158 0124 E0080058 	    ldr x0, =VectorTable						
 159 0128 00C018D5 	    msr vbar_el1,x0
 160              	
 161              	//"================================================================"
 162              	//  About to go to into C kernel clear BSS (Core0 only)
 163              	//"================================================================"
 164 012c E3080058 		ldr x3, =__bss_end__
 165 0130 00090058 		ldr x0, =__bss_start__
 166 0134 1F0003EB 		cmp	x0, x3
 167 0138 82000054 		bcs	.bss_cleared
 168              	.bss_zero_loop:
AARCH64 GAS  C:\Users\A01169~1\AppData\Local\Temp\cclmDoLY.s 			page 4


 169 013c 1F4400B8 		str	wzr, [x0], 4
 170 0140 7F0000EB 		cmp	x3, x0
 171 0144 C8FFFF54 		bhi	.bss_zero_loop
 172              	.bss_cleared:
 173              	
 174              	//"================================================================"
 175              	//			Core0 will bring Core 1,2,3 to secondary spin 
 176              	//"================================================================"
 177              	#define spin_cpu1 0xe0
 178 0148 011C80D2 		mov x1, #spin_cpu1						// Spin core1 jump address
 179 014c 62080058 		ldr x2, =multicore_start				// Function we are going to call
 180 0150 220000F9 		str	x2, [x1]							// Store the function address to core1
 181 0154 9F2003D5 		sev										// Wake core1 up
 182 0158 83030058 	 	ldr x3, =RPi_CoresReady					// Set CoresReady count address
 183              	.WaitCore1ACK:
 184 015c 610040B9 		ldr	w1, [x3]							// Read CoresReady count
 185 0160 3F080071 		cmp	w1, #2								// Wait for setting of second core ready
 186 0164 C1FFFF54 		bne	.WaitCore1ACK						// Core1 not ready so read again
 187              	#define spin_cpu2 0xe8
 188 0168 011D80D2 		mov x1, #spin_cpu2						// Spin core2 jump address
 189 016c 62070058 		ldr x2, =multicore_start				// Function we are going to call
 190 0170 220000F9 		str	x2, [x1]							// Store the function address to core2
 191 0174 9F2003D5 		sev										// Wake core2 up
 192 0178 83020058 	 	ldr x3, =RPi_CoresReady					// Set CoresReady count address
 193              	.WaitCore2ACK:
 194 017c 610040B9 		ldr	w1, [x3]							// Read CoresReady count
 195 0180 3F0C0071 		cmp	w1, #3								// Wait for setting of third core ready
 196 0184 C1FFFF54 		bne	.WaitCore2ACK						// Core2 not ready so read again
 197              	#define spin_cpu3 0xf0
 198 0188 011E80D2 		mov x1, #spin_cpu3						// Spin core3 jump address
 199 018c 62060058 		ldr x2, =multicore_start				// Function we are going to call
 200 0190 220000F9 		str	x2, [x1]							// Store the function address to core3
 201 0194 9F2003D5 		sev										// Wake core3 up
 202 0198 83010058 	 	ldr x3, =RPi_CoresReady					// Set CoresReady count address
 203              	.WaitCore3ACK:
 204 019c 610040B9 		ldr	w1, [x3]							// Read CoresReady count
 205 01a0 3F100071 		cmp	w1, #4								// Wait for setting of third core ready
 206 01a4 C1FFFF54 		bne	.WaitCore3ACK						// Core3 not ready so read again
 207              	
 208              	//"================================================================"
 209              	// Finally that all done Core0 jumps to the C compiler entry point
 210              	//"================================================================"
 211 01a8 00000014 		b kernel_main							// Jump out to C kernel 
 212              	
 213              	/*================================================================"
 214              	      Just safety incase C code ever returns back
 215              	"================================================================*/
 216              	hang:
 217 01ac 00000014 		b hang
 218              	.balign	4
 219 01b0 00000000 	.ltorg										/* Tell assembler ltorg data for code above can go here */
 219      00000000 
 219      0000003F 
 219      00000000 
 219      00000000 
 220              	
 221              	
AARCH64 GAS  C:\Users\A01169~1\AppData\Local\Temp\cclmDoLY.s 			page 5


 222              	/*++++++++++++++++++++++++++++++++++++++++++++++++++++++++++++++++++++++++++}
 223              	{    Modified bootloader Spin loop but tolerant on registers X0-X7 for C    }
 224              	{++++++++++++++++++++++++++++++++++++++++++++++++++++++++++++++++++++++++++*/
 225              	#define spin_cpu0 0xd8
 226              	.balign	4
 227              	StartSecondarySpin:
 228 0260 A60038D5 		mrs x6, MPIDR_EL1						// Fetch core Id
 229 0264 C6044092 		and x6, x6, #0x3						// Create 2 bit mask of core Id
 230 0268 051B80D2 		mov x5, #spin_cpu0						// Load address of spins
 231 026c 010080D2 		mov x1, #0                              // zero x1 register
 232 0270 A17826F8 		str x1, [x5, x6, lsl #3]				// Make sure caller address is zeroed
 233              	secondary_spin:
 234 0274 5F2003D5 		wfe										// This is all I really want processor to sleep
 235 0278 A47866F8 	    ldr x4, [x5, x6, lsl #3]				// Fetch address that has been set
 236 027c C4FFFFB4 		cbz x4, secondary_spin					// If zero spin 
 237 0280 000080D2 		mov x0, #0
 238 0284 A07826F8 		str x0, [x5, x6, lsl #3]				// Zero caller address
 239 0288 010080D2 		mov x1, #0
 240 028c 020080D2 		mov x2, #0
 241 0290 030080D2 		mov x3, #0
 242 0294 80003FD6 		blr x4									// Call the function set
 243 0298 F2FFFF17 		b StartSecondarySpin					// Loop back to spinlock
 244              	
 245              	
 246              	.globl RPi_CpuIdString
 247              	RPi_CpuIdString:
 248 029c 60000058 		ldr x0, =ARM8_STR						// Can not be anything but a Cortex-a53 						
 249 02a0 C0035FD6 		ret										// Return
 250              	.balign	4
 251 02a4 00000000 	.ltorg										/* Tell assembler ltorg data for code above can go here */
 251      00000000 
 251      00000000 
 252              	
 253              	
 254              	.globl EnableInterrupts
 255              	EnableInterrupts:
 256 02b0 FF4203D5 		msr daifclr,#2
 257 02b4 C0035FD6 		ret
 258              	
 259              	.globl DisableInterrupts
 260              	DisableInterrupts:
 261 02b8 DF4203D5 		msr daifset,#2
 262 02bc C0035FD6 		ret
 263              	
 264              	.globl CoreExecute
 265              	CoreExecute:
 266 02c0 001C40F2 		ands x0, x0, #255
 267 02c4 A0010054 		beq CoreExecuteFail
 268 02c8 C3010058 		ldr x3, =RPi_CoresReady
 269 02cc 620040B9 		ldr w2, [x3]							// Fetch cores ready count
 270 02d0 1F00026B 		cmp w0, w2
 271 02d4 22010054 		bcs	CoreExecuteFail
 272 02d8 060080D2 		mov x6, #0
 273 02dc E603002A 		mov w6, w0
 274 02e0 051B80D2 		mov x5, #spin_cpu0						// Load address of spins
 275 02e4 A17826F8 		str x1, [x5, x6, lsl #3]				// Save caller address
 276 02e8 9F3F03D5 		dsb sy
AARCH64 GAS  C:\Users\A01169~1\AppData\Local\Temp\cclmDoLY.s 			page 6


 277 02ec 9F2003D5 		sev
 278 02f0 200080D2 		mov x0, #1
 279 02f4 C0035FD6 		ret
 280              	CoreExecuteFail:
 281 02f8 000080D2 		mov x0, #0
 282 02fc C0035FD6 		ret
 283              	.balign	4
 284 0300 00000000 	.ltorg										// Tell assembler ltorg data for this code can go here
 284      00000000 
 285              	
 286              	/*++++++++++++++++++++++++++++++++++++++++++++++++++++++++++++++++++++++++++}
 287              	{			MEMORY HELPER ROUTINES PROVIDE BY RPi-SmartStart API		    }
 288              	{++++++++++++++++++++++++++++++++++++++++++++++++++++++++++++++++++++++++++*/
 289              	
 290              	
 291              	/* "PROVIDE C FUNCTION: uint32_t ARMaddrToGPUaddr (void* ARMaddress);" */
 292              	.section .text.ARMaddrToGPUaddr, "ax", %progbits
 293              	.balign	4
 294              	.globl ARMaddrToGPUaddr;		
 295              	.type ARMaddrToGPUaddr, %function
 296              	//"================================================================"
 297              	// ARMaddrToGPUaddr -- AARCH64 Pi3 code
 298              	// C Function: uint32_t ARMaddrToGPUaddr (void* ARMaddress);
 299              	// Entry: x0 will have ARMAddress value
 300              	//"================================================================"
 301              	ARMaddrToGPUaddr:
 302 0000 0100B8D2 		mov x1, #0xC0000000						// ARM to VC conversion value
 303 0004 000001AA 		orr x0, x0, x1							// Create bus address
 304 0008 C0035FD6 		ret										// Return
 305              	.balign	4
 306              	.ltorg										// Tell assembler ltorg data for this code can go here
 307              	.size	ARMaddrToGPUaddr, .-ARMaddrToGPUaddr
 308              	
 309              	
 310              	/* "PROVIDE C FUNCTION: uint32_t GPUaddrToARMaddr (uint32_t BUSaddress);" */
 311              	.section .text.GPUaddrToARMaddr, "ax", %progbits
 312              	.balign	4
 313              	.globl GPUaddrToARMaddr;		
 314              	.type GPUaddrToARMaddr, %function
 315              	//"================================================================"
 316              	// GPUaddrToARMaddr -- AARCH64 Pi3 code
 317              	// C Function: uint32_t GPUaddrToARMaddr (uint32_t BUSaddress);
 318              	// Entry: x0 will have GPUAddress value
 319              	//"================================================================"
 320              	GPUaddrToARMaddr:
 321 0000 0100B8D2 		mov x1, #0xC0000000						// ARM to VC conversion value	
 322 0004 0000218A 		bic x0, x0, x1							// Create arm address
 323 0008 C0035FD6 		ret										// Return
 324              	.balign	4
 325              	.ltorg										// Tell assembler ltorg data for this code can go here
 326              	.size	GPUaddrToARMaddr, .-GPUaddrToARMaddr
 327              	
 328              	/* Provide weak reference c_irq_handler so if user does not use it functions as dummy */
 329              	.weak c_irq_handler
 330              	c_irq_handler:
 331 000c C0035FD6 		ret
 332              	
AARCH64 GAS  C:\Users\A01169~1\AppData\Local\Temp\cclmDoLY.s 			page 7


 333              	/* Provide weak reference c_irq_identify_and_clear_source so if user does not use it functions as d
 334              	.weak c_irq_identify_and_clear_source
 335              	c_irq_identify_and_clear_source:
 336 0010 C0035FD6 		ret
 337              	
 338              	/* Re-entrant interrupt handler stub */
 339              	/* http://infocenter.arm.com/help/index.jsp?topic=/com.arm.doc.den0024a/ch10s05.html */
 340              	.globl irq_handler
 341              	irq_handler:
 342 0014 FD7BBFA9 		stp	x29, x30, [sp, #-16]!
 343 0018 FB73BFA9 		stp	x27, x28, [sp, #-16]!
 344 001c F96BBFA9 		stp	x25, x26, [sp, #-16]!
 345 0020 F763BFA9 		stp	x23, x24, [sp, #-16]!
 346 0024 F55BBFA9 		stp	x21, x22, [sp, #-16]!
 347 0028 F353BFA9 		stp	x19, x20, [sp, #-16]!
 348 002c F14BBFA9 		stp	x17, x18, [sp, #-16]!
 349 0030 EF43BFA9 		stp	x15, x16, [sp, #-16]!
 350 0034 ED3BBFA9 		stp	x13, x14, [sp, #-16]!
 351 0038 EB33BFA9 		stp	x11, x12, [sp, #-16]!
 352 003c E92BBFA9 		stp	x9, x10, [sp, #-16]!
 353 0040 E723BFA9 		stp	x7, x8, [sp, #-16]!
 354 0044 E51BBFA9 		stp	x5, x6, [sp, #-16]!
 355 0048 E313BFA9 		stp	x3, x4, [sp, #-16]!
 356 004c E10BBFA9 		stp	x1, x2, [sp, #-16]!
 357 0050 E00F1FF8 		str	x0, [sp, #-16]!
 358              		
 359 0054 014038D5 		mrs	x1, SPSR_EL1
 360 0058 224038D5 		mrs	x2, ELR_EL1
 361 005c E10BBFA9 		stp	x1, x2, [sp, #-16]!
 362 0060 00000094 		bl c_irq_identify_and_clear_source  /* User will provide or will use weak stub */
 363 0064 FF4203D5 		msr daifclr,#2
 364 0068 00000094 		bl	c_irq_handler					/* User will provide or will use weak stub */
 365 006c DF4203D5 		msr daifset,#2
 366              	
 367 0070 E10BC1A8 		ldp	x1, x2, [sp], #16
 368 0074 224018D5 		msr	ELR_EL1, x2
 369 0078 014018D5 		msr	SPSR_EL1, x1
 370              	
 371 007c E00741F8 		ldr	x0, [sp], #16
 372 0080 E10BC1A8 		ldp	x1, x2, [sp], #16
 373 0084 E313C1A8 		ldp	x3, x4, [sp], #16
 374 0088 E51BC1A8 		ldp	x5, x6, [sp], #16
 375 008c E723C1A8 		ldp	x7, x8, [sp], #16
 376 0090 E92BC1A8 		ldp	x9, x10, [sp], #16
 377 0094 EB33C1A8 		ldp	x11, x12, [sp], #16
 378 0098 ED3BC1A8 		ldp	x13, x14, [sp], #16
 379 009c EF43C1A8 		ldp	x15, x16, [sp], #16
 380 00a0 F14BC1A8 		ldp	x17, x18, [sp], #16
 381 00a4 F353C1A8 		ldp	x19, x20, [sp], #16
 382 00a8 F55BC1A8 		ldp	x21, x22, [sp], #16
 383 00ac F763C1A8 		ldp	x23, x24, [sp], #16
 384 00b0 F96BC1A8 		ldp	x25, x26, [sp], #16
 385 00b4 FB73C1A8 		ldp	x27, x28, [sp], #16
 386 00b8 FD7BC1A8 		ldp	x29, x30, [sp], #16
 387 00bc E0039FD6 		eret
 388              	
 389              	/* macro to align handlers every 0x80 bytes */
AARCH64 GAS  C:\Users\A01169~1\AppData\Local\Temp\cclmDoLY.s 			page 8


 390              	.macro	vector handler
 391              	.balign 0x80
 392              	b	\handler
 393              	.endm
 394              	
 395 00c0 1F2003D5 	.balign 0x800
 395      1F2003D5 
 395      1F2003D5 
 395      1F2003D5 
 395      1F2003D5 
 396              	.globl	VectorTable
 397              	VectorTable:
 398              		/* from current EL with sp_el0 */
 399 0800 00000014 		vector	_start			/* Synchronous */
 400 0804 1F2003D5 		vector  hang			/* IRQ */
 400      1F2003D5 
 400      1F2003D5 
 400      1F2003D5 
 400      1F2003D5 
 401 0884 1F2003D5 		vector	hang			/* FIQ */
 401      1F2003D5 
 401      1F2003D5 
 401      1F2003D5 
 401      1F2003D5 
 402 0904 1F2003D5 		vector	hang			/* SErrorStub */
 402      1F2003D5 
 402      1F2003D5 
 402      1F2003D5 
 402      1F2003D5 
 403              	
 404              		/* from current EL with sp_elx, x != 0 */
 405 0984 1F2003D5 		vector	hang			/* Synchronous */
 405      1F2003D5 
 405      1F2003D5 
 405      1F2003D5 
 405      1F2003D5 
 406 0a04 1F2003D5 		vector	irq_handler		/* IRQ */
 406      1F2003D5 
 406      1F2003D5 
 406      1F2003D5 
 406      1F2003D5 
 407 0a84 1F2003D5 		vector	hang			/* FIQ */
 407      1F2003D5 
 407      1F2003D5 
 407      1F2003D5 
 407      1F2003D5 
 408 0b04 1F2003D5 		vector	hang			/* SErrorStub */
 408      1F2003D5 
 408      1F2003D5 
 408      1F2003D5 
 408      1F2003D5 
 409              	
 410              		/* from lower EL, target EL minus 1 is AArch64 */
 411 0b84 1F2003D5 		vector	hang			/* Synchronous */
 411      1F2003D5 
 411      1F2003D5 
 411      1F2003D5 
AARCH64 GAS  C:\Users\A01169~1\AppData\Local\Temp\cclmDoLY.s 			page 9


 411      1F2003D5 
 412 0c04 1F2003D5 		vector  hang			/* IRQ */
 412      1F2003D5 
 412      1F2003D5 
 412      1F2003D5 
 412      1F2003D5 
 413 0c84 1F2003D5 		vector	hang			/* FIQ */
 413      1F2003D5 
 413      1F2003D5 
 413      1F2003D5 
 413      1F2003D5 
 414 0d04 1F2003D5 		vector	hang			/* SErrorStub */
 414      1F2003D5 
 414      1F2003D5 
 414      1F2003D5 
 414      1F2003D5 
 415              	
 416              		/* from lower EL, target EL minus 1 is AArch32 */
 417 0d84 1F2003D5 		vector	hang			/* Synchronous */
 417      1F2003D5 
 417      1F2003D5 
 417      1F2003D5 
 417      1F2003D5 
 418 0e04 1F2003D5 		vector  hang			/* IRQ */
 418      1F2003D5 
 418      1F2003D5 
 418      1F2003D5 
 418      1F2003D5 
 419 0e84 1F2003D5 		vector	hang			/* FIQ */
 419      1F2003D5 
 419      1F2003D5 
 419      1F2003D5 
 419      1F2003D5 
 420 0f04 1F2003D5 		vector	hang			/* SErrorStub */
 420      1F2003D5 
 420      1F2003D5 
 420      1F2003D5 
 420      1F2003D5 
 421              	
 422              	/*==========================================================================}
 423              	;{					  CPU STRING CONSTANT DEFINITIONS					    }
 424              	;{=========================================================================*/
 425              	.section ".rodata.cpuid", "a", %progbits
 426              	.balign	4
 427 0000 636F7274 	ARM8_STR: .string "cortex-a53\0"
 427      65782D61 
 427      35330000 
 428              	
 429              	/****************************************************************
 430              	       	   DATA FOR SMARTSTART64  EXPOSED TO INTERFACE 
 431              	****************************************************************/
 432              	.section ".data.smartstart64", "aw"
 433              	.balign 4
 434              	
 435              	.globl RPi_IO_Base_Addr;				// Make sure Pi_IO_Base_Addr label is global
 436 0000 00000000 	RPi_IO_Base_Addr : .4byte 0;			// Peripheral Base addr is 4 byte variable in 64bit mode
 437              	
AARCH64 GAS  C:\Users\A01169~1\AppData\Local\Temp\cclmDoLY.s 			page 10


 438              	.globl RPi_BootAddr;					// Make sure RPi_BootAddr label is global
 439 0004 00000000 	RPi_BootAddr : .4byte 0;				// CPU boot address is 4 byte variable in 64bit mode
 440              	
 441              	.globl RPi_CoresReady;					// Make sure RPi_CoresReady label is global
 442 0008 00000000 	RPi_CoresReady : .4byte 0;				// CPU cores ready for use is 4 byte variable in 32bit mode
 443              	
 444              	.globl RPi_CPUBootMode;					// Make sure RPi_CPUBootMode label is global
 445 000c 00000000 	RPi_CPUBootMode : .4byte 0;				// CPU Boot Mode is 4 byte variable in 64bit mode
 446              	
 447              	.globl RPi_CpuId;						// Make sure RPi_CpuId label is global
 448 0010 00000000 	RPi_CpuId : .4byte 0;					// CPU Id is 4 byte variable in 64bit mode
 449              	
 450              	.globl RPi_CompileMode;					// Make sure RPi_CompileMode label is global
 451 0014 00000000 	RPi_CompileMode : .4byte 0;				// Compile mode is 4 byte variable in 64bit mode
AARCH64 GAS  C:\Users\A01169~1\AppData\Local\Temp\cclmDoLY.s 			page 11


DEFINED SYMBOLS
src/boot/SmartStart64.S:32     .text.startup:0000000000000000 $x
src/boot/SmartStart64.S:34     .text.startup:0000000000000000 _start
src/boot/SmartStart64.S:439    .data.smartstart64:0000000000000004 RPi_BootAddr
src/boot/SmartStart64.S:436    .data.smartstart64:0000000000000000 RPi_IO_Base_Addr
src/boot/SmartStart64.S:442    .data.smartstart64:0000000000000008 RPi_CoresReady
src/boot/SmartStart64.S:451    .data.smartstart64:0000000000000014 RPi_CompileMode
src/boot/SmartStart64.S:448    .data.smartstart64:0000000000000010 RPi_CpuId
src/boot/SmartStart64.S:71     .text.startup:0000000000000058 multicore_start
src/boot/SmartStart64.S:91     .text.startup:00000000000000a4 set_stacks
src/boot/SmartStart64.S:140    .text.startup:0000000000000104 exit_el1
src/boot/SmartStart64.S:153    .text.startup:0000000000000124 cpu0_exit_multicore_park
src/boot/SmartStart64.S:227    .text.startup:0000000000000260 StartSecondarySpin
src/boot/SmartStart64.S:397    .text.GPUaddrToARMaddr:0000000000000800 VectorTable
src/boot/SmartStart64.S:172    .text.startup:0000000000000148 .bss_cleared
src/boot/SmartStart64.S:168    .text.startup:000000000000013c .bss_zero_loop
src/boot/SmartStart64.S:183    .text.startup:000000000000015c .WaitCore1ACK
src/boot/SmartStart64.S:193    .text.startup:000000000000017c .WaitCore2ACK
src/boot/SmartStart64.S:203    .text.startup:000000000000019c .WaitCore3ACK
src/boot/SmartStart64.S:216    .text.startup:00000000000001ac hang
src/boot/SmartStart64.S:219    .text.startup:00000000000001b0 $d
src/boot/SmartStart64.S:226    .text.startup:0000000000000260 $x
src/boot/SmartStart64.S:233    .text.startup:0000000000000274 secondary_spin
src/boot/SmartStart64.S:247    .text.startup:000000000000029c RPi_CpuIdString
src/boot/SmartStart64.S:427    .rodata.cpuid:0000000000000000 ARM8_STR
src/boot/SmartStart64.S:251    .text.startup:00000000000002a8 $d
src/boot/SmartStart64.S:255    .text.startup:00000000000002b0 EnableInterrupts
src/boot/SmartStart64.S:256    .text.startup:00000000000002b0 $x
src/boot/SmartStart64.S:260    .text.startup:00000000000002b8 DisableInterrupts
src/boot/SmartStart64.S:265    .text.startup:00000000000002c0 CoreExecute
src/boot/SmartStart64.S:280    .text.startup:00000000000002f8 CoreExecuteFail
src/boot/SmartStart64.S:284    .text.startup:0000000000000300 $d
src/boot/SmartStart64.S:293    .text.ARMaddrToGPUaddr:0000000000000000 $x
src/boot/SmartStart64.S:301    .text.ARMaddrToGPUaddr:0000000000000000 ARMaddrToGPUaddr
src/boot/SmartStart64.S:312    .text.GPUaddrToARMaddr:0000000000000000 $x
src/boot/SmartStart64.S:320    .text.GPUaddrToARMaddr:0000000000000000 GPUaddrToARMaddr
src/boot/SmartStart64.S:330    .text.GPUaddrToARMaddr:000000000000000c c_irq_handler
src/boot/SmartStart64.S:335    .text.GPUaddrToARMaddr:0000000000000010 c_irq_identify_and_clear_source
src/boot/SmartStart64.S:341    .text.GPUaddrToARMaddr:0000000000000014 irq_handler
src/boot/SmartStart64.S:426    .rodata.cpuid:0000000000000000 $d
src/boot/SmartStart64.S:433    .data.smartstart64:0000000000000000 $d
src/boot/SmartStart64.S:445    .data.smartstart64:000000000000000c RPi_CPUBootMode

UNDEFINED SYMBOLS
__EL2_stack_core0
__EL1_stack_core0
__EL0_stack_core0
__EL2_stack_core1
__EL1_stack_core1
__EL0_stack_core1
__EL2_stack_core2
__EL1_stack_core2
__EL0_stack_core2
__EL2_stack_core3
__EL1_stack_core3
__EL0_stack_core3
__bss_end__
AARCH64 GAS  C:\Users\A01169~1\AppData\Local\Temp\cclmDoLY.s 			page 12


__bss_start__
kernel_main
AARCH64 GAS  C:\Users\A01169~1\AppData\Local\Temp\cclmDoLY.s 			page 1


   1              		.arch armv8-a
   2              		.file	"rpi-SmartStart.c"
   3              		.text
   4              		.align	2
   5              		.p2align 4,,15
   6              		.type	ClearArea16, %function
   7              	ClearArea16:
   8 0000 090840B9 		ldr	w9, [x0, 8]
   9 0004 8400026B 		subs	w4, w4, w2
  10 0008 0A204029 		ldp	w10, w8, [x0]
  11 000c 2B781F53 		lsl	w11, w1, 1
  12 0010 07B84039 		ldrb	w7, [x0, 46]
  13 0014 227D021B 		mul	w2, w9, w2
  14 0018 06B44039 		ldrb	w6, [x0, 45]
  15 001c 05B04039 		ldrb	w5, [x0, 44]
  16 0020 4A8108AA 		orr	x10, x10, x8, lsl 32
  17 0024 4A010B8B 		add	x10, x10, x11
  18 0028 E77C0353 		lsr	w7, w7, 3
  19 002c 42781F53 		lsl	w2, w2, 1
  20 0030 C67C0253 		lsr	w6, w6, 2
  21 0034 A57C0353 		lsr	w5, w5, 3
  22 0038 4A01028B 		add	x10, x10, x2
  23 003c C0070054 		beq	.L1
  24 0040 297D7FD3 		ubfiz	x9, x9, 1, 32
  25 0044 6300016B 		subs	w3, w3, w1
  26 0048 60070054 		beq	.L1
  27 004c 63040051 		sub	w3, w3, #1
  28 0050 EB030AAA 		mov	x11, x10
  29 0054 63040091 		add	x3, x3, 1
  30 0058 08008052 		mov	w8, 0
  31 005c 4305038B 		add	x3, x10, x3, lsl 1
  32 0060 E20303AA 		mov	x2, x3
  33 0064 1F2003D5 		.p2align 3
  34              	.L4:
  35 0068 E0030BAA 		mov	x0, x11
  36 006c 1F2003D5 		.p2align 3
  37              	.L3:
  38 0070 01004039 		ldrb	w1, [x0]
  39 0074 A1100033 		bfi	w1, w5, 0, 5
  40 0078 01240038 		strb	w1, [x0], 2
  41 007c 1F0002EB 		cmp	x0, x2
  42 0080 81FFFF54 		bne	.L3
  43 0084 08050011 		add	w8, w8, 1
  44 0088 6B01098B 		add	x11, x11, x9
  45 008c 1F01046B 		cmp	w8, w4
  46 0090 0200098B 		add	x2, x0, x9
  47 0094 A1FEFF54 		bne	.L4
  48 0098 C8081B53 		ubfiz	w8, w6, 5, 3
  49 009c E50303AA 		mov	x5, x3
  50 00a0 EC030AAA 		mov	x12, x10
  51 00a4 C67C0353 		lsr	w6, w6, 3
  52 00a8 0B008052 		mov	w11, 0
  53 00ac 1F2003D5 		.p2align 3
  54              	.L5:
  55 00b0 E0030CAA 		mov	x0, x12
  56 00b4 1F2003D5 		.p2align 3
  57              	.L7:
AARCH64 GAS  C:\Users\A01169~1\AppData\Local\Temp\cclmDoLY.s 			page 2


  58 00b8 02004039 		ldrb	w2, [x0]
  59 00bc 00080091 		add	x0, x0, 2
  60 00c0 01F05F38 		ldrb	w1, [x0, -1]
  61 00c4 42100012 		and	w2, w2, 31
  62 00c8 21701D12 		and	w1, w1, -8
  63 00cc 4200082A 		orr	w2, w2, w8
  64 00d0 2100062A 		orr	w1, w1, w6
  65 00d4 02E01F38 		strb	w2, [x0, -2]
  66 00d8 01F01F38 		strb	w1, [x0, -1]
  67 00dc 1F0005EB 		cmp	x0, x5
  68 00e0 C1FEFF54 		bne	.L7
  69 00e4 6B050011 		add	w11, w11, 1
  70 00e8 8C01098B 		add	x12, x12, x9
  71 00ec 9F000B6B 		cmp	w4, w11
  72 00f0 0500098B 		add	x5, x0, x9
  73 00f4 E1FDFF54 		bne	.L5
  74 00f8 02008052 		mov	w2, 0
  75 00fc 1F2003D5 		.p2align 3
  76              	.L8:
  77 0100 E0030AAA 		mov	x0, x10
  78 0104 1F2003D5 		.p2align 3
  79              	.L10:
  80 0108 01044039 		ldrb	w1, [x0, 1]
  81 010c 00080091 		add	x0, x0, 2
  82 0110 E1101D33 		bfi	w1, w7, 3, 5
  83 0114 01F01F38 		strb	w1, [x0, -1]
  84 0118 1F0003EB 		cmp	x0, x3
  85 011c 61FFFF54 		bne	.L10
  86 0120 42040011 		add	w2, w2, 1
  87 0124 4A01098B 		add	x10, x10, x9
  88 0128 5F00046B 		cmp	w2, w4
  89 012c 6300098B 		add	x3, x3, x9
  90 0130 81FEFF54 		bne	.L8
  91              	.L1:
  92 0134 C0035FD6 		ret
  93              		.size	ClearArea16, .-ClearArea16
  94              		.align	2
  95 0138 1F2003D5 		.p2align 4,,15
  95      1F2003D5 
  96              		.type	VertLine16, %function
  97              	VertLine16:
  98 0140 04AC4229 		ldp	w4, w11, [x0, 20]
  99 0144 080840B9 		ldr	w8, [x0, 8]
 100 0148 060C4029 		ldp	w6, w3, [x0]
 101 014c 8400040B 		add	w4, w4, w4
 102 0150 0A984039 		ldrb	w10, [x0, 38]
 103 0154 657D081B 		mul	w5, w11, w8
 104 0158 0C944039 		ldrb	w12, [x0, 37]
 105 015c 07904039 		ldrb	w7, [x0, 36]
 106 0160 C38003AA 		orr	x3, x6, x3, lsl 32
 107 0164 63C0248B 		add	x3, x3, x4, sxtw
 108 0168 4A7D0353 		lsr	w10, w10, 3
 109 016c A5781F53 		lsl	w5, w5, 1
 110 0170 8C7D0253 		lsr	w12, w12, 2
 111 0174 E77C0353 		lsr	w7, w7, 3
 112 0178 6300058B 		add	x3, x3, x5
 113 017c 41050034 		cbz	w1, .L34
AARCH64 GAS  C:\Users\A01169~1\AppData\Local\Temp\cclmDoLY.s 			page 3


 114 0180 087D7FD3 		ubfiz	x8, x8, 1, 32
 115 0184 E40303AA 		mov	x4, x3
 116 0188 5F040071 		cmp	w2, 1
 117 018c E90308CB 		neg	x9, x8
 118 0190 00050054 		beq	.L35
 119 0194 08008052 		mov	w8, 0
 120 0198 02000014 		b	.L28
 121              		.p2align 2
 122              	.L36:
 123 019c E803062A 		mov	w8, w6
 124              	.L28:
 125 01a0 85004039 		ldrb	w5, [x4]
 126 01a4 06050011 		add	w6, w8, 1
 127 01a8 3F00066B 		cmp	w1, w6
 128 01ac E5100033 		bfi	w5, w7, 0, 5
 129 01b0 85000039 		strb	w5, [x4]
 130 01b4 8400098B 		add	x4, x4, x9
 131 01b8 21FFFF54 		bne	.L36
 132 01bc 8D091B53 		ubfiz	w13, w12, 5, 3
 133 01c0 E40303AA 		mov	x4, x3
 134 01c4 8C7D0353 		lsr	w12, w12, 3
 135 01c8 07008052 		mov	w7, 0
 136 01cc 1F2003D5 		.p2align 3
 137              	.L29:
 138 01d0 86004039 		ldrb	w6, [x4]
 139 01d4 1F01076B 		cmp	w8, w7
 140 01d8 85044039 		ldrb	w5, [x4, 1]
 141 01dc E7040011 		add	w7, w7, 1
 142 01e0 C6100012 		and	w6, w6, 31
 143 01e4 A5701D12 		and	w5, w5, -8
 144 01e8 C6000D2A 		orr	w6, w6, w13
 145 01ec A5000C2A 		orr	w5, w5, w12
 146 01f0 86000039 		strb	w6, [x4]
 147 01f4 85040039 		strb	w5, [x4, 1]
 148 01f8 8400098B 		add	x4, x4, x9
 149 01fc A1FEFF54 		bne	.L29
 150 0200 04008052 		mov	w4, 0
 151 0204 1F2003D5 		.p2align 3
 152              	.L30:
 153 0208 65044039 		ldrb	w5, [x3, 1]
 154 020c 9F00086B 		cmp	w4, w8
 155 0210 84040011 		add	w4, w4, 1
 156 0214 45111D33 		bfi	w5, w10, 3, 5
 157 0218 65040039 		strb	w5, [x3, 1]
 158 021c 6300098B 		add	x3, x3, x9
 159 0220 41FFFF54 		bne	.L30
 160              	.L34:
 161 0224 412C011B 		madd	w1, w2, w1, w11
 162 0228 011800B9 		str	w1, [x0, 24]
 163 022c C0035FD6 		ret
 164              		.p2align 2
 165              	.L35:
 166 0230 09008052 		mov	w9, 0
 167 0234 02000014 		b	.L27
 168              		.p2align 2
 169              	.L39:
 170 0238 E903062A 		mov	w9, w6
AARCH64 GAS  C:\Users\A01169~1\AppData\Local\Temp\cclmDoLY.s 			page 4


 171              	.L27:
 172 023c 85004039 		ldrb	w5, [x4]
 173 0240 26050011 		add	w6, w9, 1
 174 0244 3F00066B 		cmp	w1, w6
 175 0248 E5100033 		bfi	w5, w7, 0, 5
 176 024c 85000039 		strb	w5, [x4]
 177 0250 8400088B 		add	x4, x4, x8
 178 0254 21FFFF54 		bne	.L39
 179 0258 8D091B53 		ubfiz	w13, w12, 5, 3
 180 025c E40303AA 		mov	x4, x3
 181 0260 8C7D0353 		lsr	w12, w12, 3
 182 0264 07008052 		mov	w7, 0
 183              		.p2align 3
 184              	.L32:
 185 0268 86004039 		ldrb	w6, [x4]
 186 026c 3F01076B 		cmp	w9, w7
 187 0270 85044039 		ldrb	w5, [x4, 1]
 188 0274 E7040011 		add	w7, w7, 1
 189 0278 C6100012 		and	w6, w6, 31
 190 027c A5701D12 		and	w5, w5, -8
 191 0280 C6000D2A 		orr	w6, w6, w13
 192 0284 A5000C2A 		orr	w5, w5, w12
 193 0288 86000039 		strb	w6, [x4]
 194 028c 85040039 		strb	w5, [x4, 1]
 195 0290 8400088B 		add	x4, x4, x8
 196 0294 A1FEFF54 		bne	.L32
 197 0298 04008052 		mov	w4, 0
 198 029c 1F2003D5 		.p2align 3
 199              	.L33:
 200 02a0 65044039 		ldrb	w5, [x3, 1]
 201 02a4 9F00096B 		cmp	w4, w9
 202 02a8 84040011 		add	w4, w4, 1
 203 02ac 45111D33 		bfi	w5, w10, 3, 5
 204 02b0 65040039 		strb	w5, [x3, 1]
 205 02b4 6300088B 		add	x3, x3, x8
 206 02b8 41FFFF54 		bne	.L33
 207 02bc 412C011B 		madd	w1, w2, w1, w11
 208 02c0 011800B9 		str	w1, [x0, 24]
 209 02c4 C0035FD6 		ret
 210              		.size	VertLine16, .-VertLine16
 211              		.align	2
 212 02c8 1F2003D5 		.p2align 4,,15
 212      1F2003D5 
 213              		.type	HorzLine16, %function
 214              	HorzLine16:
 215 02d0 030840B9 		ldr	w3, [x0, 8]
 216 02d4 0C9C4229 		ldp	w12, w7, [x0, 20]
 217 02d8 05104029 		ldp	w5, w4, [x0]
 218 02dc E77C031B 		mul	w7, w7, w3
 219 02e0 0B984039 		ldrb	w11, [x0, 38]
 220 02e4 0A944039 		ldrb	w10, [x0, 37]
 221 02e8 83010C0B 		add	w3, w12, w12
 222 02ec 06904039 		ldrb	w6, [x0, 36]
 223 02f0 A48004AA 		orr	x4, x5, x4, lsl 32
 224 02f4 E7781F53 		lsl	w7, w7, 1
 225 02f8 83C0238B 		add	x3, x4, x3, sxtw
 226 02fc 6B7D0353 		lsr	w11, w11, 3
AARCH64 GAS  C:\Users\A01169~1\AppData\Local\Temp\cclmDoLY.s 			page 5


 227 0300 4A7D0253 		lsr	w10, w10, 2
 228 0304 C67C0353 		lsr	w6, w6, 3
 229 0308 E700038B 		add	x7, x7, x3
 230 030c C1040034 		cbz	w1, .L44
 231 0310 497C7F93 		sbfiz	x9, x2, 1, 32
 232 0314 E30307AA 		mov	x3, x7
 233 0318 08008052 		mov	w8, 0
 234 031c 02000014 		b	.L45
 235              		.p2align 2
 236              	.L48:
 237 0320 E803052A 		mov	w8, w5
 238              	.L45:
 239 0324 64004039 		ldrb	w4, [x3]
 240 0328 05050011 		add	w5, w8, 1
 241 032c 3F00056B 		cmp	w1, w5
 242 0330 C4100033 		bfi	w4, w6, 0, 5
 243 0334 64000039 		strb	w4, [x3]
 244 0338 6300098B 		add	x3, x3, x9
 245 033c 21FFFF54 		bne	.L48
 246 0340 4D091B53 		ubfiz	w13, w10, 5, 3
 247 0344 E30307AA 		mov	x3, x7
 248 0348 4A7D0353 		lsr	w10, w10, 3
 249 034c 06008052 		mov	w6, 0
 250              		.p2align 3
 251              	.L46:
 252 0350 65004039 		ldrb	w5, [x3]
 253 0354 1F01066B 		cmp	w8, w6
 254 0358 64044039 		ldrb	w4, [x3, 1]
 255 035c C6040011 		add	w6, w6, 1
 256 0360 A5100012 		and	w5, w5, 31
 257 0364 84701D12 		and	w4, w4, -8
 258 0368 A5000D2A 		orr	w5, w5, w13
 259 036c 84000A2A 		orr	w4, w4, w10
 260 0370 65000039 		strb	w5, [x3]
 261 0374 64040039 		strb	w4, [x3, 1]
 262 0378 6300098B 		add	x3, x3, x9
 263 037c A1FEFF54 		bne	.L46
 264 0380 03008052 		mov	w3, 0
 265 0384 1F2003D5 		.p2align 3
 266              	.L47:
 267 0388 E4044039 		ldrb	w4, [x7, 1]
 268 038c 1F01036B 		cmp	w8, w3
 269 0390 63040011 		add	w3, w3, 1
 270 0394 64111D33 		bfi	w4, w11, 3, 5
 271 0398 E4040039 		strb	w4, [x7, 1]
 272 039c E700098B 		add	x7, x7, x9
 273 03a0 41FFFF54 		bne	.L47
 274              	.L44:
 275 03a4 4130011B 		madd	w1, w2, w1, w12
 276 03a8 011400B9 		str	w1, [x0, 20]
 277 03ac C0035FD6 		ret
 278              		.size	HorzLine16, .-HorzLine16
 279              		.align	2
 280              		.p2align 4,,15
 281              		.type	DiagLine16, %function
 282              	DiagLine16:
 283 03b0 10C44229 		ldp	w16, w17, [x0, 20]
AARCH64 GAS  C:\Users\A01169~1\AppData\Local\Temp\cclmDoLY.s 			page 6


 284 03b4 3F00026B 		cmp	w1, w2
 285 03b8 0D0840B9 		ldr	w13, [x0, 8]
 286 03bc 2290821A 		csel	w2, w1, w2, ls
 287 03c0 081C4029 		ldp	w8, w7, [x0]
 288 03c4 0602100B 		add	w6, w16, w16
 289 03c8 0B984039 		ldrb	w11, [x0, 38]
 290 03cc 257E0D1B 		mul	w5, w17, w13
 291 03d0 0A944039 		ldrb	w10, [x0, 37]
 292 03d4 0C904039 		ldrb	w12, [x0, 36]
 293 03d8 078107AA 		orr	x7, x8, x7, lsl 32
 294 03dc E6C0268B 		add	x6, x7, x6, sxtw
 295 03e0 6B7D0353 		lsr	w11, w11, 3
 296 03e4 A5781F53 		lsl	w5, w5, 1
 297 03e8 4A7D0253 		lsr	w10, w10, 2
 298 03ec 8C7D0353 		lsr	w12, w12, 3
 299 03f0 C600058B 		add	x6, x6, x5
 300 03f4 21030034 		cbz	w1, .L58
 301 03f8 AD7D041B 		mul	w13, w13, w4
 302 03fc 4E091B53 		ubfiz	w14, w10, 5, 3
 303 0400 6F7C7F93 		sbfiz	x15, x3, 1, 32
 304 0404 4A7D0353 		lsr	w10, w10, 3
 305 0408 AD010D8B 		add	x13, x13, x13
 306 040c 08008052 		mov	w8, 0
 307 0410 07008052 		mov	w7, 0
 308 0414 1F2003D5 		.p2align 3
 309              	.L57:
 310 0418 C5044039 		ldrb	w5, [x6, 1]
 311 041c 89010E2A 		orr	w9, w12, w14
 312 0420 C9000039 		strb	w9, [x6]
 313 0424 E700020B 		add	w7, w7, w2
 314 0428 A5701D12 		and	w5, w5, -8
 315 042c 08050011 		add	w8, w8, 1
 316 0430 A5000A2A 		orr	w5, w5, w10
 317 0434 3F00076B 		cmp	w1, w7
 318 0438 65111D33 		bfi	w5, w11, 3, 5
 319 043c C5040039 		strb	w5, [x6, 1]
 320 0440 C6000F8B 		add	x6, x6, x15
 321 0444 68000054 		bhi	.L56
 322 0448 E700014B 		sub	w7, w7, w1
 323 044c C6000D8B 		add	x6, x6, x13
 324              	.L56:
 325 0450 3F00086B 		cmp	w1, w8
 326 0454 21FEFF54 		bne	.L57
 327              	.L58:
 328 0458 6140011B 		madd	w1, w3, w1, w16
 329 045c 8244021B 		madd	w2, w4, w2, w17
 330 0460 01880229 		stp	w1, w2, [x0, 20]
 331 0464 C0035FD6 		ret
 332              		.size	DiagLine16, .-DiagLine16
 333              		.align	2
 334 0468 1F2003D5 		.p2align 4,,15
 334      1F2003D5 
 335              		.type	WriteChar16, %function
 336              	WriteChar16:
 337 0470 020840B9 		ldr	w2, [x0, 8]
 338 0474 211C1E53 		ubfiz	w1, w1, 2, 8
 339 0478 F37BBFA9 		stp	x19, x30, [sp, -16]!
AARCH64 GAS  C:\Users\A01169~1\AppData\Local\Temp\cclmDoLY.s 			page 7


 340 047c 12000090 		adrp	x18, BitFont
 341 0480 52020091 		add	x18, x18, :lo12:BitFont
 342 0484 1E8C4229 		ldp	w30, w3, [x0, 20]
 343 0488 4E7C7FD3 		ubfiz	x14, x2, 1, 32
 344 048c 05104029 		ldp	w5, w4, [x0]
 345 0490 33100011 		add	w19, w1, 4
 346 0494 437C031B 		mul	w3, w2, w3
 347 0498 11984039 		ldrb	w17, [x0, 38]
 348 049c 10944039 		ldrb	w16, [x0, 37]
 349 04a0 C2031E0B 		add	w2, w30, w30
 350 04a4 0F904039 		ldrb	w15, [x0, 36]
 351 04a8 A48004AA 		orr	x4, x5, x4, lsl 32
 352 04ac 0DA84039 		ldrb	w13, [x0, 42]
 353 04b0 63781F53 		lsl	w3, w3, 1
 354 04b4 0CA44039 		ldrb	w12, [x0, 41]
 355 04b8 82C0228B 		add	x2, x4, x2, sxtw
 356 04bc 0BA04039 		ldrb	w11, [x0, 40]
 357 04c0 317E0353 		lsr	w17, w17, 3
 358 04c4 107E0253 		lsr	w16, w16, 2
 359 04c8 EF7D0353 		lsr	w15, w15, 3
 360 04cc AD7D0353 		lsr	w13, w13, 3
 361 04d0 8C7D0253 		lsr	w12, w12, 2
 362 04d4 6B7D0353 		lsr	w11, w11, 3
 363 04d8 6300028B 		add	x3, x3, x2
 364              	.L65:
 365 04dc 465A61B8 		ldr	w6, [x18, w1, uxtw 2]
 366 04e0 05008052 		mov	w5, 0
 367 04e4 1F2003D5 		.p2align 3
 368              	.L64:
 369 04e8 E2030C2A 		mov	w2, w12
 370 04ec EA030D2A 		mov	w10, w13
 371 04f0 E4030B2A 		mov	w4, w11
 372 04f4 A9080012 		and	w9, w5, 7
 373 04f8 8600F836 		tbz	w6, #31, .L62
 374 04fc EA03112A 		mov	w10, w17
 375 0500 E203102A 		mov	w2, w16
 376 0504 E4030F2A 		mov	w4, w15
 377              	.L62:
 378 0508 28097FD3 		ubfiz	x8, x9, 1, 3
 379 050c 8414022A 		orr	w4, w4, w2, lsl 5
 380 0510 6700088B 		add	x7, x3, x8
 381 0514 3F1D0071 		cmp	w9, 7
 382 0518 A5040011 		add	w5, w5, 1
 383 051c 69000E8B 		add	x9, x3, x14
 384 0520 64682838 		strb	w4, [x3, x8]
 385 0524 C600060B 		add	w6, w6, w6
 386 0528 2301839A 		csel	x3, x9, x3, eq
 387 052c BF800071 		cmp	w5, 32
 388 0530 E4044039 		ldrb	w4, [x7, 1]
 389 0534 84701D12 		and	w4, w4, -8
 390 0538 820C422A 		orr	w2, w4, w2, lsr 3
 391 053c 42111D33 		bfi	w2, w10, 3, 5
 392 0540 E2040039 		strb	w2, [x7, 1]
 393 0544 21FDFF54 		bne	.L64
 394 0548 21040011 		add	w1, w1, 1
 395 054c 3F00136B 		cmp	w1, w19
 396 0550 61FCFF54 		bne	.L65
AARCH64 GAS  C:\Users\A01169~1\AppData\Local\Temp\cclmDoLY.s 			page 8


 397 0554 DE230011 		add	w30, w30, 8
 398 0558 1E1400B9 		str	w30, [x0, 20]
 399 055c F37BC1A8 		ldp	x19, x30, [sp], 16
 400 0560 C0035FD6 		ret
 401              		.size	WriteChar16, .-WriteChar16
 402              		.align	2
 403 0564 1F2003D5 		.p2align 4,,15
 403      1F2003D5 
 403      1F2003D5 
 404              		.type	PutImage16, %function
 405              	PutImage16:
 406 0570 0A0840B9 		ldr	w10, [x0, 8]
 407 0574 FF4300D1 		sub	sp, sp, #16
 408 0578 051840B9 		ldr	w5, [x0, 24]
 409 057c 07184029 		ldp	w7, w6, [x0]
 410 0580 001440B9 		ldr	w0, [x0, 20]
 411 0584 457D051B 		mul	w5, w10, w5
 412 0588 E30700F9 		str	x3, [sp, 8]
 413 058c 0000000B 		add	w0, w0, w0
 414 0590 E78006AA 		orr	x7, x7, x6, lsl 32
 415 0594 A6781F53 		lsl	w6, w5, 1
 416 0598 E5C0208B 		add	x5, x7, x0, sxtw
 417 059c A500068B 		add	x5, x5, x6
 418 05a0 A2030034 		cbz	w2, .L70
 419 05a4 4A7D7FD3 		ubfiz	x10, x10, 1, 32
 420 05a8 EB030ACB 		neg	x11, x10
 421 05ac 41030034 		cbz	w1, .L70
 422 05b0 28040051 		sub	w8, w1, #1
 423 05b4 841C0012 		and	w4, w4, 255
 424 05b8 08050091 		add	x8, x8, 1
 425 05bc 09008052 		mov	w9, 0
 426 05c0 0801088B 		add	x8, x8, x8
 427 05c4 1F2003D5 		.p2align 3
 428              	.L73:
 429 05c8 000080D2 		mov	x0, 0
 430 05cc 1F2003D5 		.p2align 3
 431              	.L74:
 432 05d0 67686038 		ldrb	w7, [x3, x0]
 433 05d4 6600008B 		add	x6, x3, x0
 434 05d8 A100008B 		add	x1, x5, x0
 435 05dc A7682038 		strb	w7, [x5, x0]
 436 05e0 00080091 		add	x0, x0, 2
 437 05e4 C6044039 		ldrb	w6, [x6, 1]
 438 05e8 1F0100EB 		cmp	x8, x0
 439 05ec 26040039 		strb	w6, [x1, 1]
 440 05f0 01FFFF54 		bne	.L74
 441 05f4 9F000071 		cmp	w4, 0
 442 05f8 A0000B8B 		add	x0, x5, x11
 443 05fc 29050011 		add	w9, w9, 1
 444 0600 A5000A8B 		add	x5, x5, x10
 445 0604 A500809A 		csel	x5, x5, x0, eq
 446 0608 6300088B 		add	x3, x3, x8
 447 060c 5F00096B 		cmp	w2, w9
 448 0610 C1FDFF54 		bne	.L73
 449              	.L70:
 450 0614 FF430091 		add	sp, sp, 16
 451 0618 C0035FD6 		ret
AARCH64 GAS  C:\Users\A01169~1\AppData\Local\Temp\cclmDoLY.s 			page 9


 452              		.size	PutImage16, .-PutImage16
 453              		.align	2
 454 061c 1F2003D5 		.p2align 4,,15
 455              		.type	ClearArea24, %function
 456              	ClearArea24:
 457 0620 070840B9 		ldr	w7, [x0, 8]
 458 0624 8400026B 		subs	w4, w4, w2
 459 0628 08144029 		ldp	w8, w5, [x0]
 460 062c 2604010B 		add	w6, w1, w1, lsl 1
 461 0630 E27C021B 		mul	w2, w7, w2
 462 0634 058105AA 		orr	x5, x8, x5, lsl 32
 463 0638 A500068B 		add	x5, x5, x6
 464 063c 4204020B 		add	w2, w2, w2, lsl 1
 465 0640 A500028B 		add	x5, x5, x2
 466 0644 60030054 		beq	.L86
 467 0648 62008052 		mov	w2, 3
 468 064c 6300016B 		subs	w3, w3, w1
 469 0650 E77CA29B 		umull	x7, w7, w2
 470 0654 E0020054 		beq	.L86
 471 0658 63040051 		sub	w3, w3, #1
 472 065c 01B00091 		add	x1, x0, 44
 473 0660 60040091 		add	x0, x3, 1
 474 0664 06008052 		mov	w6, 0
 475 0668 0004008B 		add	x0, x0, x0, lsl 1
 476 066c 0300058B 		add	x3, x0, x5
 477              		.p2align 3
 478              	.L88:
 479 0670 E00305AA 		mov	x0, x5
 480 0674 1F2003D5 		.p2align 3
 481              	.L89:
 482 0678 22004039 		ldrb	w2, [x1]
 483 067c 000C0091 		add	x0, x0, 3
 484 0680 02D01F38 		strb	w2, [x0, -3]
 485 0684 22044039 		ldrb	w2, [x1, 1]
 486 0688 02E01F38 		strb	w2, [x0, -2]
 487 068c 22084039 		ldrb	w2, [x1, 2]
 488 0690 02F01F38 		strb	w2, [x0, -1]
 489 0694 7F0000EB 		cmp	x3, x0
 490 0698 01FFFF54 		bne	.L89
 491 069c C6040011 		add	w6, w6, 1
 492 06a0 A500078B 		add	x5, x5, x7
 493 06a4 DF00046B 		cmp	w6, w4
 494 06a8 6300078B 		add	x3, x3, x7
 495 06ac 21FEFF54 		bne	.L88
 496              	.L86:
 497 06b0 C0035FD6 		ret
 498              		.size	ClearArea24, .-ClearArea24
 499              		.align	2
 500 06b4 1F2003D5 		.p2align 4,,15
 500      1F2003D5 
 500      1F2003D5 
 501              		.type	VertLine24, %function
 502              	VertLine24:
 503 06c0 04A04229 		ldp	w4, w8, [x0, 20]
 504 06c4 060840B9 		ldr	w6, [x0, 8]
 505 06c8 070C4029 		ldp	w7, w3, [x0]
 506 06cc 8404040B 		add	w4, w4, w4, lsl 1
AARCH64 GAS  C:\Users\A01169~1\AppData\Local\Temp\cclmDoLY.s 			page 10


 507 06d0 057D061B 		mul	w5, w8, w6
 508 06d4 E38003AA 		orr	x3, x7, x3, lsl 32
 509 06d8 63C0248B 		add	x3, x3, x4, sxtw
 510 06dc A504050B 		add	w5, w5, w5, lsl 1
 511 06e0 6300058B 		add	x3, x3, x5
 512 06e4 61020034 		cbz	w1, .L102
 513 06e8 64008052 		mov	w4, 3
 514 06ec 5F040071 		cmp	w2, 1
 515 06f0 05008052 		mov	w5, 0
 516 06f4 C67CA49B 		umull	x6, w6, w4
 517 06f8 04900091 		add	x4, x0, 36
 518 06fc E70306CB 		neg	x7, x6
 519 0700 E0010054 		beq	.L99
 520 0704 1F2003D5 		.p2align 3
 521              	.L100:
 522 0708 86004039 		ldrb	w6, [x4]
 523 070c A5040011 		add	w5, w5, 1
 524 0710 66000039 		strb	w6, [x3]
 525 0714 3F00056B 		cmp	w1, w5
 526 0718 86044039 		ldrb	w6, [x4, 1]
 527 071c 66040039 		strb	w6, [x3, 1]
 528 0720 86084039 		ldrb	w6, [x4, 2]
 529 0724 66080039 		strb	w6, [x3, 2]
 530 0728 6300078B 		add	x3, x3, x7
 531 072c E1FEFF54 		bne	.L100
 532              	.L102:
 533 0730 4120011B 		madd	w1, w2, w1, w8
 534 0734 011800B9 		str	w1, [x0, 24]
 535 0738 C0035FD6 		ret
 536              		.p2align 2
 537              	.L99:
 538 073c 87004039 		ldrb	w7, [x4]
 539 0740 A5040011 		add	w5, w5, 1
 540 0744 67000039 		strb	w7, [x3]
 541 0748 3F00056B 		cmp	w1, w5
 542 074c 87044039 		ldrb	w7, [x4, 1]
 543 0750 67040039 		strb	w7, [x3, 1]
 544 0754 87084039 		ldrb	w7, [x4, 2]
 545 0758 67080039 		strb	w7, [x3, 2]
 546 075c 6300068B 		add	x3, x3, x6
 547 0760 E1FEFF54 		bne	.L99
 548 0764 F3FFFF17 		b	.L102
 549              		.size	VertLine24, .-VertLine24
 550              		.align	2
 551 0768 1F2003D5 		.p2align 4,,15
 551      1F2003D5 
 552              		.type	HorzLine24, %function
 553              	HorzLine24:
 554 0770 040840B9 		ldr	w4, [x0, 8]
 555 0774 088C4229 		ldp	w8, w3, [x0, 20]
 556 0778 06144029 		ldp	w6, w5, [x0]
 557 077c 637C041B 		mul	w3, w3, w4
 558 0780 0405080B 		add	w4, w8, w8, lsl 1
 559 0784 C58005AA 		orr	x5, x6, x5, lsl 32
 560 0788 6304030B 		add	w3, w3, w3, lsl 1
 561 078c A4C0248B 		add	x4, x5, x4, sxtw
 562 0790 6300048B 		add	x3, x3, x4
AARCH64 GAS  C:\Users\A01169~1\AppData\Local\Temp\cclmDoLY.s 			page 11


 563 0794 E1010034 		cbz	w1, .L108
 564 0798 67008052 		mov	w7, 3
 565 079c 05900091 		add	x5, x0, 36
 566 07a0 04008052 		mov	w4, 0
 567 07a4 477C279B 		smull	x7, w2, w7
 568              		.p2align 3
 569              	.L109:
 570 07a8 A6004039 		ldrb	w6, [x5]
 571 07ac 84040011 		add	w4, w4, 1
 572 07b0 66000039 		strb	w6, [x3]
 573 07b4 3F00046B 		cmp	w1, w4
 574 07b8 A6044039 		ldrb	w6, [x5, 1]
 575 07bc 66040039 		strb	w6, [x3, 1]
 576 07c0 A6084039 		ldrb	w6, [x5, 2]
 577 07c4 66080039 		strb	w6, [x3, 2]
 578 07c8 6300078B 		add	x3, x3, x7
 579 07cc E1FEFF54 		bne	.L109
 580              	.L108:
 581 07d0 4120011B 		madd	w1, w2, w1, w8
 582 07d4 011400B9 		str	w1, [x0, 20]
 583 07d8 C0035FD6 		ret
 584              		.size	HorzLine24, .-HorzLine24
 585              		.align	2
 586 07dc 1F2003D5 		.p2align 4,,15
 587              		.type	DiagLine24, %function
 588              	DiagLine24:
 589 07e0 0CB44229 		ldp	w12, w13, [x0, 20]
 590 07e4 3F00026B 		cmp	w1, w2
 591 07e8 0A0840B9 		ldr	w10, [x0, 8]
 592 07ec 2290821A 		csel	w2, w1, w2, ls
 593 07f0 081C4029 		ldp	w8, w7, [x0]
 594 07f4 85050C0B 		add	w5, w12, w12, lsl 1
 595 07f8 A67D0A1B 		mul	w6, w13, w10
 596 07fc 078107AA 		orr	x7, x8, x7, lsl 32
 597 0800 E5C0258B 		add	x5, x7, x5, sxtw
 598 0804 C604060B 		add	w6, w6, w6, lsl 1
 599 0808 A500068B 		add	x5, x5, x6
 600 080c 01030034 		cbz	w1, .L118
 601 0810 4A7D041B 		mul	w10, w10, w4
 602 0814 69008052 		mov	w9, 3
 603 0818 08900091 		add	x8, x0, 36
 604 081c 07008052 		mov	w7, 0
 605 0820 6B7C299B 		smull	x11, w3, w9
 606 0824 06008052 		mov	w6, 0
 607 0828 4A7DA99B 		umull	x10, w10, w9
 608 082c 1F2003D5 		.p2align 3
 609              	.L117:
 610 0830 09014039 		ldrb	w9, [x8]
 611 0834 C600020B 		add	w6, w6, w2
 612 0838 A9000039 		strb	w9, [x5]
 613 083c E7040011 		add	w7, w7, 1
 614 0840 3F00066B 		cmp	w1, w6
 615 0844 09054039 		ldrb	w9, [x8, 1]
 616 0848 A9040039 		strb	w9, [x5, 1]
 617 084c 09094039 		ldrb	w9, [x8, 2]
 618 0850 A9080039 		strb	w9, [x5, 2]
 619 0854 A5000B8B 		add	x5, x5, x11
AARCH64 GAS  C:\Users\A01169~1\AppData\Local\Temp\cclmDoLY.s 			page 12


 620 0858 68000054 		bhi	.L116
 621 085c C600014B 		sub	w6, w6, w1
 622 0860 A5000A8B 		add	x5, x5, x10
 623              	.L116:
 624 0864 3F00076B 		cmp	w1, w7
 625 0868 41FEFF54 		bne	.L117
 626              	.L118:
 627 086c 6130011B 		madd	w1, w3, w1, w12
 628 0870 8234021B 		madd	w2, w4, w2, w13
 629 0874 01880229 		stp	w1, w2, [x0, 20]
 630 0878 C0035FD6 		ret
 631              		.size	DiagLine24, .-DiagLine24
 632              		.align	2
 633 087c 1F2003D5 		.p2align 4,,15
 634              		.type	WriteChar24, %function
 635              	WriteChar24:
 636 0880 020840B9 		ldr	w2, [x0, 8]
 637 0884 6B008052 		mov	w11, 3
 638 0888 0E8C4229 		ldp	w14, w3, [x0, 20]
 639 088c EC030B2A 		mov	w12, w11
 640 0890 05104029 		ldp	w5, w4, [x0]
 641 0894 4B7CAB9B 		umull	x11, w2, w11
 642 0898 427C031B 		mul	w2, w2, w3
 643 089c C3050E0B 		add	w3, w14, w14, lsl 1
 644 08a0 211C1E53 		ubfiz	w1, w1, 2, 8
 645 08a4 0D000090 		adrp	x13, BitFont
 646 08a8 AD010091 		add	x13, x13, :lo12:BitFont
 647 08ac A48004AA 		orr	x4, x5, x4, lsl 32
 648 08b0 4204020B 		add	w2, w2, w2, lsl 1
 649 08b4 83C0238B 		add	x3, x4, x3, sxtw
 650 08b8 2F100011 		add	w15, w1, 4
 651 08bc 4200038B 		add	x2, x2, x3
 652              	.L125:
 653 08c0 A45961B8 		ldr	w4, [x13, w1, uxtw 2]
 654 08c4 03008052 		mov	w3, 0
 655              		.p2align 3
 656              	.L124:
 657 08c8 65080012 		and	w5, w3, 7
 658 08cc 4A000B8B 		add	x10, x2, x11
 659 08d0 09A04039 		ldrb	w9, [x0, 40]
 660 08d4 63040011 		add	w3, w3, 1
 661 08d8 08A44039 		ldrb	w8, [x0, 41]
 662 08dc 07A84039 		ldrb	w7, [x0, 42]
 663 08e0 8400F836 		tbz	w4, #31, .L122
 664 08e4 09904039 		ldrb	w9, [x0, 36]
 665 08e8 08944039 		ldrb	w8, [x0, 37]
 666 08ec 07984039 		ldrb	w7, [x0, 38]
 667              	.L122:
 668 08f0 A67C2C9B 		smull	x6, w5, w12
 669 08f4 BF1C0071 		cmp	w5, 7
 670 08f8 8400040B 		add	w4, w4, w4
 671 08fc 4500068B 		add	x5, x2, x6
 672 0900 49682638 		strb	w9, [x2, x6]
 673 0904 4201829A 		csel	x2, x10, x2, eq
 674 0908 A8040039 		strb	w8, [x5, 1]
 675 090c 7F800071 		cmp	w3, 32
 676 0910 A7080039 		strb	w7, [x5, 2]
AARCH64 GAS  C:\Users\A01169~1\AppData\Local\Temp\cclmDoLY.s 			page 13


 677 0914 A1FDFF54 		bne	.L124
 678 0918 21040011 		add	w1, w1, 1
 679 091c 3F000F6B 		cmp	w1, w15
 680 0920 01FDFF54 		bne	.L125
 681 0924 CE210011 		add	w14, w14, 8
 682 0928 0E1400B9 		str	w14, [x0, 20]
 683 092c C0035FD6 		ret
 684              		.size	WriteChar24, .-WriteChar24
 685              		.align	2
 686              		.p2align 4,,15
 687              		.type	PutImage24, %function
 688              	PutImage24:
 689 0930 05984229 		ldp	w5, w6, [x0, 20]
 690 0934 FF4300D1 		sub	sp, sp, #16
 691 0938 0A0840B9 		ldr	w10, [x0, 8]
 692 093c 081C4029 		ldp	w8, w7, [x0]
 693 0940 A504050B 		add	w5, w5, w5, lsl 1
 694 0944 E30700F9 		str	x3, [sp, 8]
 695 0948 407D061B 		mul	w0, w10, w6
 696 094c 068107AA 		orr	x6, x8, x7, lsl 32
 697 0950 C6C0258B 		add	x6, x6, x5, sxtw
 698 0954 0004000B 		add	w0, w0, w0, lsl 1
 699 0958 C600008B 		add	x6, x6, x0
 700 095c 02040034 		cbz	w2, .L128
 701 0960 60008052 		mov	w0, 3
 702 0964 4A7DA09B 		umull	x10, w10, w0
 703 0968 EB030ACB 		neg	x11, x10
 704 096c 81030034 		cbz	w1, .L128
 705 0970 28040051 		sub	w8, w1, #1
 706 0974 841C0012 		and	w4, w4, 255
 707 0978 08050091 		add	x8, x8, 1
 708 097c 09008052 		mov	w9, 0
 709 0980 0805088B 		add	x8, x8, x8, lsl 1
 710 0984 1F2003D5 		.p2align 3
 711              	.L131:
 712 0988 000080D2 		mov	x0, 0
 713 098c 1F2003D5 		.p2align 3
 714              	.L132:
 715 0990 67686038 		ldrb	w7, [x3, x0]
 716 0994 6500008B 		add	x5, x3, x0
 717 0998 C100008B 		add	x1, x6, x0
 718 099c C7682038 		strb	w7, [x6, x0]
 719 09a0 000C0091 		add	x0, x0, 3
 720 09a4 A7044039 		ldrb	w7, [x5, 1]
 721 09a8 1F0100EB 		cmp	x8, x0
 722 09ac 27040039 		strb	w7, [x1, 1]
 723 09b0 A5084039 		ldrb	w5, [x5, 2]
 724 09b4 25080039 		strb	w5, [x1, 2]
 725 09b8 C1FEFF54 		bne	.L132
 726 09bc 9F000071 		cmp	w4, 0
 727 09c0 C0000B8B 		add	x0, x6, x11
 728 09c4 29050011 		add	w9, w9, 1
 729 09c8 C6000A8B 		add	x6, x6, x10
 730 09cc C600809A 		csel	x6, x6, x0, eq
 731 09d0 6300088B 		add	x3, x3, x8
 732 09d4 5F00096B 		cmp	w2, w9
 733 09d8 81FDFF54 		bne	.L131
AARCH64 GAS  C:\Users\A01169~1\AppData\Local\Temp\cclmDoLY.s 			page 14


 734              	.L128:
 735 09dc FF430091 		add	sp, sp, 16
 736 09e0 C0035FD6 		ret
 737              		.size	PutImage24, .-PutImage24
 738              		.align	2
 739 09e4 1F2003D5 		.p2align 4,,15
 739      1F2003D5 
 739      1F2003D5 
 740              		.type	ClearArea32, %function
 741              	ClearArea32:
 742 09f0 060840B9 		ldr	w6, [x0, 8]
 743 09f4 8400026B 		subs	w4, w4, w2
 744 09f8 07144029 		ldp	w7, w5, [x0]
 745 09fc 42741E53 		lsl	w2, w2, 2
 746 0a00 467C061B 		mul	w6, w2, w6
 747 0a04 E58005AA 		orr	x5, x7, x5, lsl 32
 748 0a08 A240228B 		add	x2, x5, x2, uxtw
 749 0a0c 4640268B 		add	x6, x2, x6, uxtw
 750 0a10 60020054 		beq	.L144
 751 0a14 6300016B 		subs	w3, w3, w1
 752 0a18 20020054 		beq	.L144
 753 0a1c 63040051 		sub	w3, w3, #1
 754 0a20 05B00091 		add	x5, x0, 44
 755 0a24 68040091 		add	x8, x3, 1
 756 0a28 07008052 		mov	w7, 0
 757 0a2c 08F57ED3 		lsl	x8, x8, 2
 758              		.p2align 3
 759              	.L147:
 760 0a30 E10306AA 		mov	x1, x6
 761 0a34 0301068B 		add	x3, x8, x6
 762              		.p2align 3
 763              	.L148:
 764 0a38 A20040B9 		ldr	w2, [x5]
 765 0a3c 224400B8 		str	w2, [x1], 4
 766 0a40 7F0001EB 		cmp	x3, x1
 767 0a44 A1FFFF54 		bne	.L148
 768 0a48 010840B9 		ldr	w1, [x0, 8]
 769 0a4c E7040011 		add	w7, w7, 1
 770 0a50 FF00046B 		cmp	w7, w4
 771 0a54 C608018B 		add	x6, x6, x1, lsl 2
 772 0a58 C1FEFF54 		bne	.L147
 773              	.L144:
 774 0a5c C0035FD6 		ret
 775              		.size	ClearArea32, .-ClearArea32
 776              		.align	2
 777              		.p2align 4,,15
 778              		.type	VertLine32, %function
 779              	VertLine32:
 780 0a60 03984229 		ldp	w3, w6, [x0, 20]
 781 0a64 040840B9 		ldr	w4, [x0, 8]
 782 0a68 07144029 		ldp	w7, w5, [x0]
 783 0a6c 63741E53 		lsl	w3, w3, 2
 784 0a70 C47C041B 		mul	w4, w6, w4
 785 0a74 E58005AA 		orr	x5, x7, x5, lsl 32
 786 0a78 A3C0238B 		add	x3, x5, x3, sxtw
 787 0a7c 84741E53 		lsl	w4, w4, 2
 788 0a80 6300048B 		add	x3, x3, x4
AARCH64 GAS  C:\Users\A01169~1\AppData\Local\Temp\cclmDoLY.s 			page 15


 789 0a84 A1010034 		cbz	w1, .L158
 790 0a88 06900091 		add	x6, x0, 36
 791 0a8c 04008052 		mov	w4, 0
 792 0a90 5F040071 		cmp	w2, 1
 793 0a94 80010054 		beq	.L159
 794              		.p2align 3
 795              	.L160:
 796 0a98 C50040B9 		ldr	w5, [x6]
 797 0a9c 84040011 		add	w4, w4, 1
 798 0aa0 650000B9 		str	w5, [x3]
 799 0aa4 3F00046B 		cmp	w1, w4
 800 0aa8 050840B9 		ldr	w5, [x0, 8]
 801 0aac 630805CB 		sub	x3, x3, x5, lsl 2
 802 0ab0 41FFFF54 		bne	.L160
 803              	.L161:
 804 0ab4 061840B9 		ldr	w6, [x0, 24]
 805              	.L158:
 806 0ab8 4118011B 		madd	w1, w2, w1, w6
 807 0abc 011800B9 		str	w1, [x0, 24]
 808 0ac0 C0035FD6 		ret
 809              		.p2align 2
 810              	.L159:
 811 0ac4 C50040B9 		ldr	w5, [x6]
 812 0ac8 84040011 		add	w4, w4, 1
 813 0acc 650000B9 		str	w5, [x3]
 814 0ad0 3F00046B 		cmp	w1, w4
 815 0ad4 050840B9 		ldr	w5, [x0, 8]
 816 0ad8 6308058B 		add	x3, x3, x5, lsl 2
 817 0adc C0FEFF54 		beq	.L161
 818 0ae0 C50040B9 		ldr	w5, [x6]
 819 0ae4 84040011 		add	w4, w4, 1
 820 0ae8 650000B9 		str	w5, [x3]
 821 0aec 3F00046B 		cmp	w1, w4
 822 0af0 050840B9 		ldr	w5, [x0, 8]
 823 0af4 6308058B 		add	x3, x3, x5, lsl 2
 824 0af8 61FEFF54 		bne	.L159
 825 0afc EEFFFF17 		b	.L161
 826              		.size	VertLine32, .-VertLine32
 827              		.align	2
 828              		.p2align 4,,15
 829              		.type	HorzLine32, %function
 830              	HorzLine32:
 831 0b00 040840B9 		ldr	w4, [x0, 8]
 832 0b04 068C4229 		ldp	w6, w3, [x0, 20]
 833 0b08 07144029 		ldp	w7, w5, [x0]
 834 0b0c 637C041B 		mul	w3, w3, w4
 835 0b10 C4741E53 		lsl	w4, w6, 2
 836 0b14 E58005AA 		orr	x5, x7, x5, lsl 32
 837 0b18 63741E53 		lsl	w3, w3, 2
 838 0b1c A4C0248B 		add	x4, x5, x4, sxtw
 839 0b20 6300048B 		add	x3, x3, x4
 840 0b24 81010034 		cbz	w1, .L170
 841 0b28 477C7E93 		sbfiz	x7, x2, 2, 32
 842 0b2c 06900091 		add	x6, x0, 36
 843 0b30 04008052 		mov	w4, 0
 844 0b34 1F2003D5 		.p2align 3
 845              	.L171:
AARCH64 GAS  C:\Users\A01169~1\AppData\Local\Temp\cclmDoLY.s 			page 16


 846 0b38 C50040B9 		ldr	w5, [x6]
 847 0b3c 84040011 		add	w4, w4, 1
 848 0b40 650000B9 		str	w5, [x3]
 849 0b44 3F00046B 		cmp	w1, w4
 850 0b48 6300078B 		add	x3, x3, x7
 851 0b4c 61FFFF54 		bne	.L171
 852 0b50 061440B9 		ldr	w6, [x0, 20]
 853              	.L170:
 854 0b54 4118011B 		madd	w1, w2, w1, w6
 855 0b58 011400B9 		str	w1, [x0, 20]
 856 0b5c C0035FD6 		ret
 857              		.size	HorzLine32, .-HorzLine32
 858              		.align	2
 859              		.p2align 4,,15
 860              		.type	DiagLine32, %function
 861              	DiagLine32:
 862 0b60 09A04229 		ldp	w9, w8, [x0, 20]
 863 0b64 3F00026B 		cmp	w1, w2
 864 0b68 050840B9 		ldr	w5, [x0, 8]
 865 0b6c 2290821A 		csel	w2, w1, w2, ls
 866 0b70 0A1C4029 		ldp	w10, w7, [x0]
 867 0b74 26751E53 		lsl	w6, w9, 2
 868 0b78 057D051B 		mul	w5, w8, w5
 869 0b7c 478107AA 		orr	x7, x10, x7, lsl 32
 870 0b80 E6C0268B 		add	x6, x7, x6, sxtw
 871 0b84 A5741E53 		lsl	w5, w5, 2
 872 0b88 A500068B 		add	x5, x5, x6
 873 0b8c 61020034 		cbz	w1, .L177
 874 0b90 6A7C7E93 		sbfiz	x10, x3, 2, 32
 875 0b94 09900091 		add	x9, x0, 36
 876 0b98 07008052 		mov	w7, 0
 877 0b9c 06008052 		mov	w6, 0
 878              		.p2align 3
 879              	.L179:
 880 0ba0 280140B9 		ldr	w8, [x9]
 881 0ba4 C600020B 		add	w6, w6, w2
 882 0ba8 A80000B9 		str	w8, [x5]
 883 0bac E7040011 		add	w7, w7, 1
 884 0bb0 3F00066B 		cmp	w1, w6
 885 0bb4 A5000A8B 		add	x5, x5, x10
 886 0bb8 A8000054 		bhi	.L178
 887 0bbc 080840B9 		ldr	w8, [x0, 8]
 888 0bc0 C600014B 		sub	w6, w6, w1
 889 0bc4 887C081B 		mul	w8, w4, w8
 890 0bc8 A508088B 		add	x5, x5, x8, lsl 2
 891              	.L178:
 892 0bcc 3F00076B 		cmp	w1, w7
 893 0bd0 81FEFF54 		bne	.L179
 894 0bd4 09A04229 		ldp	w9, w8, [x0, 20]
 895              	.L177:
 896 0bd8 6124011B 		madd	w1, w3, w1, w9
 897 0bdc 4220041B 		madd	w2, w2, w4, w8
 898 0be0 01880229 		stp	w1, w2, [x0, 20]
 899 0be4 C0035FD6 		ret
 900              		.size	DiagLine32, .-DiagLine32
 901              		.align	2
 902 0be8 1F2003D5 		.p2align 4,,15
AARCH64 GAS  C:\Users\A01169~1\AppData\Local\Temp\cclmDoLY.s 			page 17


 902      1F2003D5 
 903              		.type	WriteChar32, %function
 904              	WriteChar32:
 905 0bf0 011440B9 		ldr	w1, [x0, 20]
 906 0bf4 21200011 		add	w1, w1, 8
 907 0bf8 011400B9 		str	w1, [x0, 20]
 908 0bfc C0035FD6 		ret
 909              		.size	WriteChar32, .-WriteChar32
 910              		.align	2
 911              		.p2align 4,,15
 912              		.type	PutImage32, %function
 913              	PutImage32:
 914 0c00 05984229 		ldp	w5, w6, [x0, 20]
 915 0c04 FF4300D1 		sub	sp, sp, #16
 916 0c08 090840B9 		ldr	w9, [x0, 8]
 917 0c0c 081C4029 		ldp	w8, w7, [x0]
 918 0c10 A5741E53 		lsl	w5, w5, 2
 919 0c14 E30700F9 		str	x3, [sp, 8]
 920 0c18 C67C091B 		mul	w6, w6, w9
 921 0c1c 078107AA 		orr	x7, x8, x7, lsl 32
 922 0c20 E5C0258B 		add	x5, x7, x5, sxtw
 923 0c24 C6741E53 		lsl	w6, w6, 2
 924 0c28 C600058B 		add	x6, x6, x5
 925 0c2c 02030034 		cbz	w2, .L185
 926 0c30 E1020034 		cbz	w1, .L185
 927 0c34 21040051 		sub	w1, w1, #1
 928 0c38 841C0012 		and	w4, w4, 255
 929 0c3c 21040091 		add	x1, x1, 1
 930 0c40 08008052 		mov	w8, 0
 931 0c44 27F47ED3 		lsl	x7, x1, 2
 932              		.p2align 3
 933              	.L188:
 934 0c48 010080D2 		mov	x1, 0
 935 0c4c 1F2003D5 		.p2align 3
 936              	.L189:
 937 0c50 656861B8 		ldr	w5, [x3, x1]
 938 0c54 C56821B8 		str	w5, [x6, x1]
 939 0c58 21100091 		add	x1, x1, 4
 940 0c5c FF0001EB 		cmp	x7, x1
 941 0c60 81FFFF54 		bne	.L189
 942 0c64 010840B9 		ldr	w1, [x0, 8]
 943 0c68 9F000071 		cmp	w4, 0
 944 0c6c 08050011 		add	w8, w8, 1
 945 0c70 6300078B 		add	x3, x3, x7
 946 0c74 21F47ED3 		lsl	x1, x1, 2
 947 0c78 C50001CB 		sub	x5, x6, x1
 948 0c7c C600018B 		add	x6, x6, x1
 949 0c80 C600859A 		csel	x6, x6, x5, eq
 950 0c84 5F00086B 		cmp	w2, w8
 951 0c88 01FEFF54 		bne	.L188
 952              	.L185:
 953 0c8c FF430091 		add	sp, sp, 16
 954 0c90 C0035FD6 		ret
 955              		.size	PutImage32, .-PutImage32
 956              		.align	2
 957 0c94 1F2003D5 		.p2align 4,,15
 957      1F2003D5 
AARCH64 GAS  C:\Users\A01169~1\AppData\Local\Temp\cclmDoLY.s 			page 18


 957      1F2003D5 
 958              		.type	mailbox_tag_message.constprop.4, %function
 959              	mailbox_tag_message.constprop.4:
 960 0ca0 FE0F12F8 		str	x30, [sp, -224]!
 961 0ca4 010480D2 		mov	x1, 32
 962 0ca8 E7008012 		mov	w7, -8
 963 0cac E8C30291 		add	x8, sp, 176
 964 0cb0 E9830391 		add	x9, sp, 224
 965 0cb4 E0C30091 		add	x0, sp, 48
 966 0cb8 E92701A9 		stp	x9, x9, [sp, 16]
 967 0cbc E81300F9 		str	x8, [sp, 32]
 968 0cc0 E77F0529 		stp	w7, wzr, [sp, 40]
 969 0cc4 E11B00F9 		str	x1, [sp, 48]
 970 0cc8 E20F0729 		stp	w2, w3, [sp, 56]
 971 0ccc E4170829 		stp	w4, w5, [sp, 64]
 972 0cd0 E67F0929 		stp	w6, wzr, [sp, 72]
 973 0cd4 E28F0BA9 		stp	x2, x3, [sp, 184]
 974 0cd8 E4970CA9 		stp	x4, x5, [sp, 200]
 975 0cdc E66F00F9 		str	x6, [sp, 216]
 976 0ce0 00000094 		bl	ARMaddrToGPUaddr
 977 0ce4 01000090 		adrp	x1, RPi_IO_Base_Addr
 978 0ce8 210040B9 		ldr	w1, [x1, #:lo12:RPi_IO_Base_Addr]
 979 0cec 006C1C12 		and	w0, w0, -16
 980 0cf0 02001D32 		orr	w2, w0, 8
 981 0cf4 00109752 		mov	w0, 47232
 982 0cf8 2100000B 		add	w1, w1, w0
 983 0cfc 1F2003D5 		.p2align 3
 984              	.L215:
 985 0d00 203840B9 		ldr	w0, [x1, 56]
 986 0d04 E0FFFF37 		tbnz	w0, #31, .L215
 987 0d08 222000B9 		str	w2, [x1, 32]
 988 0d0c 1F2003D5 		.p2align 3
 989              	.L216:
 990 0d10 201840B9 		ldr	w0, [x1, 24]
 991 0d14 E0FFF737 		tbnz	x0, 30, .L216
 992 0d18 200040B9 		ldr	w0, [x1]
 993 0d1c 000C0012 		and	w0, w0, 15
 994 0d20 1F200071 		cmp	w0, 8
 995 0d24 61FFFF54 		bne	.L216
 996 0d28 E13740B9 		ldr	w1, [sp, 52]
 997 0d2c 0000B052 		mov	w0, -2147483648
 998 0d30 FE074EF8 		ldr	x30, [sp], 224
 999 0d34 3F00006B 		cmp	w1, w0
 1000 0d38 E0179F1A 		cset	w0, eq
 1001 0d3c C0035FD6 		ret
 1002              		.size	mailbox_tag_message.constprop.4, .-mailbox_tag_message.constprop.4
 1003              		.align	2
 1004              		.p2align 4,,15
 1005              		.type	mailbox_tag_message.constprop.7, %function
 1006              	mailbox_tag_message.constprop.7:
 1007 0d40 F37BB2A9 		stp	x19, x30, [sp, -224]!
 1008 0d44 EC058012 		mov	w12, -48
 1009 0d48 E1030C2A 		mov	w1, w12
 1010 0d4c EB030C2A 		mov	w11, w12
 1011 0d50 E9030C2A 		mov	w9, w12
 1012 0d54 F30300AA 		mov	x19, x0
 1013 0d58 E8830391 		add	x8, sp, 224
AARCH64 GAS  C:\Users\A01169~1\AppData\Local\Temp\cclmDoLY.s 			page 19


 1014 0d5c EEC30291 		add	x14, sp, 176
 1015 0d60 0D0B80D2 		mov	x13, 88
 1016 0d64 0A008052 		mov	w10, 0
 1017 0d68 60028052 		mov	w0, 19
 1018 0d6c E82301A9 		stp	x8, x8, [sp, 16]
 1019 0d70 EE1300F9 		str	x14, [sp, 32]
 1020 0d74 EC7F0529 		stp	w12, wzr, [sp, 40]
 1021 0d78 ED1B00F9 		str	x13, [sp, 48]
 1022 0d7c FF8700B9 		str	wzr, [sp, 132]
 1023 0d80 E20F0BA9 		stp	x2, x3, [sp, 176]
 1024 0d84 E4170CA9 		stp	x4, x5, [sp, 192]
 1025 0d88 E61F0DA9 		stp	x6, x7, [sp, 208]
 1026 0d8c 1F2003D5 		.p2align 3
 1027              	.L227:
 1028 0d90 8900F836 		tbz	w9, #31, .L229
 1029 0d94 29210011 		add	w9, w9, 8
 1030 0d98 2A008052 		mov	w10, 1
 1031 0d9c EB03092A 		mov	w11, w9
 1032              	.L229:
 1033 0da0 00040071 		subs	w0, w0, #1
 1034 0da4 61FFFF54 		bne	.L227
 1035 0da8 4A000034 		cbz	w10, .L230
 1036 0dac EB2B00B9 		str	w11, [sp, 40]
 1037              	.L230:
 1038 0db0 E0E30091 		add	x0, sp, 56
 1039 0db4 E4130291 		add	x4, sp, 132
 1040 0db8 07000014 		b	.L234
 1041              		.p2align 2
 1042              	.L255:
 1043 0dbc E20308AA 		mov	x2, x8
 1044 0dc0 08210091 		add	x8, x8, 8
 1045 0dc4 420040B9 		ldr	w2, [x2]
 1046 0dc8 024400B8 		str	w2, [x0], 4
 1047 0dcc 9F0000EB 		cmp	x4, x0
 1048 0dd0 80010054 		beq	.L257
 1049              	.L234:
 1050 0dd4 23200011 		add	w3, w1, 8
 1051 0dd8 21FFFF36 		tbz	w1, #31, .L255
 1052 0ddc E2830391 		add	x2, sp, 224
 1053 0de0 7F000071 		cmp	w3, 0
 1054 0de4 42C0218B 		add	x2, x2, x1, sxtw
 1055 0de8 E103032A 		mov	w1, w3
 1056 0dec 8CFEFF54 		bgt	.L255
 1057 0df0 420040B9 		ldr	w2, [x2]
 1058 0df4 024400B8 		str	w2, [x0], 4
 1059 0df8 9F0000EB 		cmp	x4, x0
 1060 0dfc C1FEFF54 		bne	.L234
 1061              		.p2align 3
 1062              	.L257:
 1063 0e00 E0C30091 		add	x0, sp, 48
 1064 0e04 00000094 		bl	ARMaddrToGPUaddr
 1065 0e08 01000090 		adrp	x1, RPi_IO_Base_Addr
 1066 0e0c 210040B9 		ldr	w1, [x1, #:lo12:RPi_IO_Base_Addr]
 1067 0e10 006C1C12 		and	w0, w0, -16
 1068 0e14 02001D32 		orr	w2, w0, 8
 1069 0e18 00109752 		mov	w0, 47232
 1070 0e1c 2100000B 		add	w1, w1, w0
AARCH64 GAS  C:\Users\A01169~1\AppData\Local\Temp\cclmDoLY.s 			page 20


 1071              		.p2align 3
 1072              	.L235:
 1073 0e20 203840B9 		ldr	w0, [x1, 56]
 1074 0e24 E0FFFF37 		tbnz	w0, #31, .L235
 1075 0e28 222000B9 		str	w2, [x1, 32]
 1076 0e2c 1F2003D5 		.p2align 3
 1077              	.L236:
 1078 0e30 201840B9 		ldr	w0, [x1, 24]
 1079 0e34 E0FFF737 		tbnz	x0, 30, .L236
 1080 0e38 200040B9 		ldr	w0, [x1]
 1081 0e3c 000C0012 		and	w0, w0, 15
 1082 0e40 1F200071 		cmp	w0, 8
 1083 0e44 61FFFF54 		bne	.L236
 1084 0e48 E23740B9 		ldr	w2, [sp, 52]
 1085 0e4c 0100B052 		mov	w1, -2147483648
 1086 0e50 00008052 		mov	w0, 0
 1087 0e54 5F00016B 		cmp	w2, w1
 1088 0e58 60000054 		beq	.L258
 1089 0e5c F37BCEA8 		ldp	x19, x30, [sp], 224
 1090 0e60 C0035FD6 		ret
 1091              		.p2align 2
 1092              	.L258:
 1093 0e64 000080D2 		mov	x0, 0
 1094 0e68 330100B4 		cbz	x19, .L240
 1095 0e6c 1F2003D5 		.p2align 3
 1096              	.L239:
 1097 0e70 E1C30091 		add	x1, sp, 48
 1098 0e74 2100008B 		add	x1, x1, x0
 1099 0e78 210840B9 		ldr	w1, [x1, 8]
 1100 0e7c 616A20B8 		str	w1, [x19, x0]
 1101 0e80 00100091 		add	x0, x0, 4
 1102 0e84 1F3001F1 		cmp	x0, 76
 1103 0e88 41FFFF54 		bne	.L239
 1104              	.L240:
 1105 0e8c 20008052 		mov	w0, 1
 1106 0e90 F37BCEA8 		ldp	x19, x30, [sp], 224
 1107 0e94 C0035FD6 		ret
 1108              		.size	mailbox_tag_message.constprop.7, .-mailbox_tag_message.constprop.7
 1109              		.align	2
 1110 0e98 1F2003D5 		.p2align 4,,15
 1110      1F2003D5 
 1111              		.type	mailbox_tag_message.constprop.5, %function
 1112              	mailbox_tag_message.constprop.5:
 1113 0ea0 F37BB2A9 		stp	x19, x30, [sp, -224]!
 1114 0ea4 010480D2 		mov	x1, 32
 1115 0ea8 E7008012 		mov	w7, -8
 1116 0eac E8C30291 		add	x8, sp, 176
 1117 0eb0 E9830391 		add	x9, sp, 224
 1118 0eb4 F30300AA 		mov	x19, x0
 1119 0eb8 E0C30091 		add	x0, sp, 48
 1120 0ebc E92701A9 		stp	x9, x9, [sp, 16]
 1121 0ec0 E81300F9 		str	x8, [sp, 32]
 1122 0ec4 E77F0529 		stp	w7, wzr, [sp, 40]
 1123 0ec8 E11B00F9 		str	x1, [sp, 48]
 1124 0ecc E20F0729 		stp	w2, w3, [sp, 56]
 1125 0ed0 E4170829 		stp	w4, w5, [sp, 64]
 1126 0ed4 E67F0929 		stp	w6, wzr, [sp, 72]
AARCH64 GAS  C:\Users\A01169~1\AppData\Local\Temp\cclmDoLY.s 			page 21


 1127 0ed8 E28F0BA9 		stp	x2, x3, [sp, 184]
 1128 0edc E4970CA9 		stp	x4, x5, [sp, 200]
 1129 0ee0 E66F00F9 		str	x6, [sp, 216]
 1130 0ee4 00000094 		bl	ARMaddrToGPUaddr
 1131 0ee8 01000090 		adrp	x1, RPi_IO_Base_Addr
 1132 0eec 210040B9 		ldr	w1, [x1, #:lo12:RPi_IO_Base_Addr]
 1133 0ef0 006C1C12 		and	w0, w0, -16
 1134 0ef4 02001D32 		orr	w2, w0, 8
 1135 0ef8 00109752 		mov	w0, 47232
 1136 0efc 2100000B 		add	w1, w1, w0
 1137              		.p2align 3
 1138              	.L273:
 1139 0f00 203840B9 		ldr	w0, [x1, 56]
 1140 0f04 E0FFFF37 		tbnz	w0, #31, .L273
 1141 0f08 222000B9 		str	w2, [x1, 32]
 1142 0f0c 1F2003D5 		.p2align 3
 1143              	.L274:
 1144 0f10 201840B9 		ldr	w0, [x1, 24]
 1145 0f14 E0FFF737 		tbnz	x0, 30, .L274
 1146 0f18 200040B9 		ldr	w0, [x1]
 1147 0f1c 000C0012 		and	w0, w0, 15
 1148 0f20 1F200071 		cmp	w0, 8
 1149 0f24 61FFFF54 		bne	.L274
 1150 0f28 E23740B9 		ldr	w2, [sp, 52]
 1151 0f2c 0100B052 		mov	w1, -2147483648
 1152 0f30 00008052 		mov	w0, 0
 1153 0f34 5F00016B 		cmp	w2, w1
 1154 0f38 60000054 		beq	.L288
 1155 0f3c F37BCEA8 		ldp	x19, x30, [sp], 224
 1156 0f40 C0035FD6 		ret
 1157              		.p2align 2
 1158              	.L288:
 1159 0f44 F30000B4 		cbz	x19, .L278
 1160 0f48 E40F4729 		ldp	w4, w3, [sp, 56]
 1161 0f4c 640E0029 		stp	w4, w3, [x19]
 1162 0f50 E2074829 		ldp	w2, w1, [sp, 64]
 1163 0f54 62060129 		stp	w2, w1, [x19, 8]
 1164 0f58 E04B40B9 		ldr	w0, [sp, 72]
 1165 0f5c 601200B9 		str	w0, [x19, 16]
 1166              	.L278:
 1167 0f60 20008052 		mov	w0, 1
 1168 0f64 F37BCEA8 		ldp	x19, x30, [sp], 224
 1169 0f68 C0035FD6 		ret
 1170              		.size	mailbox_tag_message.constprop.5, .-mailbox_tag_message.constprop.5
 1171              		.align	2
 1172 0f6c 1F2003D5 		.p2align 4,,15
 1173              		.type	mailbox_tag_message.constprop.6, %function
 1174              	mailbox_tag_message.constprop.6:
 1175 0f70 F37BB3A9 		stp	x19, x30, [sp, -208]!
 1176 0f74 810380D2 		mov	x1, 28
 1177 0f78 E6008012 		mov	w6, -8
 1178 0f7c E7C30291 		add	x7, sp, 176
 1179 0f80 E8430391 		add	x8, sp, 208
 1180 0f84 F30300AA 		mov	x19, x0
 1181 0f88 E0C30091 		add	x0, sp, 48
 1182 0f8c E82301A9 		stp	x8, x8, [sp, 16]
 1183 0f90 E71300F9 		str	x7, [sp, 32]
AARCH64 GAS  C:\Users\A01169~1\AppData\Local\Temp\cclmDoLY.s 			page 22


 1184 0f94 E67F0529 		stp	w6, wzr, [sp, 40]
 1185 0f98 E11B00F9 		str	x1, [sp, 48]
 1186 0f9c E20F0729 		stp	w2, w3, [sp, 56]
 1187 0fa0 E4170829 		stp	w4, w5, [sp, 64]
 1188 0fa4 FF4B00B9 		str	wzr, [sp, 72]
 1189 0fa8 E20F0BA9 		stp	x2, x3, [sp, 176]
 1190 0fac E4170CA9 		stp	x4, x5, [sp, 192]
 1191 0fb0 00000094 		bl	ARMaddrToGPUaddr
 1192 0fb4 01000090 		adrp	x1, RPi_IO_Base_Addr
 1193 0fb8 210040B9 		ldr	w1, [x1, #:lo12:RPi_IO_Base_Addr]
 1194 0fbc 006C1C12 		and	w0, w0, -16
 1195 0fc0 02001D32 		orr	w2, w0, 8
 1196 0fc4 00109752 		mov	w0, 47232
 1197 0fc8 2100000B 		add	w1, w1, w0
 1198 0fcc 1F2003D5 		.p2align 3
 1199              	.L300:
 1200 0fd0 203840B9 		ldr	w0, [x1, 56]
 1201 0fd4 E0FFFF37 		tbnz	w0, #31, .L300
 1202 0fd8 222000B9 		str	w2, [x1, 32]
 1203 0fdc 1F2003D5 		.p2align 3
 1204              	.L301:
 1205 0fe0 201840B9 		ldr	w0, [x1, 24]
 1206 0fe4 E0FFF737 		tbnz	x0, 30, .L301
 1207 0fe8 200040B9 		ldr	w0, [x1]
 1208 0fec 000C0012 		and	w0, w0, 15
 1209 0ff0 1F200071 		cmp	w0, 8
 1210 0ff4 61FFFF54 		bne	.L301
 1211 0ff8 E23740B9 		ldr	w2, [sp, 52]
 1212 0ffc 0100B052 		mov	w1, -2147483648
 1213 1000 00008052 		mov	w0, 0
 1214 1004 5F00016B 		cmp	w2, w1
 1215 1008 60000054 		beq	.L314
 1216              	.L308:
 1217 100c F37BCDA8 		ldp	x19, x30, [sp], 208
 1218 1010 C0035FD6 		ret
 1219              		.p2align 2
 1220              	.L314:
 1221 1014 20008052 		mov	w0, 1
 1222 1018 B3FFFFB4 		cbz	x19, .L308
 1223 101c E40F4729 		ldp	w4, w3, [sp, 56]
 1224 1020 640E0029 		stp	w4, w3, [x19]
 1225 1024 E2074829 		ldp	w2, w1, [sp, 64]
 1226 1028 62060129 		stp	w2, w1, [x19, 8]
 1227 102c F37BCDA8 		ldp	x19, x30, [sp], 208
 1228 1030 C0035FD6 		ret
 1229              		.size	mailbox_tag_message.constprop.6, .-mailbox_tag_message.constprop.6
 1230              		.align	2
 1231 1034 1F2003D5 		.p2align 4,,15
 1231      1F2003D5 
 1231      1F2003D5 
 1232              		.global	gpio_setup
 1233              		.type	gpio_setup, %function
 1234              	gpio_setup:
 1235 1040 1FD80071 		cmp	w0, 54
 1236 1044 06008052 		mov	w6, 0
 1237 1048 2298477A 		ccmp	w1, 7, 2, ls
 1238 104c 88020054 		bhi	.L316
AARCH64 GAS  C:\Users\A01169~1\AppData\Local\Temp\cclmDoLY.s 			page 23


 1239 1050 A3999952 		mov	w3, 52429
 1240 1054 8399B972 		movk	w3, 0xcccc, lsl 16
 1241 1058 02000090 		adrp	x2, RPi_IO_Base_Addr
 1242 105c 450040B9 		ldr	w5, [x2, #:lo12:RPi_IO_Base_Addr]
 1243 1060 037CA39B 		umull	x3, w0, w3
 1244 1064 47018052 		mov	w7, 10
 1245 1068 A5004811 		add	w5, w5, 2097152
 1246 106c E4008052 		mov	w4, 7
 1247 1070 26008052 		mov	w6, 1
 1248 1074 62FC63D3 		lsr	x2, x3, 35
 1249 1078 E303022A 		uxtw	x3, w2
 1250 107c 4280071B 		msub	w2, w2, w7, w0
 1251 1080 A07863B8 		ldr	w0, [x5, x3, lsl 2]
 1252 1084 4204020B 		add	w2, w2, w2, lsl 1
 1253 1088 8420C21A 		lsl	w4, w4, w2
 1254 108c 0400240A 		bic	w4, w0, w4
 1255 1090 2220C21A 		lsl	w2, w1, w2
 1256 1094 4200042A 		orr	w2, w2, w4
 1257 1098 A27823B8 		str	w2, [x5, x3, lsl 2]
 1258              	.L316:
 1259 109c E003062A 		mov	w0, w6
 1260 10a0 C0035FD6 		ret
 1261              		.size	gpio_setup, .-gpio_setup
 1262              		.align	2
 1263 10a4 1F2003D5 		.p2align 4,,15
 1263      1F2003D5 
 1263      1F2003D5 
 1264              		.global	gpio_output
 1265              		.type	gpio_output, %function
 1266              	gpio_output:
 1267 10b0 211C0012 		and	w1, w1, 255
 1268 10b4 1FD80071 		cmp	w0, 54
 1269 10b8 88020054 		bhi	.L321
 1270 10bc 02000090 		adrp	x2, RPi_IO_Base_Addr
 1271 10c0 430040B9 		ldr	w3, [x2, #:lo12:RPi_IO_Base_Addr]
 1272 10c4 047C0553 		lsr	w4, w0, 5
 1273 10c8 25008052 		mov	w5, 1
 1274 10cc 63004811 		add	w3, w3, 2097152
 1275 10d0 A220C01A 		lsl	w2, w5, w0
 1276 10d4 84687ED3 		ubfiz	x4, x4, 2, 27
 1277 10d8 E1000035 		cbnz	w1, .L322
 1278 10dc 84800091 		add	x4, x4, 32
 1279 10e0 E103052A 		mov	w1, w5
 1280 10e4 6300048B 		add	x3, x3, x4
 1281 10e8 E003012A 		mov	w0, w1
 1282 10ec 620800B9 		str	w2, [x3, 8]
 1283 10f0 C0035FD6 		ret
 1284              		.p2align 2
 1285              	.L322:
 1286 10f4 84400091 		add	x4, x4, 16
 1287 10f8 E003012A 		mov	w0, w1
 1288 10fc 6300048B 		add	x3, x3, x4
 1289 1100 620C00B9 		str	w2, [x3, 12]
 1290 1104 C0035FD6 		ret
 1291              		.p2align 2
 1292              	.L321:
 1293 1108 01008052 		mov	w1, 0
AARCH64 GAS  C:\Users\A01169~1\AppData\Local\Temp\cclmDoLY.s 			page 24


 1294 110c E003012A 		mov	w0, w1
 1295 1110 C0035FD6 		ret
 1296              		.size	gpio_output, .-gpio_output
 1297              		.align	2
 1298 1114 1F2003D5 		.p2align 4,,15
 1298      1F2003D5 
 1298      1F2003D5 
 1299              		.global	gpio_input
 1300              		.type	gpio_input, %function
 1301              	gpio_input:
 1302 1120 1FD80071 		cmp	w0, 54
 1303 1124 A8010054 		bhi	.L325
 1304 1128 01000090 		adrp	x1, RPi_IO_Base_Addr
 1305 112c 230040B9 		ldr	w3, [x1, #:lo12:RPi_IO_Base_Addr]
 1306 1130 017C0553 		lsr	w1, w0, 5
 1307 1134 22008052 		mov	w2, 1
 1308 1138 21300091 		add	x1, x1, 12
 1309 113c 63004811 		add	w3, w3, 2097152
 1310 1140 4020C01A 		lsl	w0, w2, w0
 1311 1144 6108018B 		add	x1, x3, x1, lsl 2
 1312 1148 210440B9 		ldr	w1, [x1, 4]
 1313 114c 1F00016A 		tst	w0, w1
 1314 1150 E0079F1A 		cset	w0, ne
 1315 1154 C0035FD6 		ret
 1316              		.p2align 2
 1317              	.L325:
 1318 1158 00008052 		mov	w0, 0
 1319 115c C0035FD6 		ret
 1320              		.size	gpio_input, .-gpio_input
 1321              		.align	2
 1322              		.p2align 4,,15
 1323              		.global	gpio_checkEvent
 1324              		.type	gpio_checkEvent, %function
 1325              	gpio_checkEvent:
 1326 1160 1FD80071 		cmp	w0, 54
 1327 1164 88010054 		bhi	.L328
 1328 1168 01000090 		adrp	x1, RPi_IO_Base_Addr
 1329 116c 220040B9 		ldr	w2, [x1, #:lo12:RPi_IO_Base_Addr]
 1330 1170 037C0553 		lsr	w3, w0, 5
 1331 1174 21008052 		mov	w1, 1
 1332 1178 42004811 		add	w2, w2, 2097152
 1333 117c 63400091 		add	x3, x3, 16
 1334 1180 2020C01A 		lsl	w0, w1, w0
 1335 1184 417863B8 		ldr	w1, [x2, x3, lsl 2]
 1336 1188 1F00016A 		tst	w0, w1
 1337 118c E0079F1A 		cset	w0, ne
 1338 1190 C0035FD6 		ret
 1339              		.p2align 2
 1340              	.L328:
 1341 1194 00008052 		mov	w0, 0
 1342 1198 C0035FD6 		ret
 1343              		.size	gpio_checkEvent, .-gpio_checkEvent
 1344              		.align	2
 1345 119c 1F2003D5 		.p2align 4,,15
 1346              		.global	gpio_clearEvent
 1347              		.type	gpio_clearEvent, %function
 1348              	gpio_clearEvent:
AARCH64 GAS  C:\Users\A01169~1\AppData\Local\Temp\cclmDoLY.s 			page 25


 1349 11a0 1FD80071 		cmp	w0, 54
 1350 11a4 68010054 		bhi	.L331
 1351 11a8 01000090 		adrp	x1, RPi_IO_Base_Addr
 1352 11ac 230040B9 		ldr	w3, [x1, #:lo12:RPi_IO_Base_Addr]
 1353 11b0 047C0553 		lsr	w4, w0, 5
 1354 11b4 22008052 		mov	w2, 1
 1355 11b8 63004811 		add	w3, w3, 2097152
 1356 11bc 84400091 		add	x4, x4, 16
 1357 11c0 4120C01A 		lsl	w1, w2, w0
 1358 11c4 E003022A 		mov	w0, w2
 1359 11c8 617824B8 		str	w1, [x3, x4, lsl 2]
 1360 11cc C0035FD6 		ret
 1361              		.p2align 2
 1362              	.L331:
 1363 11d0 00008052 		mov	w0, 0
 1364 11d4 C0035FD6 		ret
 1365              		.size	gpio_clearEvent, .-gpio_clearEvent
 1366              		.align	2
 1367 11d8 1F2003D5 		.p2align 4,,15
 1367      1F2003D5 
 1368              		.global	gpio_edgeDetect
 1369              		.type	gpio_edgeDetect, %function
 1370              	gpio_edgeDetect:
 1371 11e0 211C0012 		and	w1, w1, 255
 1372 11e4 1FD80071 		cmp	w0, 54
 1373 11e8 421C0012 		and	w2, w2, 255
 1374 11ec A8020054 		bhi	.L337
 1375 11f0 03000090 		adrp	x3, RPi_IO_Base_Addr
 1376 11f4 640040B9 		ldr	w4, [x3, #:lo12:RPi_IO_Base_Addr]
 1377 11f8 057C0553 		lsr	w5, w0, 5
 1378 11fc 26008052 		mov	w6, 1
 1379 1200 84004811 		add	w4, w4, 2097152
 1380 1204 C320C01A 		lsl	w3, w6, w0
 1381 1208 A5687ED3 		ubfiz	x5, x5, 2, 27
 1382 120c E1000034 		cbz	w1, .L334
 1383 1210 E2010034 		cbz	w2, .L335
 1384 1214 A5C00191 		add	x5, x5, 112
 1385 1218 E003022A 		mov	w0, w2
 1386 121c 8400058B 		add	x4, x4, x5
 1387 1220 830C00B9 		str	w3, [x4, 12]
 1388 1224 C0035FD6 		ret
 1389              		.p2align 2
 1390              	.L334:
 1391 1228 E2010034 		cbz	w2, .L336
 1392 122c A5000291 		add	x5, x5, 128
 1393 1230 E003022A 		mov	w0, w2
 1394 1234 8400058B 		add	x4, x4, x5
 1395 1238 830800B9 		str	w3, [x4, 8]
 1396 123c C0035FD6 		ret
 1397              		.p2align 2
 1398              	.L337:
 1399 1240 02008052 		mov	w2, 0
 1400 1244 E003022A 		mov	w0, w2
 1401 1248 C0035FD6 		ret
 1402              		.p2align 2
 1403              	.L335:
 1404 124c A5000191 		add	x5, x5, 64
AARCH64 GAS  C:\Users\A01169~1\AppData\Local\Temp\cclmDoLY.s 			page 26


 1405 1250 E203012A 		mov	w2, w1
 1406 1254 8400058B 		add	x4, x4, x5
 1407 1258 E003022A 		mov	w0, w2
 1408 125c 830C00B9 		str	w3, [x4, 12]
 1409 1260 C0035FD6 		ret
 1410              		.p2align 2
 1411              	.L336:
 1412 1264 A5400191 		add	x5, x5, 80
 1413 1268 E203062A 		mov	w2, w6
 1414 126c 8400058B 		add	x4, x4, x5
 1415 1270 E003022A 		mov	w0, w2
 1416 1274 830800B9 		str	w3, [x4, 8]
 1417 1278 C0035FD6 		ret
 1418              		.size	gpio_edgeDetect, .-gpio_edgeDetect
 1419              		.align	2
 1420 127c 1F2003D5 		.p2align 4,,15
 1421              		.global	gpio_fixResistor
 1422              		.type	gpio_fixResistor, %function
 1423              	gpio_fixResistor:
 1424 1280 1FD80071 		cmp	w0, 54
 1425 1284 2298427A 		ccmp	w1, 2, 2, ls
 1426 1288 69000054 		bls	.L353
 1427 128c 00008052 		mov	w0, 0
 1428 1290 C0035FD6 		ret
 1429              		.p2align 2
 1430              	.L353:
 1431 1294 02000090 		adrp	x2, RPi_IO_Base_Addr
 1432 1298 420040B9 		ldr	w2, [x2, #:lo12:RPi_IO_Base_Addr]
 1433 129c 46004811 		add	w6, w2, 2097152
 1434 12a0 420C4011 		add	w2, w2, 12288
 1435 12a4 C19400B9 		str	w1, [x6, 148]
 1436              		.p2align 3
 1437              	.L340:
 1438 12a8 410840B9 		ldr	w1, [x2, 8]
 1439 12ac 440440B9 		ldr	w4, [x2, 4]
 1440 12b0 430840B9 		ldr	w3, [x2, 8]
 1441 12b4 3F00036B 		cmp	w1, w3
 1442 12b8 81FFFF54 		bne	.L340
 1443 12bc E403042A 		uxtw	x4, w4
 1444 12c0 818001AA 		orr	x1, x4, x1, lsl 32
 1445 12c4 25080091 		add	x5, x1, 2
 1446              		.p2align 3
 1447              	.L341:
 1448 12c8 410840B9 		ldr	w1, [x2, 8]
 1449 12cc 440440B9 		ldr	w4, [x2, 4]
 1450 12d0 430840B9 		ldr	w3, [x2, 8]
 1451 12d4 3F00036B 		cmp	w1, w3
 1452 12d8 81FFFF54 		bne	.L341
 1453 12dc E403042A 		uxtw	x4, w4
 1454 12e0 818001AA 		orr	x1, x4, x1, lsl 32
 1455 12e4 BF0001EB 		cmp	x5, x1
 1456 12e8 08FFFF54 		bhi	.L341
 1457 12ec 057C0553 		lsr	w5, w0, 5
 1458 12f0 21008052 		mov	w1, 1
 1459 12f4 2020C01A 		lsl	w0, w1, w0
 1460 12f8 C508058B 		add	x5, x6, x5, lsl 2
 1461 12fc A09800B9 		str	w0, [x5, 152]
AARCH64 GAS  C:\Users\A01169~1\AppData\Local\Temp\cclmDoLY.s 			page 27


 1462              		.p2align 3
 1463              	.L343:
 1464 1300 400840B9 		ldr	w0, [x2, 8]
 1465 1304 430440B9 		ldr	w3, [x2, 4]
 1466 1308 410840B9 		ldr	w1, [x2, 8]
 1467 130c 1F00016B 		cmp	w0, w1
 1468 1310 81FFFF54 		bne	.L343
 1469 1314 E303032A 		uxtw	x3, w3
 1470 1318 608000AA 		orr	x0, x3, x0, lsl 32
 1471 131c 04080091 		add	x4, x0, 2
 1472              		.p2align 3
 1473              	.L344:
 1474 1320 400840B9 		ldr	w0, [x2, 8]
 1475 1324 430440B9 		ldr	w3, [x2, 4]
 1476 1328 410840B9 		ldr	w1, [x2, 8]
 1477 132c 1F00016B 		cmp	w0, w1
 1478 1330 81FFFF54 		bne	.L344
 1479 1334 E303032A 		uxtw	x3, w3
 1480 1338 608000AA 		orr	x0, x3, x0, lsl 32
 1481 133c 9F0000EB 		cmp	x4, x0
 1482 1340 08FFFF54 		bhi	.L344
 1483 1344 DF9400B9 		str	wzr, [x6, 148]
 1484 1348 20008052 		mov	w0, 1
 1485 134c BF9800B9 		str	wzr, [x5, 152]
 1486 1350 C0035FD6 		ret
 1487              		.size	gpio_fixResistor, .-gpio_fixResistor
 1488              		.align	2
 1489 1354 1F2003D5 		.p2align 4,,15
 1489      1F2003D5 
 1489      1F2003D5 
 1490              		.global	timer_getTickCount
 1491              		.type	timer_getTickCount, %function
 1492              	timer_getTickCount:
 1493 1360 00000090 		adrp	x0, RPi_IO_Base_Addr
 1494 1364 010040B9 		ldr	w1, [x0, #:lo12:RPi_IO_Base_Addr]
 1495 1368 210C4011 		add	w1, w1, 12288
 1496 136c 1F2003D5 		.p2align 3
 1497              	.L355:
 1498 1370 200840B9 		ldr	w0, [x1, 8]
 1499 1374 230440B9 		ldr	w3, [x1, 4]
 1500 1378 220840B9 		ldr	w2, [x1, 8]
 1501 137c 1F00026B 		cmp	w0, w2
 1502 1380 81FFFF54 		bne	.L355
 1503 1384 E303032A 		uxtw	x3, w3
 1504 1388 608000AA 		orr	x0, x3, x0, lsl 32
 1505 138c C0035FD6 		ret
 1506              		.size	timer_getTickCount, .-timer_getTickCount
 1507              		.align	2
 1508              		.p2align 4,,15
 1509              		.global	timer_wait
 1510              		.type	timer_wait, %function
 1511              	timer_wait:
 1512 1390 01000090 		adrp	x1, RPi_IO_Base_Addr
 1513 1394 210040B9 		ldr	w1, [x1, #:lo12:RPi_IO_Base_Addr]
 1514 1398 210C4011 		add	w1, w1, 12288
 1515 139c 1F2003D5 		.p2align 3
 1516              	.L358:
AARCH64 GAS  C:\Users\A01169~1\AppData\Local\Temp\cclmDoLY.s 			page 28


 1517 13a0 220840B9 		ldr	w2, [x1, 8]
 1518 13a4 240440B9 		ldr	w4, [x1, 4]
 1519 13a8 230840B9 		ldr	w3, [x1, 8]
 1520 13ac 5F00036B 		cmp	w2, w3
 1521 13b0 81FFFF54 		bne	.L358
 1522 13b4 E403042A 		uxtw	x4, w4
 1523 13b8 828002AA 		orr	x2, x4, x2, lsl 32
 1524 13bc 4400008B 		add	x4, x2, x0
 1525              		.p2align 3
 1526              	.L359:
 1527 13c0 200840B9 		ldr	w0, [x1, 8]
 1528 13c4 230440B9 		ldr	w3, [x1, 4]
 1529 13c8 220840B9 		ldr	w2, [x1, 8]
 1530 13cc 1F00026B 		cmp	w0, w2
 1531 13d0 81FFFF54 		bne	.L359
 1532 13d4 E303032A 		uxtw	x3, w3
 1533 13d8 608000AA 		orr	x0, x3, x0, lsl 32
 1534 13dc 9F0000EB 		cmp	x4, x0
 1535 13e0 08FFFF54 		bhi	.L359
 1536 13e4 C0035FD6 		ret
 1537              		.size	timer_wait, .-timer_wait
 1538              		.align	2
 1539 13e8 1F2003D5 		.p2align 4,,15
 1539      1F2003D5 
 1540              		.global	tick_difference
 1541              		.type	tick_difference, %function
 1542              	tick_difference:
 1543 13f0 200000CB 		sub	x0, x1, x0
 1544 13f4 C0035FD6 		ret
 1545              		.size	tick_difference, .-tick_difference
 1546              		.align	2
 1547 13f8 1F2003D5 		.p2align 4,,15
 1547      1F2003D5 
 1548              		.global	mailbox_write
 1549              		.type	mailbox_write, %function
 1550              	mailbox_write:
 1551 1400 1F240071 		cmp	w0, 9
 1552 1404 88010054 		bhi	.L368
 1553 1408 02000090 		adrp	x2, RPi_IO_Base_Addr
 1554 140c 420040B9 		ldr	w2, [x2, #:lo12:RPi_IO_Base_Addr]
 1555 1410 216C1C12 		and	w1, w1, -16
 1556 1414 0300012A 		orr	w3, w0, w1
 1557 1418 00109752 		mov	w0, 47232
 1558 141c 4200000B 		add	w2, w2, w0
 1559              		.p2align 3
 1560              	.L367:
 1561 1420 413840B9 		ldr	w1, [x2, 56]
 1562 1424 E1FFFF37 		tbnz	w1, #31, .L367
 1563 1428 20008052 		mov	w0, 1
 1564 142c 432000B9 		str	w3, [x2, 32]
 1565 1430 C0035FD6 		ret
 1566              		.p2align 2
 1567              	.L368:
 1568 1434 00008052 		mov	w0, 0
 1569 1438 C0035FD6 		ret
 1570              		.size	mailbox_write, .-mailbox_write
 1571              		.align	2
AARCH64 GAS  C:\Users\A01169~1\AppData\Local\Temp\cclmDoLY.s 			page 29


 1572 143c 1F2003D5 		.p2align 4,,15
 1573              		.global	mailbox_read
 1574              		.type	mailbox_read, %function
 1575              	mailbox_read:
 1576 1440 1F240071 		cmp	w0, 9
 1577 1444 A8010054 		bhi	.L374
 1578 1448 01000090 		adrp	x1, RPi_IO_Base_Addr
 1579 144c 220040B9 		ldr	w2, [x1, #:lo12:RPi_IO_Base_Addr]
 1580 1450 01109752 		mov	w1, 47232
 1581 1454 4200010B 		add	w2, w2, w1
 1582              		.p2align 3
 1583              	.L372:
 1584 1458 411840B9 		ldr	w1, [x2, 24]
 1585 145c E1FFF737 		tbnz	x1, 30, .L372
 1586 1460 410040B9 		ldr	w1, [x2]
 1587 1464 230C0012 		and	w3, w1, 15
 1588 1468 1F00036B 		cmp	w0, w3
 1589 146c 61FFFF54 		bne	.L372
 1590 1470 206C1C12 		and	w0, w1, -16
 1591 1474 C0035FD6 		ret
 1592              	.L374:
 1593 1478 A0D59B52 		mov	w0, 57005
 1594 147c A0DDBF72 		movk	w0, 0xfeed, lsl 16
 1595 1480 C0035FD6 		ret
 1596              		.size	mailbox_read, .-mailbox_read
 1597              		.align	2
 1598 1484 1F2003D5 		.p2align 4,,15
 1598      1F2003D5 
 1598      1F2003D5 
 1599              		.global	mailbox_tag_message
 1600              		.type	mailbox_tag_message, %function
 1601              	mailbox_tag_message:
 1602 1490 F353B1A9 		stp	x19, x20, [sp, -240]!
 1603 1494 331C0012 		and	w19, w1, 255
 1604 1498 610A0011 		add	w1, w19, 2
 1605 149c F4030191 		add	x20, sp, 64
 1606 14a0 690E0011 		add	w9, w19, 3
 1607 14a4 217C4093 		sxtw	x1, w1
 1608 14a8 F57B01A9 		stp	x21, x30, [sp, 16]
 1609 14ac 29751E53 		lsl	w9, w9, 2
 1610 14b0 E94300B9 		str	w9, [sp, 64]
 1611 14b4 EA030391 		add	x10, sp, 192
 1612 14b8 9F7A21B8 		str	wzr, [x20, x1, lsl 2]
 1613 14bc E8058012 		mov	w8, -48
 1614 14c0 F50300AA 		mov	x21, x0
 1615 14c4 E0C30391 		add	x0, sp, 240
 1616 14c8 E00302A9 		stp	x0, x0, [sp, 32]
 1617 14cc EA1B00F9 		str	x10, [sp, 48]
 1618 14d0 E87F0729 		stp	w8, wzr, [sp, 56]
 1619 14d4 FF4700B9 		str	wzr, [sp, 68]
 1620 14d8 E20F0CA9 		stp	x2, x3, [sp, 192]
 1621 14dc E4170DA9 		stp	x4, x5, [sp, 208]
 1622 14e0 E61F0EA9 		stp	x6, x7, [sp, 224]
 1623 14e4 73050034 		cbz	w19, .L389
 1624 14e8 E203082A 		mov	w2, w8
 1625 14ec E503082A 		mov	w5, w8
 1626 14f0 E403082A 		mov	w4, w8
AARCH64 GAS  C:\Users\A01169~1\AppData\Local\Temp\cclmDoLY.s 			page 30


 1627 14f4 E3C30391 		add	x3, sp, 240
 1628 14f8 01008052 		mov	w1, 0
 1629 14fc 00008052 		mov	w0, 0
 1630              		.p2align 3
 1631              	.L381:
 1632 1500 8400F836 		tbz	w4, #31, .L383
 1633 1504 84200011 		add	w4, w4, 8
 1634 1508 21008052 		mov	w1, 1
 1635 150c E503042A 		mov	w5, w4
 1636              	.L383:
 1637 1510 00040011 		add	w0, w0, 1
 1638 1514 7F02006B 		cmp	w19, w0
 1639 1518 41FFFF54 		bne	.L381
 1640 151c 41000034 		cbz	w1, .L384
 1641 1520 E53B00B9 		str	w5, [sp, 56]
 1642              	.L384:
 1643 1524 61060051 		sub	w1, w19, #1
 1644 1528 80120091 		add	x0, x20, 4
 1645 152c E50314AA 		mov	x5, x20
 1646 1530 0148218B 		add	x1, x0, x1, uxtw 2
 1647 1534 09000014 		b	.L388
 1648              		.p2align 2
 1649              	.L411:
 1650 1538 E40303AA 		mov	x4, x3
 1651 153c 1F0001EB 		cmp	x0, x1
 1652 1540 63200091 		add	x3, x3, 8
 1653 1544 840040B9 		ldr	w4, [x4]
 1654 1548 A40800B9 		str	w4, [x5, 8]
 1655 154c E50300AA 		mov	x5, x0
 1656 1550 00100091 		add	x0, x0, 4
 1657 1554 E0010054 		beq	.L389
 1658              	.L388:
 1659 1558 46200011 		add	w6, w2, 8
 1660 155c E2FEFF36 		tbz	w2, #31, .L411
 1661 1560 E4C30391 		add	x4, sp, 240
 1662 1564 DF000071 		cmp	w6, 0
 1663 1568 84C0228B 		add	x4, x4, x2, sxtw
 1664 156c E203062A 		mov	w2, w6
 1665 1570 4CFEFF54 		bgt	.L411
 1666 1574 840040B9 		ldr	w4, [x4]
 1667 1578 1F0001EB 		cmp	x0, x1
 1668 157c A40800B9 		str	w4, [x5, 8]
 1669 1580 E50300AA 		mov	x5, x0
 1670 1584 00100091 		add	x0, x0, 4
 1671 1588 81FEFF54 		bne	.L388
 1672 158c 1F2003D5 		.p2align 3
 1673              	.L389:
 1674 1590 E00314AA 		mov	x0, x20
 1675 1594 00000094 		bl	ARMaddrToGPUaddr
 1676 1598 01000090 		adrp	x1, RPi_IO_Base_Addr
 1677 159c 220040B9 		ldr	w2, [x1, #:lo12:RPi_IO_Base_Addr]
 1678 15a0 006C1C12 		and	w0, w0, -16
 1679 15a4 01001D32 		orr	w1, w0, 8
 1680 15a8 00109752 		mov	w0, 47232
 1681 15ac 4200000B 		add	w2, w2, w0
 1682              		.p2align 3
 1683              	.L379:
AARCH64 GAS  C:\Users\A01169~1\AppData\Local\Temp\cclmDoLY.s 			page 31


 1684 15b0 403840B9 		ldr	w0, [x2, 56]
 1685 15b4 E0FFFF37 		tbnz	w0, #31, .L379
 1686 15b8 412000B9 		str	w1, [x2, 32]
 1687 15bc 1F2003D5 		.p2align 3
 1688              	.L390:
 1689 15c0 401840B9 		ldr	w0, [x2, 24]
 1690 15c4 E0FFF737 		tbnz	x0, 30, .L390
 1691 15c8 400040B9 		ldr	w0, [x2]
 1692 15cc 000C0012 		and	w0, w0, 15
 1693 15d0 1F200071 		cmp	w0, 8
 1694 15d4 61FFFF54 		bne	.L390
 1695 15d8 E24740B9 		ldr	w2, [sp, 68]
 1696 15dc 0100B052 		mov	w1, -2147483648
 1697 15e0 00008052 		mov	w0, 0
 1698 15e4 5F00016B 		cmp	w2, w1
 1699 15e8 80000054 		beq	.L413
 1700 15ec F57B41A9 		ldp	x21, x30, [sp, 16]
 1701 15f0 F353CFA8 		ldp	x19, x20, [sp], 240
 1702 15f4 C0035FD6 		ret
 1703              		.p2align 2
 1704              	.L413:
 1705 15f8 550100B4 		cbz	x21, .L394
 1706 15fc 33010034 		cbz	w19, .L394
 1707 1600 000080D2 		mov	x0, 0
 1708 1604 1F2003D5 		.p2align 3
 1709              	.L395:
 1710 1608 810A008B 		add	x1, x20, x0, lsl 2
 1711 160c 210840B9 		ldr	w1, [x1, 8]
 1712 1610 A17A20B8 		str	w1, [x21, x0, lsl 2]
 1713 1614 00040091 		add	x0, x0, 1
 1714 1618 7F02006B 		cmp	w19, w0
 1715 161c 6CFFFF54 		bgt	.L395
 1716              	.L394:
 1717 1620 20008052 		mov	w0, 1
 1718 1624 F57B41A9 		ldp	x21, x30, [sp, 16]
 1719 1628 F353CFA8 		ldp	x19, x20, [sp], 240
 1720 162c C0035FD6 		ret
 1721              		.size	mailbox_tag_message, .-mailbox_tag_message
 1722              		.align	2
 1723              		.p2align 4,,15
 1724              		.global	set_Activity_LED
 1725              		.type	set_Activity_LED, %function
 1726              	set_Activity_LED:
 1727 1630 01000090 		adrp	x1, RPi_CpuId
 1728 1634 210040B9 		ldr	w1, [x1, #:lo12:RPi_CpuId]
 1729 1638 F37BBEA9 		stp	x19, x30, [sp, -32]!
 1730 163c 131C0012 		and	w19, w0, 255
 1731 1640 203C44D3 		ubfx	x0, x1, 4, 12
 1732 1644 1F1C3071 		cmp	w0, 3079
 1733 1648 20010054 		beq	.L415
 1734 164c 1F0C3471 		cmp	w0, 3331
 1735 1650 60040054 		beq	.L416
 1736 1654 1FD82D71 		cmp	w0, 2934
 1737 1658 C0010054 		beq	.L429
 1738 165c 13008052 		mov	w19, 0
 1739              	.L417:
 1740 1660 E003132A 		mov	w0, w19
AARCH64 GAS  C:\Users\A01169~1\AppData\Local\Temp\cclmDoLY.s 			page 32


 1741 1664 F37BC2A8 		ldp	x19, x30, [sp], 32
 1742 1668 C0035FD6 		ret
 1743              		.p2align 2
 1744              	.L415:
 1745 166c 00000090 		adrp	x0, RPi_IO_Base_Addr
 1746 1670 000040B9 		ldr	w0, [x0, #:lo12:RPi_IO_Base_Addr]
 1747 1674 01009052 		mov	w1, 32768
 1748 1678 00004811 		add	w0, w0, 2097152
 1749 167c B3040034 		cbz	w19, .L424
 1750 1680 012000B9 		str	w1, [x0, 32]
 1751 1684 E003132A 		mov	w0, w19
 1752 1688 F37BC2A8 		ldp	x19, x30, [sp], 32
 1753 168c C0035FD6 		ret
 1754              		.p2align 2
 1755              	.L429:
 1756 1690 00000090 		adrp	x0, .LANCHOR0
 1757 1694 01004039 		ldrb	w1, [x0, #:lo12:.LANCHOR0]
 1758 1698 A1040034 		cbz	w1, .L418
 1759              	.L428:
 1760 169c 00000090 		adrp	x0, .LANCHOR1
 1761 16a0 000040B9 		ldr	w0, [x0, #:lo12:.LANCHOR1]
 1762 16a4 1FD80071 		cmp	w0, 54
 1763 16a8 E8030054 		bhi	.L426
 1764              	.L422:
 1765 16ac 027C0553 		lsr	w2, w0, 5
 1766 16b0 01000090 		adrp	x1, RPi_IO_Base_Addr
 1767 16b4 210040B9 		ldr	w1, [x1, #:lo12:RPi_IO_Base_Addr]
 1768 16b8 23008052 		mov	w3, 1
 1769 16bc 6020C01A 		lsl	w0, w3, w0
 1770 16c0 42687ED3 		ubfiz	x2, x2, 2, 27
 1771 16c4 21004811 		add	w1, w1, 2097152
 1772 16c8 D3050034 		cbz	w19, .L423
 1773 16cc 42400091 		add	x2, x2, 16
 1774 16d0 2100028B 		add	x1, x1, x2
 1775 16d4 200C00B9 		str	w0, [x1, 12]
 1776 16d8 E2FFFF17 		b	.L417
 1777              		.p2align 2
 1778              	.L416:
 1779 16dc E603132A 		mov	w6, w19
 1780 16e0 04018052 		mov	w4, 8
 1781 16e4 45108052 		mov	w5, 130
 1782 16e8 E303042A 		mov	w3, w4
 1783 16ec A1008052 		mov	w1, 5
 1784 16f0 22089052 		mov	w2, 32833
 1785 16f4 6200A072 		movk	w2, 0x3, lsl 16
 1786 16f8 000080D2 		mov	x0, 0
 1787 16fc 69FDFF97 		bl	mailbox_tag_message.constprop.4
 1788 1700 131C0012 		and	w19, w0, 255
 1789 1704 E003132A 		mov	w0, w19
 1790 1708 F37BC2A8 		ldp	x19, x30, [sp], 32
 1791 170c C0035FD6 		ret
 1792              		.p2align 2
 1793              	.L424:
 1794 1710 012C00B9 		str	w1, [x0, 44]
 1795 1714 33008052 		mov	w19, 1
 1796 1718 E003132A 		mov	w0, w19
 1797 171c F37BC2A8 		ldp	x19, x30, [sp], 32
AARCH64 GAS  C:\Users\A01169~1\AppData\Local\Temp\cclmDoLY.s 			page 33


 1798 1720 C0035FD6 		ret
 1799              		.p2align 2
 1800              	.L426:
 1801 1724 33008052 		mov	w19, 1
 1802 1728 CEFFFF17 		b	.L417
 1803              		.p2align 2
 1804              	.L418:
 1805 172c 21008052 		mov	w1, 1
 1806 1730 83008052 		mov	w3, 4
 1807 1734 01000039 		strb	w1, [x0, #:lo12:.LANCHOR0]
 1808 1738 42008052 		mov	w2, 2
 1809 173c 2200A072 		movk	w2, 0x1, lsl 16
 1810 1740 E103032A 		mov	w1, w3
 1811 1744 05008052 		mov	w5, 0
 1812 1748 04008052 		mov	w4, 0
 1813 174c E0430091 		add	x0, sp, 16
 1814 1750 08FEFF97 		bl	mailbox_tag_message.constprop.6
 1815 1754 1F1C0072 		tst	w0, 255
 1816 1758 20FAFF54 		beq	.L428
 1817 175c E01F40B9 		ldr	w0, [sp, 28]
 1818 1760 02000090 		adrp	x2, .LANCHOR1
 1819 1764 00080051 		sub	w0, w0, #2
 1820 1768 1F340071 		cmp	w0, 13
 1821 176c 48010054 		bhi	.L421
 1822 1770 01028052 		mov	w1, 16
 1823 1774 E003012A 		mov	w0, w1
 1824 1778 410000B9 		str	w1, [x2, #:lo12:.LANCHOR1]
 1825 177c CCFFFF17 		b	.L422
 1826              		.p2align 2
 1827              	.L423:
 1828 1780 42800091 		add	x2, x2, 32
 1829 1784 F303032A 		mov	w19, w3
 1830 1788 2100028B 		add	x1, x1, x2
 1831 178c 200800B9 		str	w0, [x1, 8]
 1832 1790 B4FFFF17 		b	.L417
 1833              		.p2align 2
 1834              	.L421:
 1835 1794 E1058052 		mov	w1, 47
 1836 1798 E003012A 		mov	w0, w1
 1837 179c 410000B9 		str	w1, [x2, #:lo12:.LANCHOR1]
 1838 17a0 C3FFFF17 		b	.L422
 1839              		.size	set_Activity_LED, .-set_Activity_LED
 1840              		.align	2
 1841 17a4 1F2003D5 		.p2align 4,,15
 1841      1F2003D5 
 1841      1F2003D5 
 1842              		.global	ARM_setmaxspeed
 1843              		.type	ARM_setmaxspeed, %function
 1844              	ARM_setmaxspeed:
 1845 17b0 F353BCA9 		stp	x19, x20, [sp, -64]!
 1846 17b4 04018052 		mov	w4, 8
 1847 17b8 F40300AA 		mov	x20, x0
 1848 17bc E303042A 		mov	w3, w4
 1849 17c0 E0A30091 		add	x0, sp, 40
 1850 17c4 82008052 		mov	w2, 4
 1851 17c8 6200A072 		movk	w2, 0x3, lsl 16
 1852 17cc 06008052 		mov	w6, 0
AARCH64 GAS  C:\Users\A01169~1\AppData\Local\Temp\cclmDoLY.s 			page 34


 1853 17d0 65008052 		mov	w5, 3
 1854 17d4 A1008052 		mov	w1, 5
 1855 17d8 FE0B00F9 		str	x30, [sp, 16]
 1856 17dc B1FDFF97 		bl	mailbox_tag_message.constprop.5
 1857 17e0 1F1C0072 		tst	w0, 255
 1858 17e4 C1000054 		bne	.L431
 1859              	.L433:
 1860 17e8 13008052 		mov	w19, 0
 1861              	.L432:
 1862 17ec E003132A 		mov	w0, w19
 1863 17f0 FE0B40F9 		ldr	x30, [sp, 16]
 1864 17f4 F353C4A8 		ldp	x19, x20, [sp], 64
 1865 17f8 C0035FD6 		ret
 1866              		.p2align 2
 1867              	.L431:
 1868 17fc E63B40B9 		ldr	w6, [sp, 56]
 1869 1800 04018052 		mov	w4, 8
 1870 1804 E0A30091 		add	x0, sp, 40
 1871 1808 42009052 		mov	w2, 32770
 1872 180c 6200A072 		movk	w2, 0x3, lsl 16
 1873 1810 E303042A 		mov	w3, w4
 1874 1814 65008052 		mov	w5, 3
 1875 1818 A1008052 		mov	w1, 5
 1876 181c A1FDFF97 		bl	mailbox_tag_message.constprop.5
 1877 1820 131C0072 		ands	w19, w0, 255
 1878 1824 20FEFF54 		beq	.L433
 1879 1828 34FEFFB4 		cbz	x20, .L432
 1880 182c E13B40B9 		ldr	w1, [sp, 56]
 1881 1830 00000090 		adrp	x0, .LC0
 1882 1834 00000091 		add	x0, x0, :lo12:.LC0
 1883 1838 80023FD6 		blr	x20
 1884 183c ECFFFF17 		b	.L432
 1885              		.size	ARM_setmaxspeed, .-ARM_setmaxspeed
 1886              		.align	2
 1887              		.p2align 4,,15
 1888              		.global	displaySmartStart
 1889              		.type	displaySmartStart, %function
 1890              	displaySmartStart:
 1891 1840 600300B4 		cbz	x0, .L441
 1892 1844 03000090 		adrp	x3, RPi_CompileMode
 1893 1848 610040B9 		ldr	w1, [x3, #:lo12:RPi_CompileMode]
 1894 184c F37BBFA9 		stp	x19, x30, [sp, -16]!
 1895 1850 F30300AA 		mov	x19, x0
 1896 1854 620040B9 		ldr	w2, [x3, #:lo12:RPi_CompileMode]
 1897 1858 630040B9 		ldr	w3, [x3, #:lo12:RPi_CompileMode]
 1898 185c 210C0012 		and	w1, w1, 15
 1899 1860 00000090 		adrp	x0, .LC1
 1900 1864 00000091 		add	x0, x0, :lo12:.LC1
 1901 1868 421044D3 		ubfx	x2, x2, 4, 1
 1902 186c 42040011 		add	w2, w2, 1
 1903 1870 631C45D3 		ubfx	x3, x3, 5, 3
 1904 1874 42681B53 		lsl	w2, w2, 5
 1905 1878 60023FD6 		blr	x19
 1906 187c 00000094 		bl	RPi_CpuIdString
 1907 1880 01000090 		adrp	x1, RPi_CoresReady
 1908 1884 E40313AA 		mov	x4, x19
 1909 1888 F37BC1A8 		ldp	x19, x30, [sp], 16
AARCH64 GAS  C:\Users\A01169~1\AppData\Local\Temp\cclmDoLY.s 			page 35


 1910 188c 02000090 		adrp	x2, RPi_CpuId
 1911 1890 420040B9 		ldr	w2, [x2, #:lo12:RPi_CpuId]
 1912 1894 230040B9 		ldr	w3, [x1, #:lo12:RPi_CoresReady]
 1913 1898 E10300AA 		mov	x1, x0
 1914 189c 00000090 		adrp	x0, .LC2
 1915 18a0 00000091 		add	x0, x0, :lo12:.LC2
 1916 18a4 423C44D3 		ubfx	x2, x2, 4, 12
 1917 18a8 80001FD6 		br	x4
 1918              		.p2align 2
 1919              	.L441:
 1920 18ac C0035FD6 		ret
 1921              		.size	displaySmartStart, .-displaySmartStart
 1922              		.align	2
 1923              		.p2align 4,,15
 1924              		.global	Embedded_Console_WriteChar
 1925              		.type	Embedded_Console_WriteChar, %function
 1926              	Embedded_Console_WriteChar:
 1927 18b0 011C0012 		and	w1, w0, 255
 1928 18b4 3F280071 		cmp	w1, 10
 1929 18b8 C0020054 		beq	.L447
 1930 18bc 3F340071 		cmp	w1, 13
 1931 18c0 A0040054 		beq	.L448
 1932 18c4 3F240071 		cmp	w1, 9
 1933 18c8 00030054 		beq	.L456
 1934 18cc F37BBFA9 		stp	x19, x30, [sp, -16]!
 1935 18d0 13000090 		adrp	x19, .LANCHOR0
 1936 18d4 73020091 		add	x19, x19, :lo12:.LANCHOR0
 1937 18d8 73120091 		add	x19, x19, 4
 1938 18dc E00313AA 		mov	x0, x19
 1939 18e0 648E4329 		ldp	w4, w3, [x19, 28]
 1940 18e4 650A4A29 		ldp	w5, w2, [x19, 80]
 1941 18e8 84701D53 		lsl	w4, w4, 3
 1942 18ec 636C1C53 		lsl	w3, w3, 4
 1943 18f0 648E0229 		stp	w4, w3, [x19, 20]
 1944 18f4 A28002AA 		orr	x2, x5, x2, lsl 32
 1945 18f8 40003FD6 		blr	x2
 1946 18fc 601E40B9 		ldr	w0, [x19, 28]
 1947 1900 00040011 		add	w0, w0, 1
 1948 1904 601E00B9 		str	w0, [x19, 28]
 1949 1908 F37BC1A8 		ldp	x19, x30, [sp], 16
 1950 190c C0035FD6 		ret
 1951              		.p2align 2
 1952              	.L447:
 1953 1910 00000090 		adrp	x0, .LANCHOR0
 1954 1914 00000091 		add	x0, x0, :lo12:.LANCHOR0
 1955 1918 012440B9 		ldr	w1, [x0, 36]
 1956 191c 21040011 		add	w1, w1, 1
 1957 1920 1F040429 		stp	wzr, w1, [x0, 32]
 1958 1924 C0035FD6 		ret
 1959              		.p2align 2
 1960              	.L456:
 1961 1928 01000090 		adrp	x1, .LANCHOR0
 1962 192c 21000091 		add	x1, x1, :lo12:.LANCHOR0
 1963 1930 202040B9 		ldr	w0, [x1, 32]
 1964 1934 00140011 		add	w0, w0, 5
 1965 1938 E203006B 		negs	w2, w0
 1966 193c 03040012 		and	w3, w0, 3
AARCH64 GAS  C:\Users\A01169~1\AppData\Local\Temp\cclmDoLY.s 			page 36


 1967 1940 42040012 		and	w2, w2, 3
 1968 1944 6244825A 		csneg	w2, w3, w2, mi
 1969 1948 0000024B 		sub	w0, w0, w2
 1970 194c 202000B9 		str	w0, [x1, 32]
 1971 1950 C0035FD6 		ret
 1972              		.p2align 2
 1973              	.L448:
 1974 1954 00000090 		adrp	x0, .LANCHOR0+32
 1975 1958 1F0000B9 		str	wzr, [x0, #:lo12:.LANCHOR0+32]
 1976 195c C0035FD6 		ret
 1977              		.size	Embedded_Console_WriteChar, .-Embedded_Console_WriteChar
 1978              		.align	2
 1979              		.p2align 4,,15
 1980              		.global	WriteText
 1981              		.type	WriteText, %function
 1982              	WriteText:
 1983 1960 420700B4 		cbz	x2, .L474
 1984 1964 F353BDA9 		stp	x19, x20, [sp, -48]!
 1985 1968 E303002A 		mov	w3, w0
 1986 196c F30302AA 		mov	x19, x2
 1987 1970 F55B01A9 		stp	x21, x22, [sp, 16]
 1988 1974 15000090 		adrp	x21, .LANCHOR0
 1989 1978 B5020091 		add	x21, x21, :lo12:.LANCHOR0
 1990 197c E00302AA 		mov	x0, x2
 1991 1980 FE1300F9 		str	x30, [sp, 32]
 1992 1984 A3060429 		stp	w3, w1, [x21, 32]
 1993 1988 00000094 		bl	strlen
 1994 198c C00300B4 		cbz	x0, .L457
 1995 1990 7602008B 		add	x22, x19, x0
 1996 1994 10000014 		b	.L464
 1997              		.p2align 2
 1998              	.L478:
 1999 1998 7F240071 		cmp	w3, 9
 2000 199c 40040054 		beq	.L477
 2001 19a0 848E4329 		ldp	w4, w3, [x20, 28]
 2002 19a4 850A4A29 		ldp	w5, w2, [x20, 80]
 2003 19a8 84701D53 		lsl	w4, w4, 3
 2004 19ac 636C1C53 		lsl	w3, w3, 4
 2005 19b0 848E0229 		stp	w4, w3, [x20, 20]
 2006 19b4 A28002AA 		orr	x2, x5, x2, lsl 32
 2007 19b8 40003FD6 		blr	x2
 2008 19bc 801E40B9 		ldr	w0, [x20, 28]
 2009 19c0 00040011 		add	w0, w0, 1
 2010 19c4 801E00B9 		str	w0, [x20, 28]
 2011              	.L463:
 2012 19c8 73060091 		add	x19, x19, 1
 2013 19cc DF0213EB 		cmp	x22, x19
 2014 19d0 A0010054 		beq	.L457
 2015              	.L464:
 2016 19d4 63024039 		ldrb	w3, [x19]
 2017 19d8 7F280071 		cmp	w3, 10
 2018 19dc C0010054 		beq	.L459
 2019 19e0 B4120091 		add	x20, x21, 4
 2020 19e4 E103032A 		mov	w1, w3
 2021 19e8 E00314AA 		mov	x0, x20
 2022 19ec 7F340071 		cmp	w3, 13
 2023 19f0 41FDFF54 		bne	.L478
AARCH64 GAS  C:\Users\A01169~1\AppData\Local\Temp\cclmDoLY.s 			page 37


 2024 19f4 BF2200B9 		str	wzr, [x21, 32]
 2025 19f8 73060091 		add	x19, x19, 1
 2026 19fc DF0213EB 		cmp	x22, x19
 2027 1a00 A1FEFF54 		bne	.L464
 2028              	.L457:
 2029 1a04 F55B41A9 		ldp	x21, x22, [sp, 16]
 2030 1a08 FE1340F9 		ldr	x30, [sp, 32]
 2031 1a0c F353C3A8 		ldp	x19, x20, [sp], 48
 2032 1a10 C0035FD6 		ret
 2033              		.p2align 2
 2034              	.L459:
 2035 1a14 A12640B9 		ldr	w1, [x21, 36]
 2036 1a18 21040011 		add	w1, w1, 1
 2037 1a1c BF060429 		stp	wzr, w1, [x21, 32]
 2038 1a20 EAFFFF17 		b	.L463
 2039              		.p2align 2
 2040              	.L477:
 2041 1a24 A12240B9 		ldr	w1, [x21, 32]
 2042 1a28 21140011 		add	w1, w1, 5
 2043 1a2c E203016B 		negs	w2, w1
 2044 1a30 23040012 		and	w3, w1, 3
 2045 1a34 42040012 		and	w2, w2, 3
 2046 1a38 6244825A 		csneg	w2, w3, w2, mi
 2047 1a3c 2100024B 		sub	w1, w1, w2
 2048 1a40 A12200B9 		str	w1, [x21, 32]
 2049 1a44 E1FFFF17 		b	.L463
 2050              		.p2align 2
 2051              	.L474:
 2052 1a48 C0035FD6 		ret
 2053              		.size	WriteText, .-WriteText
 2054              		.align	2
 2055 1a4c 1F2003D5 		.p2align 4,,15
 2056              		.global	SetDCPenColor
 2057              		.type	SetDCPenColor, %function
 2058              	SetDCPenColor:
 2059 1a50 E20300AA 		mov	x2, x0
 2060 1a54 00008052 		mov	w0, 0
 2061 1a58 620000B4 		cbz	x2, .L479
 2062 1a5c 402440B9 		ldr	w0, [x2, 36]
 2063 1a60 412400B9 		str	w1, [x2, 36]
 2064              	.L479:
 2065 1a64 C0035FD6 		ret
 2066              		.size	SetDCPenColor, .-SetDCPenColor
 2067              		.align	2
 2068 1a68 1F2003D5 		.p2align 4,,15
 2068      1F2003D5 
 2069              		.global	SetDCBrushColor
 2070              		.type	SetDCBrushColor, %function
 2071              	SetDCBrushColor:
 2072 1a70 E20300AA 		mov	x2, x0
 2073 1a74 00008052 		mov	w0, 0
 2074 1a78 620000B4 		cbz	x2, .L482
 2075 1a7c 402C40B9 		ldr	w0, [x2, 44]
 2076 1a80 412C00B9 		str	w1, [x2, 44]
 2077              	.L482:
 2078 1a84 C0035FD6 		ret
 2079              		.size	SetDCBrushColor, .-SetDCBrushColor
AARCH64 GAS  C:\Users\A01169~1\AppData\Local\Temp\cclmDoLY.s 			page 38


 2080              		.align	2
 2081 1a88 1F2003D5 		.p2align 4,,15
 2081      1F2003D5 
 2082              		.global	MoveToEx
 2083              		.type	MoveToEx, %function
 2084              	MoveToEx:
 2085 1a90 E40300AA 		mov	x4, x0
 2086 1a94 00008052 		mov	w0, 0
 2087 1a98 440000B5 		cbnz	x4, .L492
 2088 1a9c C0035FD6 		ret
 2089              		.p2align 2
 2090              	.L492:
 2091 1aa0 A30000B4 		cbz	x3, .L487
 2092 1aa4 801440B9 		ldr	w0, [x4, 20]
 2093 1aa8 600000B9 		str	w0, [x3]
 2094 1aac 801840B9 		ldr	w0, [x4, 24]
 2095 1ab0 600400B9 		str	w0, [x3, 4]
 2096              	.L487:
 2097 1ab4 20008052 		mov	w0, 1
 2098 1ab8 81880229 		stp	w1, w2, [x4, 20]
 2099 1abc C0035FD6 		ret
 2100              		.size	MoveToEx, .-MoveToEx
 2101              		.align	2
 2102              		.p2align 4,,15
 2103              		.global	LineTo
 2104              		.type	LineTo, %function
 2105              	LineTo:
 2106 1ac0 600000B5 		cbnz	x0, .L512
 2107 1ac4 00008052 		mov	w0, 0
 2108 1ac8 C0035FD6 		ret
 2109              		.p2align 2
 2110              	.L512:
 2111 1acc 058C4229 		ldp	w5, w3, [x0, 20]
 2112 1ad0 FE0F1FF8 		str	x30, [sp, -16]!
 2113 1ad4 BF00016B 		cmp	w5, w1
 2114 1ad8 AC010054 		bgt	.L513
 2115 1adc 2500054B 		sub	w5, w1, w5
 2116 1ae0 5F00036B 		cmp	w2, w3
 2117 1ae4 0A030054 		bge	.L498
 2118 1ae8 6100024B 		sub	w1, w3, w2
 2119 1aec 02008012 		mov	w2, -1
 2120 1af0 45040035 		cbnz	w5, .L514
 2121              	.L499:
 2122 1af4 040C4729 		ldp	w4, w3, [x0, 56]
 2123 1af8 838003AA 		orr	x3, x4, x3, lsl 32
 2124 1afc 60003FD6 		blr	x3
 2125 1b00 20008052 		mov	w0, 1
 2126              	.L493:
 2127 1b04 FE0741F8 		ldr	x30, [sp], 16
 2128 1b08 C0035FD6 		ret
 2129              		.p2align 2
 2130              	.L513:
 2131 1b0c A500014B 		sub	w5, w5, w1
 2132 1b10 5F00036B 		cmp	w2, w3
 2133 1b14 CA020054 		bge	.L515
 2134 1b18 6100024B 		sub	w1, w3, w2
 2135 1b1c 02008012 		mov	w2, -1
AARCH64 GAS  C:\Users\A01169~1\AppData\Local\Temp\cclmDoLY.s 			page 39


 2136 1b20 E403022A 		mov	w4, w2
 2137              	.L500:
 2138 1b24 07184929 		ldp	w7, w6, [x0, 72]
 2139 1b28 E303022A 		mov	w3, w2
 2140 1b2c E203012A 		mov	w2, w1
 2141 1b30 E103052A 		mov	w1, w5
 2142 1b34 E58006AA 		orr	x5, x7, x6, lsl 32
 2143 1b38 A0003FD6 		blr	x5
 2144 1b3c 20008052 		mov	w0, 1
 2145 1b40 F1FFFF17 		b	.L493
 2146              		.p2align 2
 2147              	.L498:
 2148 1b44 4100034B 		sub	w1, w2, w3
 2149 1b48 22008052 		mov	w2, 1
 2150 1b4c 45FDFF34 		cbz	w5, .L499
 2151              		.p2align 3
 2152              	.L501:
 2153 1b50 A1010035 		cbnz	w1, .L505
 2154 1b54 040C4829 		ldp	w4, w3, [x0, 64]
 2155 1b58 E103052A 		mov	w1, w5
 2156 1b5c 838003AA 		orr	x3, x4, x3, lsl 32
 2157 1b60 60003FD6 		blr	x3
 2158 1b64 20008052 		mov	w0, 1
 2159 1b68 E7FFFF17 		b	.L493
 2160              		.p2align 2
 2161              	.L515:
 2162 1b6c 4100034B 		sub	w1, w2, w3
 2163 1b70 02008012 		mov	w2, -1
 2164 1b74 F7FFFF17 		b	.L501
 2165              	.L514:
 2166 1b78 E403022A 		mov	w4, w2
 2167 1b7c 22008052 		mov	w2, 1
 2168 1b80 E9FFFF17 		b	.L500
 2169              	.L505:
 2170 1b84 24008052 		mov	w4, 1
 2171 1b88 E7FFFF17 		b	.L500
 2172              		.size	LineTo, .-LineTo
 2173              		.align	2
 2174 1b8c 1F2003D5 		.p2align 4,,15
 2175              		.global	TextOut
 2176              		.type	TextOut, %function
 2177              	TextOut:
 2178 1b90 9F000071 		cmp	w4, 0
 2179 1b94 641840FA 		ccmp	x3, 0, 4, ne
 2180 1b98 61000054 		bne	.L529
 2181 1b9c 00008052 		mov	w0, 0
 2182 1ba0 C0035FD6 		ret
 2183              		.p2align 2
 2184              	.L529:
 2185 1ba4 F353BDA9 		stp	x19, x20, [sp, -48]!
 2186 1ba8 9F000071 		cmp	w4, 0
 2187 1bac F403012A 		mov	w20, w1
 2188 1bb0 F77B02A9 		stp	x23, x30, [sp, 32]
 2189 1bb4 F703022A 		mov	w23, w2
 2190 1bb8 4D020054 		ble	.L520
 2191 1bbc 13000090 		adrp	x19, .LANCHOR0
 2192 1bc0 73020091 		add	x19, x19, :lo12:.LANCHOR0
AARCH64 GAS  C:\Users\A01169~1\AppData\Local\Temp\cclmDoLY.s 			page 40


 2193 1bc4 73120091 		add	x19, x19, 4
 2194 1bc8 F55B01A9 		stp	x21, x22, [sp, 16]
 2195 1bcc F50303AA 		mov	x21, x3
 2196 1bd0 360C040B 		add	w22, w1, w4, lsl 3
 2197 1bd4 1F2003D5 		.p2align 3
 2198              	.L519:
 2199 1bd8 74DE0229 		stp	w20, w23, [x19, 20]
 2200 1bdc E00313AA 		mov	x0, x19
 2201 1be0 630A4A29 		ldp	w3, w2, [x19, 80]
 2202 1be4 94220011 		add	w20, w20, 8
 2203 1be8 A1164038 		ldrb	w1, [x21], 1
 2204 1bec 628002AA 		orr	x2, x3, x2, lsl 32
 2205 1bf0 40003FD6 		blr	x2
 2206 1bf4 9F02166B 		cmp	w20, w22
 2207 1bf8 01FFFF54 		bne	.L519
 2208 1bfc F55B41A9 		ldp	x21, x22, [sp, 16]
 2209              	.L520:
 2210 1c00 20008052 		mov	w0, 1
 2211 1c04 F77B42A9 		ldp	x23, x30, [sp, 32]
 2212 1c08 F353C3A8 		ldp	x19, x20, [sp], 48
 2213 1c0c C0035FD6 		ret
 2214              		.size	TextOut, .-TextOut
 2215              		.align	2
 2216              		.p2align 4,,15
 2217              		.global	BmpOut
 2218              		.type	BmpOut, %function
 2219              	BmpOut:
 2220 1c10 600000B5 		cbnz	x0, .L537
 2221 1c14 00008052 		mov	w0, 0
 2222 1c18 C0035FD6 		ret
 2223              		.p2align 2
 2224              	.L537:
 2225 1c1c FE0F1EF8 		str	x30, [sp, -32]!
 2226 1c20 E803032A 		mov	w8, w3
 2227 1c24 E30305AA 		mov	x3, x5
 2228 1c28 4700040B 		add	w7, w2, w4
 2229 1c2c E50F00F9 		str	x5, [sp, 24]
 2230 1c30 E203042A 		mov	w2, w4
 2231 1c34 019C0229 		stp	w1, w7, [x0, 20]
 2232 1c38 24008052 		mov	w4, 1
 2233 1c3c 09144B29 		ldp	w9, w5, [x0, 88]
 2234 1c40 E103082A 		mov	w1, w8
 2235 1c44 258105AA 		orr	x5, x9, x5, lsl 32
 2236 1c48 A0003FD6 		blr	x5
 2237 1c4c 20008052 		mov	w0, 1
 2238 1c50 FE0742F8 		ldr	x30, [sp], 32
 2239 1c54 C0035FD6 		ret
 2240              		.size	BmpOut, .-BmpOut
 2241              		.align	2
 2242 1c58 1F2003D5 		.p2align 4,,15
 2242      1F2003D5 
 2243              		.global	CvtBmpLine
 2244              		.type	CvtBmpLine, %function
 2245              	CvtBmpLine:
 2246 1c60 100482D2 		mov	x16, 4128
 2247 1c64 FF6330CB 		sub	sp, sp, x16
 2248 1c68 E6830091 		add	x6, sp, 32
AARCH64 GAS  C:\Users\A01169~1\AppData\Local\Temp\cclmDoLY.s 			page 41


 2249 1c6c FE0300F9 		str	x30, [sp]
 2250 1c70 E60F00F9 		str	x6, [sp, 24]
 2251 1c74 C00000B5 		cbnz	x0, .L590
 2252 1c78 00008052 		mov	w0, 0
 2253 1c7c 100482D2 		mov	x16, 4128
 2254 1c80 FE0340F9 		ldr	x30, [sp]
 2255 1c84 FF63308B 		add	sp, sp, x16
 2256 1c88 C0035FD6 		ret
 2257              		.p2align 2
 2258              	.L590:
 2259 1c8c 01880229 		stp	w1, w2, [x0, 20]
 2260 1c90 021040B9 		ldr	w2, [x0, 16]
 2261 1c94 5F00046B 		cmp	w2, w4
 2262 1c98 E0000054 		beq	.L543
 2263 1c9c 5F600071 		cmp	w2, 24
 2264 1ca0 80090054 		beq	.L541
 2265 1ca4 5F800071 		cmp	w2, 32
 2266 1ca8 00070054 		beq	.L542
 2267 1cac 5F400071 		cmp	w2, 16
 2268 1cb0 A0010054 		beq	.L591
 2269              	.L543:
 2270 1cb4 06144B29 		ldp	w6, w5, [x0, 88]
 2271 1cb8 E103032A 		mov	w1, w3
 2272 1cbc E30F40F9 		ldr	x3, [sp, 24]
 2273 1cc0 24008052 		mov	w4, 1
 2274 1cc4 22008052 		mov	w2, 1
 2275 1cc8 C58005AA 		orr	x5, x6, x5, lsl 32
 2276 1ccc A0003FD6 		blr	x5
 2277 1cd0 20008052 		mov	w0, 1
 2278 1cd4 100482D2 		mov	x16, 4128
 2279 1cd8 FE0340F9 		ldr	x30, [sp]
 2280 1cdc FF63308B 		add	sp, sp, x16
 2281 1ce0 C0035FD6 		ret
 2282              		.p2align 2
 2283              	.L591:
 2284 1ce4 9F600071 		cmp	w4, 24
 2285 1ce8 80090054 		beq	.L544
 2286 1cec 43FEFF34 		cbz	w3, .L543
 2287 1cf0 67040051 		sub	w7, w3, #1
 2288 1cf4 E90305AA 		mov	x9, x5
 2289 1cf8 E7040091 		add	x7, x7, 1
 2290 1cfc E10306AA 		mov	x1, x6
 2291 1d00 C704078B 		add	x7, x6, x7, lsl 1
 2292 1d04 1F2003D5 		.p2align 3
 2293              	.L549:
 2294 1d08 E20301AA 		mov	x2, x1
 2295 1d0c 24454038 		ldrb	w4, [x9], 4
 2296 1d10 48244038 		ldrb	w8, [x2], 2
 2297 1d14 847C0353 		lsr	w4, w4, 3
 2298 1d18 FF0002EB 		cmp	x7, x2
 2299 1d1c 88100033 		bfi	w8, w4, 0, 5
 2300 1d20 28000039 		strb	w8, [x1]
 2301 1d24 E10302AA 		mov	x1, x2
 2302 1d28 01FFFF54 		bne	.L549
 2303 1d2c E80305AA 		mov	x8, x5
 2304 1d30 E10306AA 		mov	x1, x6
 2305 1d34 1F2003D5 		.p2align 3
AARCH64 GAS  C:\Users\A01169~1\AppData\Local\Temp\cclmDoLY.s 			page 42


 2306              	.L550:
 2307 1d38 08110091 		add	x8, x8, 4
 2308 1d3c E20301AA 		mov	x2, x1
 2309 1d40 04D15F38 		ldrb	w4, [x8, -3]
 2310 1d44 49244078 		ldrh	w9, [x2], 2
 2311 1d48 847C0253 		lsr	w4, w4, 2
 2312 1d4c FF0002EB 		cmp	x7, x2
 2313 1d50 89141B33 		bfi	w9, w4, 5, 6
 2314 1d54 29000079 		strh	w9, [x1]
 2315 1d58 E10302AA 		mov	x1, x2
 2316 1d5c E1FEFF54 		bne	.L550
 2317              		.p2align 3
 2318              	.L551:
 2319 1d60 A5100091 		add	x5, x5, 4
 2320 1d64 A1E05F38 		ldrb	w1, [x5, -2]
 2321 1d68 C2044039 		ldrb	w2, [x6, 1]
 2322 1d6c C6080091 		add	x6, x6, 2
 2323 1d70 217C0353 		lsr	w1, w1, 3
 2324 1d74 22101D33 		bfi	w2, w1, 3, 5
 2325 1d78 C2F01F38 		strb	w2, [x6, -1]
 2326 1d7c FF0006EB 		cmp	x7, x6
 2327 1d80 01FFFF54 		bne	.L551
 2328 1d84 CCFFFF17 		b	.L543
 2329              		.p2align 2
 2330              	.L542:
 2331 1d88 9F400071 		cmp	w4, 16
 2332 1d8c 000F0054 		beq	.L558
 2333 1d90 23F9FF34 		cbz	w3, .L543
 2334 1d94 61040051 		sub	w1, w3, #1
 2335 1d98 E20306AA 		mov	x2, x6
 2336 1d9c 21040091 		add	x1, x1, 1
 2337 1da0 C608018B 		add	x6, x6, x1, lsl 2
 2338 1da4 1F2003D5 		.p2align 3
 2339              	.L563:
 2340 1da8 A50C0091 		add	x5, x5, 3
 2341 1dac A1D05F38 		ldrb	w1, [x5, -3]
 2342 1db0 41440038 		strb	w1, [x2], 4
 2343 1db4 A4E05F38 		ldrb	w4, [x5, -2]
 2344 1db8 A1F05F38 		ldrb	w1, [x5, -1]
 2345 1dbc DF0002EB 		cmp	x6, x2
 2346 1dc0 44D01F38 		strb	w4, [x2, -3]
 2347 1dc4 41E01F38 		strb	w1, [x2, -2]
 2348 1dc8 01FFFF54 		bne	.L563
 2349 1dcc BAFFFF17 		b	.L543
 2350              		.p2align 2
 2351              	.L541:
 2352 1dd0 9F400071 		cmp	w4, 16
 2353 1dd4 A0070054 		beq	.L552
 2354 1dd8 E3F6FF34 		cbz	w3, .L543
 2355 1ddc 61040051 		sub	w1, w3, #1
 2356 1de0 E20305AA 		mov	x2, x5
 2357 1de4 21040091 		add	x1, x1, 1
 2358 1de8 A508018B 		add	x5, x5, x1, lsl 2
 2359 1dec 1F2003D5 		.p2align 3
 2360              	.L557:
 2361 1df0 42100091 		add	x2, x2, 4
 2362 1df4 41C05F38 		ldrb	w1, [x2, -4]
AARCH64 GAS  C:\Users\A01169~1\AppData\Local\Temp\cclmDoLY.s 			page 43


 2363 1df8 C1340038 		strb	w1, [x6], 3
 2364 1dfc 5F0005EB 		cmp	x2, x5
 2365 1e00 44D05F38 		ldrb	w4, [x2, -3]
 2366 1e04 41E05F38 		ldrb	w1, [x2, -2]
 2367 1e08 C4E01F38 		strb	w4, [x6, -2]
 2368 1e0c C1F01F38 		strb	w1, [x6, -1]
 2369 1e10 01FFFF54 		bne	.L557
 2370 1e14 A8FFFF17 		b	.L543
 2371              		.p2align 2
 2372              	.L544:
 2373 1e18 E3F4FF34 		cbz	w3, .L543
 2374 1e1c 6A040051 		sub	w10, w3, #1
 2375 1e20 E80305AA 		mov	x8, x5
 2376 1e24 4B050091 		add	x11, x10, 1
 2377 1e28 E10306AA 		mov	x1, x6
 2378 1e2c 6A010B8B 		add	x10, x11, x11
 2379 1e30 C9000A8B 		add	x9, x6, x10
 2380 1e34 1F2003D5 		.p2align 3
 2381              	.L546:
 2382 1e38 E20301AA 		mov	x2, x1
 2383 1e3c 04354038 		ldrb	w4, [x8], 3
 2384 1e40 47244038 		ldrb	w7, [x2], 2
 2385 1e44 847C0353 		lsr	w4, w4, 3
 2386 1e48 5F0009EB 		cmp	x2, x9
 2387 1e4c 87100033 		bfi	w7, w4, 0, 5
 2388 1e50 27000039 		strb	w7, [x1]
 2389 1e54 E10302AA 		mov	x1, x2
 2390 1e58 01FFFF54 		bne	.L546
 2391 1e5c E70305AA 		mov	x7, x5
 2392 1e60 E10306AA 		mov	x1, x6
 2393 1e64 1F2003D5 		.p2align 3
 2394              	.L547:
 2395 1e68 E70C0091 		add	x7, x7, 3
 2396 1e6c E20301AA 		mov	x2, x1
 2397 1e70 E4E05F38 		ldrb	w4, [x7, -2]
 2398 1e74 48244078 		ldrh	w8, [x2], 2
 2399 1e78 847C0253 		lsr	w4, w4, 2
 2400 1e7c 3F0102EB 		cmp	x9, x2
 2401 1e80 88141B33 		bfi	w8, w4, 5, 6
 2402 1e84 28000079 		strh	w8, [x1]
 2403 1e88 E10302AA 		mov	x1, x2
 2404 1e8c E1FEFF54 		bne	.L547
 2405 1e90 4A010B8B 		add	x10, x10, x11
 2406 1e94 E10305AA 		mov	x1, x5
 2407 1e98 A5000A8B 		add	x5, x5, x10
 2408 1e9c 1F2003D5 		.p2align 3
 2409              	.L548:
 2410 1ea0 210C0091 		add	x1, x1, 3
 2411 1ea4 22F05F38 		ldrb	w2, [x1, -1]
 2412 1ea8 C4044039 		ldrb	w4, [x6, 1]
 2413 1eac BF0001EB 		cmp	x5, x1
 2414 1eb0 C6080091 		add	x6, x6, 2
 2415 1eb4 427C0353 		lsr	w2, w2, 3
 2416 1eb8 44101D33 		bfi	w4, w2, 3, 5
 2417 1ebc C4F01F38 		strb	w4, [x6, -1]
 2418 1ec0 01FFFF54 		bne	.L548
 2419 1ec4 7CFFFF17 		b	.L543
AARCH64 GAS  C:\Users\A01169~1\AppData\Local\Temp\cclmDoLY.s 			page 44


 2420              		.p2align 2
 2421              	.L552:
 2422 1ec8 63EFFF34 		cbz	w3, .L543
 2423 1ecc 67040051 		sub	w7, w3, #1
 2424 1ed0 E10305AA 		mov	x1, x5
 2425 1ed4 E7040091 		add	x7, x7, 1
 2426 1ed8 E40306AA 		mov	x4, x6
 2427 1edc A704078B 		add	x7, x5, x7, lsl 1
 2428              		.p2align 3
 2429              	.L554:
 2430 1ee0 22244038 		ldrb	w2, [x1], 2
 2431 1ee4 3F0007EB 		cmp	x1, x7
 2432 1ee8 42101D53 		ubfiz	w2, w2, 3, 5
 2433 1eec 82340038 		strb	w2, [x4], 3
 2434 1ef0 81FFFF54 		bne	.L554
 2435 1ef4 E20305AA 		mov	x2, x5
 2436 1ef8 E80306AA 		mov	x8, x6
 2437 1efc 1F2003D5 		.p2align 3
 2438              	.L555:
 2439 1f00 44044039 		ldrb	w4, [x2, 1]
 2440 1f04 080D0091 		add	x8, x8, 3
 2441 1f08 41244038 		ldrb	w1, [x2], 2
 2442 1f0c 84087DD3 		ubfiz	x4, x4, 3, 3
 2443 1f10 5F0007EB 		cmp	x2, x7
 2444 1f14 211C45D3 		ubfx	x1, x1, 5, 3
 2445 1f18 840001AA 		orr	x4, x4, x1
 2446 1f1c 84141E53 		ubfiz	w4, w4, 2, 6
 2447 1f20 04E11F38 		strb	w4, [x8, -2]
 2448 1f24 E1FEFF54 		bne	.L555
 2449              		.p2align 3
 2450              	.L556:
 2451 1f28 A1044039 		ldrb	w1, [x5, 1]
 2452 1f2c C60C0091 		add	x6, x6, 3
 2453 1f30 A5080091 		add	x5, x5, 2
 2454 1f34 BF0007EB 		cmp	x5, x7
 2455 1f38 211C43D3 		ubfx	x1, x1, 3, 5
 2456 1f3c 21101D53 		ubfiz	w1, w1, 3, 5
 2457 1f40 C1F01F38 		strb	w1, [x6, -1]
 2458 1f44 80EBFF54 		beq	.L543
 2459 1f48 A1044039 		ldrb	w1, [x5, 1]
 2460 1f4c C60C0091 		add	x6, x6, 3
 2461 1f50 A5080091 		add	x5, x5, 2
 2462 1f54 BF0007EB 		cmp	x5, x7
 2463 1f58 211C43D3 		ubfx	x1, x1, 3, 5
 2464 1f5c 21101D53 		ubfiz	w1, w1, 3, 5
 2465 1f60 C1F01F38 		strb	w1, [x6, -1]
 2466 1f64 21FEFF54 		bne	.L556
 2467 1f68 53FFFF17 		b	.L543
 2468              		.p2align 2
 2469              	.L558:
 2470 1f6c 43EAFF34 		cbz	w3, .L543
 2471 1f70 62040051 		sub	w2, w3, #1
 2472 1f74 E10305AA 		mov	x1, x5
 2473 1f78 49040091 		add	x9, x2, 1
 2474 1f7c E40306AA 		mov	x4, x6
 2475 1f80 A804098B 		add	x8, x5, x9, lsl 1
 2476 1f84 1F2003D5 		.p2align 3
AARCH64 GAS  C:\Users\A01169~1\AppData\Local\Temp\cclmDoLY.s 			page 45


 2477              	.L560:
 2478 1f88 22244038 		ldrb	w2, [x1], 2
 2479 1f8c 3F0008EB 		cmp	x1, x8
 2480 1f90 42101D53 		ubfiz	w2, w2, 3, 5
 2481 1f94 82440038 		strb	w2, [x4], 4
 2482 1f98 81FFFF54 		bne	.L560
 2483 1f9c E20305AA 		mov	x2, x5
 2484 1fa0 E70306AA 		mov	x7, x6
 2485 1fa4 1F2003D5 		.p2align 3
 2486              	.L561:
 2487 1fa8 44044039 		ldrb	w4, [x2, 1]
 2488 1fac E7100091 		add	x7, x7, 4
 2489 1fb0 41244038 		ldrb	w1, [x2], 2
 2490 1fb4 84087DD3 		ubfiz	x4, x4, 3, 3
 2491 1fb8 5F0008EB 		cmp	x2, x8
 2492 1fbc 211C45D3 		ubfx	x1, x1, 5, 3
 2493 1fc0 840001AA 		orr	x4, x4, x1
 2494 1fc4 84141E53 		ubfiz	w4, w4, 2, 6
 2495 1fc8 E4D01F38 		strb	w4, [x7, -3]
 2496 1fcc E1FEFF54 		bne	.L561
 2497 1fd0 C208098B 		add	x2, x6, x9, lsl 2
 2498 1fd4 1F2003D5 		.p2align 3
 2499              	.L562:
 2500 1fd8 A1044039 		ldrb	w1, [x5, 1]
 2501 1fdc C6100091 		add	x6, x6, 4
 2502 1fe0 DF0002EB 		cmp	x6, x2
 2503 1fe4 A5080091 		add	x5, x5, 2
 2504 1fe8 211C43D3 		ubfx	x1, x1, 3, 5
 2505 1fec 21101D53 		ubfiz	w1, w1, 3, 5
 2506 1ff0 C1E01F38 		strb	w1, [x6, -2]
 2507 1ff4 21FFFF54 		bne	.L562
 2508 1ff8 2FFFFF17 		b	.L543
 2509              		.size	CvtBmpLine, .-CvtBmpLine
 2510              		.align	2
 2511 1ffc 1F2003D5 		.p2align 4,,15
 2512              		.global	SmartStartPutPixelRaw
 2513              		.type	SmartStartPutPixelRaw, %function
 2514              	SmartStartPutPixelRaw:
 2515 2000 01000090 		adrp	x1, .LC3
 2516 2004 21000091 		add	x1, x1, :lo12:.LC3
 2517 2008 00008052 		mov	w0, 0
 2518 200c 00000014 		b	hal_io_serial_puts
 2519              		.size	SmartStartPutPixelRaw, .-SmartStartPutPixelRaw
 2520              		.align	2
 2521              		.p2align 4,,15
 2522              		.global	Rectangle
 2523              		.type	Rectangle, %function
 2524              	Rectangle:
 2525 2010 600000B5 		cbnz	x0, .L600
 2526 2014 00008052 		mov	w0, 0
 2527 2018 C0035FD6 		ret
 2528              		.p2align 2
 2529              	.L600:
 2530 201c FE0F1FF8 		str	x30, [sp, -16]!
 2531 2020 06144629 		ldp	w6, w5, [x0, 48]
 2532 2024 C58005AA 		orr	x5, x6, x5, lsl 32
 2533 2028 A0003FD6 		blr	x5
AARCH64 GAS  C:\Users\A01169~1\AppData\Local\Temp\cclmDoLY.s 			page 46


 2534 202c 20008052 		mov	w0, 1
 2535 2030 FE0741F8 		ldr	x30, [sp], 16
 2536 2034 C0035FD6 		ret
 2537              		.size	Rectangle, .-Rectangle
 2538              		.align	2
 2539 2038 1F2003D5 		.p2align 4,,15
 2539      1F2003D5 
 2540              		.global	PiConsole_Init
 2541              		.type	PiConsole_Init, %function
 2542              	PiConsole_Init:
 2543 2040 FFC303D1 		sub	sp, sp, #240
 2544 2044 1F000071 		cmp	w0, 0
 2545 2048 2418407A 		ccmp	w1, 0, 4, ne
 2546 204c F35307A9 		stp	x19, x20, [sp, 112]
 2547 2050 F403002A 		mov	w20, w0
 2548 2054 F303022A 		mov	w19, w2
 2549 2058 F55B08A9 		stp	x21, x22, [sp, 128]
 2550 205c F503012A 		mov	w21, w1
 2551 2060 F77B09A9 		stp	x23, x30, [sp, 144]
 2552 2064 F70303AA 		mov	x23, x3
 2553 2068 800A0054 		beq	.L626
 2554              	.L602:
 2555 206c 93010035 		cbnz	w19, .L606
 2556              	.L629:
 2557 2070 84008052 		mov	w4, 4
 2558 2074 A2008052 		mov	w2, 5
 2559 2078 8200A072 		movk	w2, 0x4, lsl 16
 2560 207c E303042A 		mov	w3, w4
 2561 2080 E103042A 		mov	w1, w4
 2562 2084 05008052 		mov	w5, 0
 2563 2088 E0830291 		add	x0, sp, 160
 2564 208c B9FBFF97 		bl	mailbox_tag_message.constprop.6
 2565 2090 1F1C0072 		tst	w0, 255
 2566 2094 60040054 		beq	.L607
 2567 2098 F3AF40B9 		ldr	w19, [sp, 172]
 2568              	.L606:
 2569 209c 01018052 		mov	w1, 8
 2570 20a0 88008052 		mov	w8, 4
 2571 20a4 09028052 		mov	w9, 16
 2572 20a8 25008052 		mov	w5, 1
 2573 20ac 8500A072 		movk	w5, 0x4, lsl 16
 2574 20b0 A2009052 		mov	w2, 32773
 2575 20b4 8200A072 		movk	w2, 0x4, lsl 16
 2576 20b8 E10300B9 		str	w1, [sp]
 2577 20bc E10B00B9 		str	w1, [sp, 8]
 2578 20c0 E403012A 		mov	w4, w1
 2579 20c4 F41300B9 		str	w20, [sp, 16]
 2580 20c8 E303012A 		mov	w3, w1
 2581 20cc F51B00B9 		str	w21, [sp, 24]
 2582 20d0 E0830291 		add	x0, sp, 160
 2583 20d4 E22300B9 		str	w2, [sp, 32]
 2584 20d8 87009052 		mov	w7, 32772
 2585 20dc 8700A072 		movk	w7, 0x4, lsl 16
 2586 20e0 E82B00B9 		str	w8, [sp, 40]
 2587 20e4 E83300B9 		str	w8, [sp, 48]
 2588 20e8 E603152A 		mov	w6, w21
 2589 20ec F33B00B9 		str	w19, [sp, 56]
AARCH64 GAS  C:\Users\A01169~1\AppData\Local\Temp\cclmDoLY.s 			page 47


 2590 20f0 62009052 		mov	w2, 32771
 2591 20f4 8200A072 		movk	w2, 0x4, lsl 16
 2592 20f8 E54300B9 		str	w5, [sp, 64]
 2593 20fc E14B00B9 		str	w1, [sp, 72]
 2594 2100 E503142A 		mov	w5, w20
 2595 2104 E85300B9 		str	w8, [sp, 80]
 2596 2108 61028052 		mov	w1, 19
 2597 210c E95B00B9 		str	w9, [sp, 88]
 2598 2110 FF6300B9 		str	wzr, [sp, 96]
 2599 2114 0BFBFF97 		bl	mailbox_tag_message.constprop.7
 2600 2118 161C0072 		ands	w22, w0, 255
 2601 211c 01010054 		bne	.L627
 2602              	.L607:
 2603 2120 16008052 		mov	w22, 0
 2604              	.L604:
 2605 2124 E003162A 		mov	w0, w22
 2606 2128 F35347A9 		ldp	x19, x20, [sp, 112]
 2607 212c F55B48A9 		ldp	x21, x22, [sp, 128]
 2608 2130 F77B49A9 		ldp	x23, x30, [sp, 144]
 2609 2134 FFC30391 		add	sp, sp, 240
 2610 2138 C0035FD6 		ret
 2611              		.p2align 2
 2612              	.L627:
 2613 213c E0E740B9 		ldr	w0, [sp, 228]
 2614 2140 00000094 		bl	GPUaddrToARMaddr
 2615 2144 02000090 		adrp	x2, .LANCHOR0
 2616 2148 42000091 		add	x2, x2, :lo12:.LANCHOR0
 2617 214c 41100091 		add	x1, x2, 4
 2618 2150 04008012 		mov	w4, -1
 2619 2154 E39F0832 		mov	w3, -16711936
 2620 2158 7F620071 		cmp	w19, 24
 2621 215c 400400B9 		str	w0, [x2, 4]
 2622 2160 3FD00029 		stp	wzr, w20, [x1, 4]
 2623 2164 35CC0129 		stp	w21, w19, [x1, 12]
 2624 2168 24FC0429 		stp	w4, wzr, [x1, 36]
 2625 216c 232C00B9 		str	w3, [x1, 44]
 2626 2170 20090054 		beq	.L608
 2627 2174 7F820071 		cmp	w19, 32
 2628 2178 40070054 		beq	.L609
 2629 217c 7F420071 		cmp	w19, 16
 2630 2180 E0030054 		beq	.L628
 2631              	.L611:
 2632 2184 17FDFFB4 		cbz	x23, .L604
 2633 2188 E303132A 		mov	w3, w19
 2634 218c E203152A 		mov	w2, w21
 2635 2190 E103142A 		mov	w1, w20
 2636 2194 00000090 		adrp	x0, .LC4
 2637 2198 00000091 		add	x0, x0, :lo12:.LC4
 2638 219c E0023FD6 		blr	x23
 2639 21a0 E003162A 		mov	w0, w22
 2640 21a4 F35347A9 		ldp	x19, x20, [sp, 112]
 2641 21a8 F55B48A9 		ldp	x21, x22, [sp, 128]
 2642 21ac F77B49A9 		ldp	x23, x30, [sp, 144]
 2643 21b0 FFC30391 		add	sp, sp, 240
 2644 21b4 C0035FD6 		ret
 2645              		.p2align 2
 2646              	.L626:
AARCH64 GAS  C:\Users\A01169~1\AppData\Local\Temp\cclmDoLY.s 			page 48


 2647 21b8 62008052 		mov	w2, 3
 2648 21bc 8200A072 		movk	w2, 0x4, lsl 16
 2649 21c0 06008052 		mov	w6, 0
 2650 21c4 05008052 		mov	w5, 0
 2651 21c8 04008052 		mov	w4, 0
 2652 21cc 03018052 		mov	w3, 8
 2653 21d0 A1008052 		mov	w1, 5
 2654 21d4 E0830291 		add	x0, sp, 160
 2655 21d8 32FBFF97 		bl	mailbox_tag_message.constprop.5
 2656 21dc 1F1C0072 		tst	w0, 255
 2657 21e0 00FAFF54 		beq	.L607
 2658 21e4 74000035 		cbnz	w20, .L605
 2659 21e8 F4AF40B9 		ldr	w20, [sp, 172]
 2660 21ec 15F4FF35 		cbnz	w21, .L602
 2661              		.p2align 3
 2662              	.L605:
 2663 21f0 F5B340B9 		ldr	w21, [sp, 176]
 2664 21f4 53F5FF35 		cbnz	w19, .L606
 2665 21f8 9EFFFF17 		b	.L629
 2666              		.p2align 2
 2667              	.L628:
 2668 21fc 06000090 		adrp	x6, ClearArea16
 2669 2200 C6000091 		add	x6, x6, :lo12:ClearArea16
 2670 2204 05000090 		adrp	x5, VertLine16
 2671 2208 A5000091 		add	x5, x5, :lo12:VertLine16
 2672 220c 04000090 		adrp	x4, HorzLine16
 2673 2210 84000091 		add	x4, x4, :lo12:HorzLine16
 2674 2214 03000090 		adrp	x3, DiagLine16
 2675 2218 63000091 		add	x3, x3, :lo12:DiagLine16
 2676 221c 02000090 		adrp	x2, WriteChar16
 2677 2220 42000091 		add	x2, x2, :lo12:WriteChar16
 2678 2224 00000090 		adrp	x0, PutImage16
 2679 2228 00000091 		add	x0, x0, :lo12:PutImage16
 2680              	.L625:
 2681 222c CCFC60D3 		lsr	x12, x6, 32
 2682 2230 ABFC60D3 		lsr	x11, x5, 32
 2683 2234 8AFC60D3 		lsr	x10, x4, 32
 2684 2238 69FC60D3 		lsr	x9, x3, 32
 2685 223c 48FC60D3 		lsr	x8, x2, 32
 2686 2240 07FC60D3 		lsr	x7, x0, 32
 2687 2244 26300629 		stp	w6, w12, [x1, 48]
 2688 2248 252C0729 		stp	w5, w11, [x1, 56]
 2689 224c 24280829 		stp	w4, w10, [x1, 64]
 2690 2250 23240929 		stp	w3, w9, [x1, 72]
 2691 2254 22200A29 		stp	w2, w8, [x1, 80]
 2692 2258 201C0B29 		stp	w0, w7, [x1, 88]
 2693 225c CAFFFF17 		b	.L611
 2694              		.p2align 2
 2695              	.L609:
 2696 2260 06000090 		adrp	x6, ClearArea32
 2697 2264 C6000091 		add	x6, x6, :lo12:ClearArea32
 2698 2268 05000090 		adrp	x5, VertLine32
 2699 226c A5000091 		add	x5, x5, :lo12:VertLine32
 2700 2270 04000090 		adrp	x4, HorzLine32
 2701 2274 84000091 		add	x4, x4, :lo12:HorzLine32
 2702 2278 03000090 		adrp	x3, DiagLine32
 2703 227c 63000091 		add	x3, x3, :lo12:DiagLine32
AARCH64 GAS  C:\Users\A01169~1\AppData\Local\Temp\cclmDoLY.s 			page 49


 2704 2280 02000090 		adrp	x2, WriteChar32
 2705 2284 42000091 		add	x2, x2, :lo12:WriteChar32
 2706 2288 00000090 		adrp	x0, PutImage32
 2707 228c 00000091 		add	x0, x0, :lo12:PutImage32
 2708 2290 E7FFFF17 		b	.L625
 2709              		.p2align 2
 2710              	.L608:
 2711 2294 06000090 		adrp	x6, ClearArea24
 2712 2298 C6000091 		add	x6, x6, :lo12:ClearArea24
 2713 229c 05000090 		adrp	x5, VertLine24
 2714 22a0 A5000091 		add	x5, x5, :lo12:VertLine24
 2715 22a4 04000090 		adrp	x4, HorzLine24
 2716 22a8 84000091 		add	x4, x4, :lo12:HorzLine24
 2717 22ac 03000090 		adrp	x3, DiagLine24
 2718 22b0 63000091 		add	x3, x3, :lo12:DiagLine24
 2719 22b4 02000090 		adrp	x2, WriteChar24
 2720 22b8 42000091 		add	x2, x2, :lo12:WriteChar24
 2721 22bc 00000090 		adrp	x0, PutImage24
 2722 22c0 00000091 		add	x0, x0, :lo12:PutImage24
 2723 22c4 DAFFFF17 		b	.L625
 2724              		.size	PiConsole_Init, .-PiConsole_Init
 2725              		.align	2
 2726 22c8 1F2003D5 		.p2align 4,,15
 2726      1F2003D5 
 2727              		.global	GetConsoleDC
 2728              		.type	GetConsoleDC, %function
 2729              	GetConsoleDC:
 2730 22d0 00000090 		adrp	x0, .LANCHOR0
 2731 22d4 00000091 		add	x0, x0, :lo12:.LANCHOR0
 2732 22d8 00100091 		add	x0, x0, 4
 2733 22dc C0035FD6 		ret
 2734              		.size	GetConsoleDC, .-GetConsoleDC
 2735              		.align	2
 2736              		.p2align 4,,15
 2737              		.global	GetConsole_FrameBuffer
 2738              		.type	GetConsole_FrameBuffer, %function
 2739              	GetConsole_FrameBuffer:
 2740 22e0 00000090 		adrp	x0, .LANCHOR0+4
 2741 22e4 000040B9 		ldr	w0, [x0, #:lo12:.LANCHOR0+4]
 2742 22e8 C0035FD6 		ret
 2743              		.size	GetConsole_FrameBuffer, .-GetConsole_FrameBuffer
 2744              		.align	2
 2745 22ec 1F2003D5 		.p2align 4,,15
 2746              		.global	GetConsole_Width
 2747              		.type	GetConsole_Width, %function
 2748              	GetConsole_Width:
 2749 22f0 00000090 		adrp	x0, .LANCHOR0+12
 2750 22f4 000040B9 		ldr	w0, [x0, #:lo12:.LANCHOR0+12]
 2751 22f8 C0035FD6 		ret
 2752              		.size	GetConsole_Width, .-GetConsole_Width
 2753              		.align	2
 2754 22fc 1F2003D5 		.p2align 4,,15
 2755              		.global	GetConsole_Height
 2756              		.type	GetConsole_Height, %function
 2757              	GetConsole_Height:
 2758 2300 00000090 		adrp	x0, .LANCHOR0+16
 2759 2304 000040B9 		ldr	w0, [x0, #:lo12:.LANCHOR0+16]
AARCH64 GAS  C:\Users\A01169~1\AppData\Local\Temp\cclmDoLY.s 			page 50


 2760 2308 C0035FD6 		ret
 2761              		.size	GetConsole_Height, .-GetConsole_Height
 2762              		.align	2
 2763 230c 1F2003D5 		.p2align 4,,15
 2764              		.weak	_sbrk
 2765              		.type	_sbrk, %function
 2766              	_sbrk:
 2767 2310 02000090 		adrp	x2, .LANCHOR0
 2768 2314 42000091 		add	x2, x2, :lo12:.LANCHOR0
 2769 2318 03000090 		adrp	x3, _end
 2770 231c 63000091 		add	x3, x3, :lo12:_end
 2771 2320 413440F9 		ldr	x1, [x2, 104]
 2772 2324 3F0000F1 		cmp	x1, 0
 2773 2328 6100819A 		csel	x1, x3, x1, eq
 2774 232c 23C0208B 		add	x3, x1, x0, sxtw
 2775 2330 E00301AA 		mov	x0, x1
 2776 2334 433400F9 		str	x3, [x2, 104]
 2777 2338 C0035FD6 		ret
 2778              		.size	_sbrk, .-_sbrk
 2779              		.align	2
 2780 233c 1F2003D5 		.p2align 4,,15
 2781              		.weak	_kill
 2782              		.type	_kill, %function
 2783              	_kill:
 2784 2340 01000090 		adrp	x1, errno
 2785 2344 C2028052 		mov	w2, 22
 2786 2348 00008012 		mov	w0, -1
 2787 234c 220000B9 		str	w2, [x1, #:lo12:errno]
 2788 2350 C0035FD6 		ret
 2789              		.size	_kill, .-_kill
 2790              		.align	2
 2791 2354 1F2003D5 		.p2align 4,,15
 2791      1F2003D5 
 2791      1F2003D5 
 2792              		.weak	_getpid
 2793              		.type	_getpid, %function
 2794              	_getpid:
 2795 2360 20008052 		mov	w0, 1
 2796 2364 C0035FD6 		ret
 2797              		.size	_getpid, .-_getpid
 2798              		.align	2
 2799 2368 1F2003D5 		.p2align 4,,15
 2799      1F2003D5 
 2800              		.weak	_read
 2801              		.type	_read, %function
 2802              	_read:
 2803 2370 00008052 		mov	w0, 0
 2804 2374 C0035FD6 		ret
 2805              		.size	_read, .-_read
 2806              		.align	2
 2807 2378 1F2003D5 		.p2align 4,,15
 2807      1F2003D5 
 2808              		.weak	_close
 2809              		.type	_close, %function
 2810              	_close:
 2811 2380 00008012 		mov	w0, -1
 2812 2384 C0035FD6 		ret
AARCH64 GAS  C:\Users\A01169~1\AppData\Local\Temp\cclmDoLY.s 			page 51


 2813              		.size	_close, .-_close
 2814              		.align	2
 2815 2388 1F2003D5 		.p2align 4,,15
 2815      1F2003D5 
 2816              		.weak	_lseek
 2817              		.type	_lseek, %function
 2818              	_lseek:
 2819 2390 00008052 		mov	w0, 0
 2820 2394 C0035FD6 		ret
 2821              		.size	_lseek, .-_lseek
 2822              		.align	2
 2823 2398 1F2003D5 		.p2align 4,,15
 2823      1F2003D5 
 2824              		.weak	_isatty
 2825              		.type	_isatty, %function
 2826              	_isatty:
 2827 23a0 20008052 		mov	w0, 1
 2828 23a4 C0035FD6 		ret
 2829              		.size	_isatty, .-_isatty
 2830              		.align	2
 2831 23a8 1F2003D5 		.p2align 4,,15
 2831      1F2003D5 
 2832              		.weak	_fstat
 2833              		.type	_fstat, %function
 2834              	_fstat:
 2835 23b0 02008452 		mov	w2, 8192
 2836 23b4 00008052 		mov	w0, 0
 2837 23b8 220400B9 		str	w2, [x1, 4]
 2838 23bc C0035FD6 		ret
 2839              		.size	_fstat, .-_fstat
 2840              		.align	2
 2841              		.p2align 4,,15
 2842              		.weak	_exit
 2843              		.type	_exit, %function
 2844              	_exit:
 2845              		.p2align 3
 2846              	.L645:
 2847 23c0 00000014 		b	.L645
 2848              		.size	_exit, .-_exit
 2849              		.align	2
 2850 23c4 1F2003D5 		.p2align 4,,15
 2850      1F2003D5 
 2850      1F2003D5 
 2851              		.global	_write
 2852              		.type	_write, %function
 2853              	_write:
 2854 23d0 F353BDA9 		stp	x19, x20, [sp, -48]!
 2855 23d4 5F000071 		cmp	w2, 0
 2856 23d8 F77B02A9 		stp	x23, x30, [sp, 32]
 2857 23dc F703022A 		mov	w23, w2
 2858 23e0 6D040054 		ble	.L647
 2859 23e4 F55B01A9 		stp	x21, x22, [sp, 16]
 2860 23e8 56040051 		sub	w22, w2, #1
 2861 23ec D6060091 		add	x22, x22, 1
 2862 23f0 15000090 		adrp	x21, .LANCHOR0
 2863 23f4 B5020091 		add	x21, x21, :lo12:.LANCHOR0
 2864 23f8 F40301AA 		mov	x20, x1
AARCH64 GAS  C:\Users\A01169~1\AppData\Local\Temp\cclmDoLY.s 			page 52


 2865 23fc 3600168B 		add	x22, x1, x22
 2866 2400 0F000014 		b	.L653
 2867              		.p2align 2
 2868              	.L659:
 2869 2404 7F240071 		cmp	w3, 9
 2870 2408 20040054 		beq	.L657
 2871 240c 648E4329 		ldp	w4, w3, [x19, 28]
 2872 2410 650A4A29 		ldp	w5, w2, [x19, 80]
 2873 2414 84701D53 		lsl	w4, w4, 3
 2874 2418 636C1C53 		lsl	w3, w3, 4
 2875 241c 648E0229 		stp	w4, w3, [x19, 20]
 2876 2420 A28002AA 		orr	x2, x5, x2, lsl 32
 2877 2424 40003FD6 		blr	x2
 2878 2428 601E40B9 		ldr	w0, [x19, 28]
 2879 242c 00040011 		add	w0, w0, 1
 2880 2430 601E00B9 		str	w0, [x19, 28]
 2881              	.L652:
 2882 2434 DF0214EB 		cmp	x22, x20
 2883 2438 80010054 		beq	.L658
 2884              	.L653:
 2885 243c 83164038 		ldrb	w3, [x20], 1
 2886 2440 7F280071 		cmp	w3, 10
 2887 2444 C0010054 		beq	.L648
 2888 2448 B3120091 		add	x19, x21, 4
 2889 244c E103032A 		mov	w1, w3
 2890 2450 E00313AA 		mov	x0, x19
 2891 2454 7F340071 		cmp	w3, 13
 2892 2458 61FDFF54 		bne	.L659
 2893 245c BF2200B9 		str	wzr, [x21, 32]
 2894 2460 DF0214EB 		cmp	x22, x20
 2895 2464 C1FEFF54 		bne	.L653
 2896              	.L658:
 2897 2468 F55B41A9 		ldp	x21, x22, [sp, 16]
 2898              	.L647:
 2899 246c E003172A 		mov	w0, w23
 2900 2470 F77B42A9 		ldp	x23, x30, [sp, 32]
 2901 2474 F353C3A8 		ldp	x19, x20, [sp], 48
 2902 2478 C0035FD6 		ret
 2903              		.p2align 2
 2904              	.L648:
 2905 247c A12640B9 		ldr	w1, [x21, 36]
 2906 2480 21040011 		add	w1, w1, 1
 2907 2484 BF060429 		stp	wzr, w1, [x21, 32]
 2908 2488 EBFFFF17 		b	.L652
 2909              		.p2align 2
 2910              	.L657:
 2911 248c A02240B9 		ldr	w0, [x21, 32]
 2912 2490 00140011 		add	w0, w0, 5
 2913 2494 E103006B 		negs	w1, w0
 2914 2498 03040012 		and	w3, w0, 3
 2915 249c 21040012 		and	w1, w1, 3
 2916 24a0 6144815A 		csneg	w1, w3, w1, mi
 2917 24a4 0000014B 		sub	w0, w0, w1
 2918 24a8 A02200B9 		str	w0, [x21, 32]
 2919 24ac E2FFFF17 		b	.L652
 2920              		.size	_write, .-_write
 2921              		.global	console
AARCH64 GAS  C:\Users\A01169~1\AppData\Local\Temp\cclmDoLY.s 			page 53


 2922              		.global	BitFontEnd
 2923              		.section	.rodata
 2924              		.align	2
 2925              		.type	BitFont, %object
 2926              		.size	BitFont, 4096
 2927              	BitFont:
 2928 0000 00000000 		.word	0
 2929 0004 00000000 		.word	0
 2930 0008 00000000 		.word	0
 2931 000c 00000000 		.word	0
 2932 0010 817E0000 		.word	32385
 2933 0014 BD8181A5 		.word	-1518239299
 2934 0018 7E818199 		.word	-1719565954
 2935 001c 00000000 		.word	0
 2936 0020 FF7E0000 		.word	32511
 2937 0024 C3FFFFDB 		.word	-603979837
 2938 0028 7EFFFFE7 		.word	-402653314
 2939 002c 00000000 		.word	0
 2940 0030 00000000 		.word	0
 2941 0034 FEFEFE6C 		.word	1828650750
 2942 0038 10387CFE 		.word	-25413616
 2943 003c 00000000 		.word	0
 2944 0040 00000000 		.word	0
 2945 0044 FE7C3810 		.word	272137470
 2946 0048 0010387C 		.word	2084048896
 2947 004c 00000000 		.word	0
 2948 0050 18000000 		.word	24
 2949 0054 E7E73C3C 		.word	1010624487
 2950 0058 3C1818E7 		.word	-417851332
 2951 005c 00000000 		.word	0
 2952 0060 18000000 		.word	24
 2953 0064 FFFF7E3C 		.word	1014956031
 2954 0068 3C18187E 		.word	2115508284
 2955 006c 00000000 		.word	0
 2956 0070 00000000 		.word	0
 2957 0074 3C180000 		.word	6204
 2958 0078 0000183C 		.word	1008205824
 2959 007c 00000000 		.word	0
 2960 0080 FFFFFFFF 		.word	-1
 2961 0084 C3E7FFFF 		.word	-6205
 2962 0088 FFFFE7C3 		.word	-1008205825
 2963 008c FFFFFFFF 		.word	-1
 2964 0090 00000000 		.word	0
 2965 0094 42663C00 		.word	3958338
 2966 0098 003C6642 		.word	1113996288
 2967 009c 00000000 		.word	0
 2968 00a0 FFFFFFFF 		.word	-1
 2969 00a4 BD99C3FF 		.word	-3958339
 2970 00a8 FFC399BD 		.word	-1113996289
 2971 00ac FFFFFFFF 		.word	-1
 2972 00b0 0E1E0000 		.word	7694
 2973 00b4 CC78321A 		.word	439515340
 2974 00b8 78CCCCCC 		.word	-858993544
 2975 00bc 00000000 		.word	0
 2976 00c0 663C0000 		.word	15462
 2977 00c4 3C666666 		.word	1717986876
 2978 00c8 18187E18 		.word	410916888
AARCH64 GAS  C:\Users\A01169~1\AppData\Local\Temp\cclmDoLY.s 			page 54


 2979 00cc 00000000 		.word	0
 2980 00d0 333F0000 		.word	16179
 2981 00d4 3030303F 		.word	1060122672
 2982 00d8 E0F07030 		.word	812708064
 2983 00dc 00000000 		.word	0
 2984 00e0 637F0000 		.word	32611
 2985 00e4 6363637F 		.word	2137219939
 2986 00e8 E6E76763 		.word	1667753958
 2987 00ec 000000C0 		.word	-1073741824
 2988 00f0 18000000 		.word	24
 2989 00f4 E73CDB18 		.word	417021159
 2990 00f8 1818DB3C 		.word	1020991512
 2991 00fc 00000000 		.word	0
 2992 0100 E0C08000 		.word	8437984
 2993 0104 F8FEF8F0 		.word	-252117256
 2994 0108 80C0E0F0 		.word	-253706112
 2995 010c 00000000 		.word	0
 2996 0110 0E060200 		.word	132622
 2997 0114 3EFE3E1E 		.word	507444798
 2998 0118 02060E1E 		.word	504235522
 2999 011c 00000000 		.word	0
 3000 0120 3C180000 		.word	6204
 3001 0124 1818187E 		.word	2115508248
 3002 0128 00183C7E 		.word	2117867520
 3003 012c 00000000 		.word	0
 3004 0130 66660000 		.word	26214
 3005 0134 66666666 		.word	1717986918
 3006 0138 66660066 		.word	1711302246
 3007 013c 00000000 		.word	0
 3008 0140 DB7F0000 		.word	32731
 3009 0144 1B7BDBDB 		.word	-606373093
 3010 0148 1B1B1B1B 		.word	454761243
 3011 014c 00000000 		.word	0
 3012 0150 60C67C00 		.word	8177248
 3013 0154 C6C66C38 		.word	946652870
 3014 0158 C60C386C 		.word	1815612614
 3015 015c 0000007C 		.word	2080374784
 3016 0160 00000000 		.word	0
 3017 0164 00000000 		.word	0
 3018 0168 FEFEFEFE 		.word	-16843010
 3019 016c 00000000 		.word	0
 3020 0170 3C180000 		.word	6204
 3021 0174 1818187E 		.word	2115508248
 3022 0178 7E183C7E 		.word	2117867646
 3023 017c 00000000 		.word	0
 3024 0180 3C180000 		.word	6204
 3025 0184 1818187E 		.word	2115508248
 3026 0188 18181818 		.word	404232216
 3027 018c 00000000 		.word	0
 3028 0190 18180000 		.word	6168
 3029 0194 18181818 		.word	404232216
 3030 0198 183C7E18 		.word	410926104
 3031 019c 00000000 		.word	0
 3032 01a0 00000000 		.word	0
 3033 01a4 FE0C1800 		.word	1576190
 3034 01a8 0000180C 		.word	202899456
 3035 01ac 00000000 		.word	0
AARCH64 GAS  C:\Users\A01169~1\AppData\Local\Temp\cclmDoLY.s 			page 55


 3036 01b0 00000000 		.word	0
 3037 01b4 FE603000 		.word	3170558
 3038 01b8 00003060 		.word	1613758464
 3039 01bc 00000000 		.word	0
 3040 01c0 00000000 		.word	0
 3041 01c4 C0C00000 		.word	49344
 3042 01c8 0000FEC0 		.word	-1057095680
 3043 01cc 00000000 		.word	0
 3044 01d0 00000000 		.word	0
 3045 01d4 FE6C2800 		.word	2649342
 3046 01d8 0000286C 		.word	1814560768
 3047 01dc 00000000 		.word	0
 3048 01e0 00000000 		.word	0
 3049 01e4 7C383810 		.word	272119932
 3050 01e8 00FEFE7C 		.word	2097085952
 3051 01ec 00000000 		.word	0
 3052 01f0 00000000 		.word	0
 3053 01f4 7C7CFEFE 		.word	-16876420
 3054 01f8 00103838 		.word	943198208
 3055 01fc 00000000 		.word	0
 3056 0200 00000000 		.word	0
 3057 0204 00000000 		.word	0
 3058 0208 00000000 		.word	0
 3059 020c 00000000 		.word	0
 3060 0210 3C180000 		.word	6204
 3061 0214 18183C3C 		.word	1010571288
 3062 0218 18180018 		.word	402659352
 3063 021c 00000000 		.word	0
 3064 0220 66666600 		.word	6710886
 3065 0224 00000024 		.word	603979776
 3066 0228 00000000 		.word	0
 3067 022c 00000000 		.word	0
 3068 0230 6C000000 		.word	108
 3069 0234 6C6CFE6C 		.word	1828613228
 3070 0238 6C6CFE6C 		.word	1828613228
 3071 023c 00000000 		.word	0
 3072 0240 C67C1818 		.word	404257990
 3073 0244 067CC0C2 		.word	-1027572730
 3074 0248 7CC68606 		.word	109495932
 3075 024c 00001818 		.word	404226048
 3076 0250 00000000 		.word	0
 3077 0254 180CC6C2 		.word	-1027208168
 3078 0258 86C66030 		.word	811648646
 3079 025c 00000000 		.word	0
 3080 0260 6C380000 		.word	14444
 3081 0264 DC76386C 		.word	1815639772
 3082 0268 76CCCCCC 		.word	-858993546
 3083 026c 00000000 		.word	0
 3084 0270 30303000 		.word	3158064
 3085 0274 00000060 		.word	1610612736
 3086 0278 00000000 		.word	0
 3087 027c 00000000 		.word	0
 3088 0280 180C0000 		.word	3096
 3089 0284 30303030 		.word	808464432
 3090 0288 0C183030 		.word	808458252
 3091 028c 00000000 		.word	0
 3092 0290 18300000 		.word	12312
AARCH64 GAS  C:\Users\A01169~1\AppData\Local\Temp\cclmDoLY.s 			page 56


 3093 0294 0C0C0C0C 		.word	202116108
 3094 0298 30180C0C 		.word	202119216
 3095 029c 00000000 		.word	0
 3096 02a0 00000000 		.word	0
 3097 02a4 FF3C6600 		.word	6700287
 3098 02a8 0000663C 		.word	1013317632
 3099 02ac 00000000 		.word	0
 3100 02b0 00000000 		.word	0
 3101 02b4 7E181800 		.word	1579134
 3102 02b8 00001818 		.word	404226048
 3103 02bc 00000000 		.word	0
 3104 02c0 00000000 		.word	0
 3105 02c4 00000000 		.word	0
 3106 02c8 18181800 		.word	1579032
 3107 02cc 00000030 		.word	805306368
 3108 02d0 00000000 		.word	0
 3109 02d4 FE000000 		.word	254
 3110 02d8 00000000 		.word	0
 3111 02dc 00000000 		.word	0
 3112 02e0 00000000 		.word	0
 3113 02e4 00000000 		.word	0
 3114 02e8 18180000 		.word	6168
 3115 02ec 00000000 		.word	0
 3116 02f0 00000000 		.word	0
 3117 02f4 180C0602 		.word	33950744
 3118 02f8 80C06030 		.word	811647104
 3119 02fc 00000000 		.word	0
 3120 0300 6C380000 		.word	14444
 3121 0304 D6D6C6C6 		.word	-960047402
 3122 0308 386CC6C6 		.word	-960074696
 3123 030c 00000000 		.word	0
 3124 0310 38180000 		.word	6200
 3125 0314 18181878 		.word	2014844952
 3126 0318 7E181818 		.word	404232318
 3127 031c 00000000 		.word	0
 3128 0320 C67C0000 		.word	31942
 3129 0324 30180C06 		.word	101455920
 3130 0328 FEC6C060 		.word	1623246590
 3131 032c 00000000 		.word	0
 3132 0330 C67C0000 		.word	31942
 3133 0334 063C0606 		.word	101071878
 3134 0338 7CC60606 		.word	101107324
 3135 033c 00000000 		.word	0
 3136 0340 1C0C0000 		.word	3100
 3137 0344 FECC6C3C 		.word	1013763326
 3138 0348 1E0C0C0C 		.word	202116126
 3139 034c 00000000 		.word	0
 3140 0350 C0FE0000 		.word	65216
 3141 0354 06FCC0C0 		.word	-1061094394
 3142 0358 7CC60606 		.word	101107324
 3143 035c 00000000 		.word	0
 3144 0360 60380000 		.word	14432
 3145 0364 C6FCC0C0 		.word	-1061094202
 3146 0368 7CC6C6C6 		.word	-960051588
 3147 036c 00000000 		.word	0
 3148 0370 C6FE0000 		.word	65222
 3149 0374 180C0606 		.word	101059608
AARCH64 GAS  C:\Users\A01169~1\AppData\Local\Temp\cclmDoLY.s 			page 57


 3150 0378 30303030 		.word	808464432
 3151 037c 00000000 		.word	0
 3152 0380 C67C0000 		.word	31942
 3153 0384 C67CC6C6 		.word	-960070458
 3154 0388 7CC6C6C6 		.word	-960051588
 3155 038c 00000000 		.word	0
 3156 0390 C67C0000 		.word	31942
 3157 0394 067EC6C6 		.word	-960070138
 3158 0398 780C0606 		.word	101059704
 3159 039c 00000000 		.word	0
 3160 03a0 00000000 		.word	0
 3161 03a4 00001818 		.word	404226048
 3162 03a8 00181800 		.word	1579008
 3163 03ac 00000000 		.word	0
 3164 03b0 00000000 		.word	0
 3165 03b4 00001818 		.word	404226048
 3166 03b8 30181800 		.word	1579056
 3167 03bc 00000000 		.word	0
 3168 03c0 06000000 		.word	6
 3169 03c4 6030180C 		.word	202911840
 3170 03c8 060C1830 		.word	806882310
 3171 03cc 00000000 		.word	0
 3172 03d0 00000000 		.word	0
 3173 03d4 00007E00 		.word	8257536
 3174 03d8 0000007E 		.word	2113929216
 3175 03dc 00000000 		.word	0
 3176 03e0 60000000 		.word	96
 3177 03e4 060C1830 		.word	806882310
 3178 03e8 6030180C 		.word	202911840
 3179 03ec 00000000 		.word	0
 3180 03f0 C67C0000 		.word	31942
 3181 03f4 18180CC6 		.word	-972285928
 3182 03f8 18180018 		.word	402659352
 3183 03fc 00000000 		.word	0
 3184 0400 7C000000 		.word	124
 3185 0404 DEDEC6C6 		.word	-960045346
 3186 0408 7CC0DCDE 		.word	-555958148
 3187 040c 00000000 		.word	0
 3188 0410 38100000 		.word	4152
 3189 0414 FEC6C66C 		.word	1824966398
 3190 0418 C6C6C6C6 		.word	-960051514
 3191 041c 00000000 		.word	0
 3192 0420 66FC0000 		.word	64614
 3193 0424 667C6666 		.word	1717992550
 3194 0428 FC666666 		.word	1717987068
 3195 042c 00000000 		.word	0
 3196 0430 663C0000 		.word	15462
 3197 0434 C0C0C0C2 		.word	-1027555136
 3198 0438 3C66C2C0 		.word	-1061001668
 3199 043c 00000000 		.word	0
 3200 0440 6CF80000 		.word	63596
 3201 0444 66666666 		.word	1717986918
 3202 0448 F86C6666 		.word	1717988600
 3203 044c 00000000 		.word	0
 3204 0450 66FE0000 		.word	65126
 3205 0454 68786862 		.word	1651013736
 3206 0458 FE666260 		.word	1617061630
AARCH64 GAS  C:\Users\A01169~1\AppData\Local\Temp\cclmDoLY.s 			page 58


 3207 045c 00000000 		.word	0
 3208 0460 66FE0000 		.word	65126
 3209 0464 68786862 		.word	1651013736
 3210 0468 F0606060 		.word	1616929008
 3211 046c 00000000 		.word	0
 3212 0470 663C0000 		.word	15462
 3213 0474 DEC0C0C2 		.word	-1027555106
 3214 0478 3A66C6C6 		.word	-960076230
 3215 047c 00000000 		.word	0
 3216 0480 C6C60000 		.word	50886
 3217 0484 C6FEC6C6 		.word	-960037178
 3218 0488 C6C6C6C6 		.word	-960051514
 3219 048c 00000000 		.word	0
 3220 0490 183C0000 		.word	15384
 3221 0494 18181818 		.word	404232216
 3222 0498 3C181818 		.word	404232252
 3223 049c 00000000 		.word	0
 3224 04a0 0C1E0000 		.word	7692
 3225 04a4 0C0C0C0C 		.word	202116108
 3226 04a8 78CCCCCC 		.word	-858993544
 3227 04ac 00000000 		.word	0
 3228 04b0 66E60000 		.word	58982
 3229 04b4 78786C66 		.word	1718384760
 3230 04b8 E666666C 		.word	1818650342
 3231 04bc 00000000 		.word	0
 3232 04c0 60F00000 		.word	61536
 3233 04c4 60606060 		.word	1616928864
 3234 04c8 FE666260 		.word	1617061630
 3235 04cc 00000000 		.word	0
 3236 04d0 EEC60000 		.word	50926
 3237 04d4 C6D6FEFE 		.word	-16853306
 3238 04d8 C6C6C6C6 		.word	-960051514
 3239 04dc 00000000 		.word	0
 3240 04e0 E6C60000 		.word	50918
 3241 04e4 CEDEFEF6 		.word	-151068978
 3242 04e8 C6C6C6C6 		.word	-960051514
 3243 04ec 00000000 		.word	0
 3244 04f0 C67C0000 		.word	31942
 3245 04f4 C6C6C6C6 		.word	-960051514
 3246 04f8 7CC6C6C6 		.word	-960051588
 3247 04fc 00000000 		.word	0
 3248 0500 66FC0000 		.word	64614
 3249 0504 607C6666 		.word	1717992544
 3250 0508 F0606060 		.word	1616929008
 3251 050c 00000000 		.word	0
 3252 0510 C67C0000 		.word	31942
 3253 0514 C6C6C6C6 		.word	-960051514
 3254 0518 7CDED6C6 		.word	-958996868
 3255 051c 00000E0C 		.word	202244096
 3256 0520 66FC0000 		.word	64614
 3257 0524 6C7C6666 		.word	1717992556
 3258 0528 E6666666 		.word	1717987046
 3259 052c 00000000 		.word	0
 3260 0530 C67C0000 		.word	31942
 3261 0534 0C3860C6 		.word	-966772724
 3262 0538 7CC6C606 		.word	113690236
 3263 053c 00000000 		.word	0
AARCH64 GAS  C:\Users\A01169~1\AppData\Local\Temp\cclmDoLY.s 			page 59


 3264 0540 7E7E0000 		.word	32382
 3265 0544 1818185A 		.word	1511528472
 3266 0548 3C181818 		.word	404232252
 3267 054c 00000000 		.word	0
 3268 0550 C6C60000 		.word	50886
 3269 0554 C6C6C6C6 		.word	-960051514
 3270 0558 7CC6C6C6 		.word	-960051588
 3271 055c 00000000 		.word	0
 3272 0560 C6C60000 		.word	50886
 3273 0564 C6C6C6C6 		.word	-960051514
 3274 0568 10386CC6 		.word	-965986288
 3275 056c 00000000 		.word	0
 3276 0570 C6C60000 		.word	50886
 3277 0574 D6D6C6C6 		.word	-960047402
 3278 0578 6CEEFED6 		.word	-687935892
 3279 057c 00000000 		.word	0
 3280 0580 C6C60000 		.word	50886
 3281 0584 38387C6C 		.word	1820080184
 3282 0588 C6C66C7C 		.word	2087503558
 3283 058c 00000000 		.word	0
 3284 0590 66660000 		.word	26214
 3285 0594 183C6666 		.word	1717976088
 3286 0598 3C181818 		.word	404232252
 3287 059c 00000000 		.word	0
 3288 05a0 C6FE0000 		.word	65222
 3289 05a4 30180C86 		.word	-2046027728
 3290 05a8 FEC6C260 		.word	1623377662
 3291 05ac 00000000 		.word	0
 3292 05b0 303C0000 		.word	15408
 3293 05b4 30303030 		.word	808464432
 3294 05b8 3C303030 		.word	808464444
 3295 05bc 00000000 		.word	0
 3296 05c0 80000000 		.word	128
 3297 05c4 3870E0C0 		.word	-1059033032
 3298 05c8 02060E1C 		.word	470681090
 3299 05cc 00000000 		.word	0
 3300 05d0 0C3C0000 		.word	15372
 3301 05d4 0C0C0C0C 		.word	202116108
 3302 05d8 3C0C0C0C 		.word	202116156
 3303 05dc 00000000 		.word	0
 3304 05e0 C66C3810 		.word	272133318
 3305 05e4 00000000 		.word	0
 3306 05e8 00000000 		.word	0
 3307 05ec 00000000 		.word	0
 3308 05f0 00000000 		.word	0
 3309 05f4 00000000 		.word	0
 3310 05f8 00000000 		.word	0
 3311 05fc 0000FF00 		.word	16711680
 3312 0600 00183030 		.word	808458240
 3313 0604 00000000 		.word	0
 3314 0608 00000000 		.word	0
 3315 060c 00000000 		.word	0
 3316 0610 00000000 		.word	0
 3317 0614 7C0C7800 		.word	7867516
 3318 0618 76CCCCCC 		.word	-858993546
 3319 061c 00000000 		.word	0
 3320 0620 60E00000 		.word	57440
AARCH64 GAS  C:\Users\A01169~1\AppData\Local\Temp\cclmDoLY.s 			page 60


 3321 0624 666C7860 		.word	1618504806
 3322 0628 7C666666 		.word	1717986940
 3323 062c 00000000 		.word	0
 3324 0630 00000000 		.word	0
 3325 0634 C0C67C00 		.word	8177344
 3326 0638 7CC6C0C0 		.word	-1061108100
 3327 063c 00000000 		.word	0
 3328 0640 0C1C0000 		.word	7180
 3329 0644 CC6C3C0C 		.word	205286604
 3330 0648 76CCCCCC 		.word	-858993546
 3331 064c 00000000 		.word	0
 3332 0650 00000000 		.word	0
 3333 0654 FEC67C00 		.word	8177406
 3334 0658 7CC6C0C0 		.word	-1061108100
 3335 065c 00000000 		.word	0
 3336 0660 6C380000 		.word	14444
 3337 0664 60F06064 		.word	1684074592
 3338 0668 F0606060 		.word	1616929008
 3339 066c 00000000 		.word	0
 3340 0670 00000000 		.word	0
 3341 0674 CCCC7600 		.word	7785676
 3342 0678 7CCCCCCC 		.word	-858993540
 3343 067c 0078CC0C 		.word	214726656
 3344 0680 60E00000 		.word	57440
 3345 0684 66766C60 		.word	1617720934
 3346 0688 E6666666 		.word	1717987046
 3347 068c 00000000 		.word	0
 3348 0690 18180000 		.word	6168
 3349 0694 18183800 		.word	3676184
 3350 0698 3C181818 		.word	404232252
 3351 069c 00000000 		.word	0
 3352 06a0 06060000 		.word	1542
 3353 06a4 06060E00 		.word	919046
 3354 06a8 06060606 		.word	101058054
 3355 06ac 003C6666 		.word	1717976064
 3356 06b0 60E00000 		.word	57440
 3357 06b4 786C6660 		.word	1617325176
 3358 06b8 E6666C78 		.word	2020370150
 3359 06bc 00000000 		.word	0
 3360 06c0 18380000 		.word	14360
 3361 06c4 18181818 		.word	404232216
 3362 06c8 3C181818 		.word	404232252
 3363 06cc 00000000 		.word	0
 3364 06d0 00000000 		.word	0
 3365 06d4 D6FEEC00 		.word	15531734
 3366 06d8 C6D6D6D6 		.word	-690563386
 3367 06dc 00000000 		.word	0
 3368 06e0 00000000 		.word	0
 3369 06e4 6666DC00 		.word	14444134
 3370 06e8 66666666 		.word	1717986918
 3371 06ec 00000000 		.word	0
 3372 06f0 00000000 		.word	0
 3373 06f4 C6C67C00 		.word	8177350
 3374 06f8 7CC6C6C6 		.word	-960051588
 3375 06fc 00000000 		.word	0
 3376 0700 00000000 		.word	0
 3377 0704 6666DC00 		.word	14444134
AARCH64 GAS  C:\Users\A01169~1\AppData\Local\Temp\cclmDoLY.s 			page 61


 3378 0708 7C666666 		.word	1717986940
 3379 070c 00F06060 		.word	1616965632
 3380 0710 00000000 		.word	0
 3381 0714 CCCC7600 		.word	7785676
 3382 0718 7CCCCCCC 		.word	-858993540
 3383 071c 001E0C0C 		.word	202120704
 3384 0720 00000000 		.word	0
 3385 0724 6676DC00 		.word	14448230
 3386 0728 F0606060 		.word	1616929008
 3387 072c 00000000 		.word	0
 3388 0730 00000000 		.word	0
 3389 0734 60C67C00 		.word	8177248
 3390 0738 7CC60C38 		.word	940361340
 3391 073c 00000000 		.word	0
 3392 0740 30100000 		.word	4144
 3393 0744 3030FC30 		.word	821833776
 3394 0748 1C363030 		.word	808465948
 3395 074c 00000000 		.word	0
 3396 0750 00000000 		.word	0
 3397 0754 CCCCCC00 		.word	13421772
 3398 0758 76CCCCCC 		.word	-858993546
 3399 075c 00000000 		.word	0
 3400 0760 00000000 		.word	0
 3401 0764 66666600 		.word	6710886
 3402 0768 183C6666 		.word	1717976088
 3403 076c 00000000 		.word	0
 3404 0770 00000000 		.word	0
 3405 0774 D6C6C600 		.word	13027030
 3406 0778 6CFED6D6 		.word	-690553236
 3407 077c 00000000 		.word	0
 3408 0780 00000000 		.word	0
 3409 0784 386CC600 		.word	13003832
 3410 0788 C66C3838 		.word	943221958
 3411 078c 00000000 		.word	0
 3412 0790 00000000 		.word	0
 3413 0794 C6C6C600 		.word	13027014
 3414 0798 7EC6C6C6 		.word	-960051586
 3415 079c 00F80C06 		.word	101513216
 3416 07a0 00000000 		.word	0
 3417 07a4 18CCFE00 		.word	16698392
 3418 07a8 FEC66030 		.word	811648766
 3419 07ac 00000000 		.word	0
 3420 07b0 180E0000 		.word	3608
 3421 07b4 18701818 		.word	404254744
 3422 07b8 0E181818 		.word	404232206
 3423 07bc 00000000 		.word	0
 3424 07c0 18180000 		.word	6168
 3425 07c4 18001818 		.word	404226072
 3426 07c8 18181818 		.word	404232216
 3427 07cc 00000000 		.word	0
 3428 07d0 18700000 		.word	28696
 3429 07d4 180E1818 		.word	404229656
 3430 07d8 70181818 		.word	404232304
 3431 07dc 00000000 		.word	0
 3432 07e0 DC760000 		.word	30428
 3433 07e4 00000000 		.word	0
 3434 07e8 00000000 		.word	0
AARCH64 GAS  C:\Users\A01169~1\AppData\Local\Temp\cclmDoLY.s 			page 62


 3435 07ec 00000000 		.word	0
 3436 07f0 00000000 		.word	0
 3437 07f4 C66C3810 		.word	272133318
 3438 07f8 00FEC6C6 		.word	-960037376
 3439 07fc 00000000 		.word	0
 3440 0800 663C0000 		.word	15462
 3441 0804 C0C0C0C2 		.word	-1027555136
 3442 0808 0C3C66C2 		.word	-1033487348
 3443 080c 00007C06 		.word	108789760
 3444 0810 00CC0000 		.word	52224
 3445 0814 CCCCCC00 		.word	13421772
 3446 0818 76CCCCCC 		.word	-858993546
 3447 081c 00000000 		.word	0
 3448 0820 30180C00 		.word	792624
 3449 0824 FEC67C00 		.word	8177406
 3450 0828 7CC6C0C0 		.word	-1061108100
 3451 082c 00000000 		.word	0
 3452 0830 6C381000 		.word	1063020
 3453 0834 7C0C7800 		.word	7867516
 3454 0838 76CCCCCC 		.word	-858993546
 3455 083c 00000000 		.word	0
 3456 0840 00CC0000 		.word	52224
 3457 0844 7C0C7800 		.word	7867516
 3458 0848 76CCCCCC 		.word	-858993546
 3459 084c 00000000 		.word	0
 3460 0850 18306000 		.word	6303768
 3461 0854 7C0C7800 		.word	7867516
 3462 0858 76CCCCCC 		.word	-858993546
 3463 085c 00000000 		.word	0
 3464 0860 386C3800 		.word	3697720
 3465 0864 7C0C7800 		.word	7867516
 3466 0868 76CCCCCC 		.word	-858993546
 3467 086c 00000000 		.word	0
 3468 0870 00000000 		.word	0
 3469 0874 6060663C 		.word	1013342304
 3470 0878 060C3C66 		.word	1715211270
 3471 087c 0000003C 		.word	1006632960
 3472 0880 6C381000 		.word	1063020
 3473 0884 FEC67C00 		.word	8177406
 3474 0888 7CC6C0C0 		.word	-1061108100
 3475 088c 00000000 		.word	0
 3476 0890 00C60000 		.word	50688
 3477 0894 FEC67C00 		.word	8177406
 3478 0898 7CC6C0C0 		.word	-1061108100
 3479 089c 00000000 		.word	0
 3480 08a0 18306000 		.word	6303768
 3481 08a4 FEC67C00 		.word	8177406
 3482 08a8 7CC6C0C0 		.word	-1061108100
 3483 08ac 00000000 		.word	0
 3484 08b0 00660000 		.word	26112
 3485 08b4 18183800 		.word	3676184
 3486 08b8 3C181818 		.word	404232252
 3487 08bc 00000000 		.word	0
 3488 08c0 663C1800 		.word	1588326
 3489 08c4 18183800 		.word	3676184
 3490 08c8 3C181818 		.word	404232252
 3491 08cc 00000000 		.word	0
AARCH64 GAS  C:\Users\A01169~1\AppData\Local\Temp\cclmDoLY.s 			page 63


 3492 08d0 18306000 		.word	6303768
 3493 08d4 18183800 		.word	3676184
 3494 08d8 3C181818 		.word	404232252
 3495 08dc 00000000 		.word	0
 3496 08e0 1000C600 		.word	12976144
 3497 08e4 C6C66C38 		.word	946652870
 3498 08e8 C6C6C6FE 		.word	-20527418
 3499 08ec 00000000 		.word	0
 3500 08f0 00386C38 		.word	946616320
 3501 08f4 C6C66C38 		.word	946652870
 3502 08f8 C6C6C6FE 		.word	-20527418
 3503 08fc 00000000 		.word	0
 3504 0900 00603018 		.word	405823488
 3505 0904 7C6066FE 		.word	-26845060
 3506 0908 FE666060 		.word	1616930558
 3507 090c 00000000 		.word	0
 3508 0910 00000000 		.word	0
 3509 0914 3676CC00 		.word	13399606
 3510 0918 6ED8D87E 		.word	2128140398
 3511 091c 00000000 		.word	0
 3512 0920 6C3E0000 		.word	15980
 3513 0924 CCFECCCC 		.word	-858980660
 3514 0928 CECCCCCC 		.word	-858993458
 3515 092c 00000000 		.word	0
 3516 0930 6C381000 		.word	1063020
 3517 0934 C6C67C00 		.word	8177350
 3518 0938 7CC6C6C6 		.word	-960051588
 3519 093c 00000000 		.word	0
 3520 0940 00C60000 		.word	50688
 3521 0944 C6C67C00 		.word	8177350
 3522 0948 7CC6C6C6 		.word	-960051588
 3523 094c 00000000 		.word	0
 3524 0950 18306000 		.word	6303768
 3525 0954 C6C67C00 		.word	8177350
 3526 0958 7CC6C6C6 		.word	-960051588
 3527 095c 00000000 		.word	0
 3528 0960 CC783000 		.word	3176652
 3529 0964 CCCCCC00 		.word	13421772
 3530 0968 76CCCCCC 		.word	-858993546
 3531 096c 00000000 		.word	0
 3532 0970 18306000 		.word	6303768
 3533 0974 CCCCCC00 		.word	13421772
 3534 0978 76CCCCCC 		.word	-858993546
 3535 097c 00000000 		.word	0
 3536 0980 00C60000 		.word	50688
 3537 0984 C6C6C600 		.word	13027014
 3538 0988 7EC6C6C6 		.word	-960051586
 3539 098c 00780C06 		.word	101480448
 3540 0990 7C00C600 		.word	12976252
 3541 0994 C6C6C6C6 		.word	-960051514
 3542 0998 7CC6C6C6 		.word	-960051588
 3543 099c 00000000 		.word	0
 3544 09a0 C600C600 		.word	12976326
 3545 09a4 C6C6C6C6 		.word	-960051514
 3546 09a8 7CC6C6C6 		.word	-960051588
 3547 09ac 00000000 		.word	0
 3548 09b0 3C181800 		.word	1579068
AARCH64 GAS  C:\Users\A01169~1\AppData\Local\Temp\cclmDoLY.s 			page 64


 3549 09b4 60606066 		.word	1717592160
 3550 09b8 18183C66 		.word	1715214360
 3551 09bc 00000000 		.word	0
 3552 09c0 646C3800 		.word	3697764
 3553 09c4 6060F060 		.word	1626366048
 3554 09c8 FCE66060 		.word	1616963324
 3555 09cc 00000000 		.word	0
 3556 09d0 66660000 		.word	26214
 3557 09d4 187E183C 		.word	1008238104
 3558 09d8 1818187E 		.word	2115508248
 3559 09dc 00000000 		.word	0
 3560 09e0 CCCCF800 		.word	16305356
 3561 09e4 DECCC4F8 		.word	-121320226
 3562 09e8 C6CCCCCC 		.word	-858993466
 3563 09ec 00000000 		.word	0
 3564 09f0 181B0E00 		.word	924440
 3565 09f4 187E1818 		.word	404258328
 3566 09f8 18181818 		.word	404232216
 3567 09fc 000070D8 		.word	-663748608
 3568 0a00 60301800 		.word	1585248
 3569 0a04 7C0C7800 		.word	7867516
 3570 0a08 76CCCCCC 		.word	-858993546
 3571 0a0c 00000000 		.word	0
 3572 0a10 30180C00 		.word	792624
 3573 0a14 18183800 		.word	3676184
 3574 0a18 3C181818 		.word	404232252
 3575 0a1c 00000000 		.word	0
 3576 0a20 60301800 		.word	1585248
 3577 0a24 C6C67C00 		.word	8177350
 3578 0a28 7CC6C6C6 		.word	-960051588
 3579 0a2c 00000000 		.word	0
 3580 0a30 60301800 		.word	1585248
 3581 0a34 CCCCCC00 		.word	13421772
 3582 0a38 76CCCCCC 		.word	-858993546
 3583 0a3c 00000000 		.word	0
 3584 0a40 DC760000 		.word	30428
 3585 0a44 6666DC00 		.word	14444134
 3586 0a48 66666666 		.word	1717986918
 3587 0a4c 00000000 		.word	0
 3588 0a50 C600DC76 		.word	1994129606
 3589 0a54 DEFEF6E6 		.word	-420020514
 3590 0a58 C6C6C6CE 		.word	-825833786
 3591 0a5c 00000000 		.word	0
 3592 0a60 6C6C3C00 		.word	3959916
 3593 0a64 007E003E 		.word	1040219648
 3594 0a68 00000000 		.word	0
 3595 0a6c 00000000 		.word	0
 3596 0a70 6C6C3800 		.word	3697772
 3597 0a74 007C0038 		.word	939555840
 3598 0a78 00000000 		.word	0
 3599 0a7c 00000000 		.word	0
 3600 0a80 30300000 		.word	12336
 3601 0a84 60303000 		.word	3158112
 3602 0a88 7CC6C6C0 		.word	-1060714884
 3603 0a8c 00000000 		.word	0
 3604 0a90 00000000 		.word	0
 3605 0a94 C0FE0000 		.word	65216
AARCH64 GAS  C:\Users\A01169~1\AppData\Local\Temp\cclmDoLY.s 			page 65


 3606 0a98 00C0C0C0 		.word	-1061109760
 3607 0a9c 00000000 		.word	0
 3608 0aa0 00000000 		.word	0
 3609 0aa4 06FE0000 		.word	65030
 3610 0aa8 00060606 		.word	101058048
 3611 0aac 00000000 		.word	0
 3612 0ab0 C2C0C000 		.word	12632258
 3613 0ab4 3018CCC6 		.word	-959702992
 3614 0ab8 0C86DC60 		.word	1625064972
 3615 0abc 00003E18 		.word	406716416
 3616 0ac0 C2C0C000 		.word	12632258
 3617 0ac4 3018CCC6 		.word	-959702992
 3618 0ac8 3E9ECE66 		.word	1724816958
 3619 0acc 00000606 		.word	101056512
 3620 0ad0 18180000 		.word	6168
 3621 0ad4 18181800 		.word	1579032
 3622 0ad8 183C3C3C 		.word	1010580504
 3623 0adc 00000000 		.word	0
 3624 0ae0 00000000 		.word	0
 3625 0ae4 D86C3600 		.word	3566808
 3626 0ae8 0000366C 		.word	1815478272
 3627 0aec 00000000 		.word	0
 3628 0af0 00000000 		.word	0
 3629 0af4 366CD800 		.word	14183478
 3630 0af8 0000D86C 		.word	1826095104
 3631 0afc 00000000 		.word	0
 3632 0b00 44114411 		.word	289673540
 3633 0b04 44114411 		.word	289673540
 3634 0b08 44114411 		.word	289673540
 3635 0b0c 44114411 		.word	289673540
 3636 0b10 AA55AA55 		.word	1437226410
 3637 0b14 AA55AA55 		.word	1437226410
 3638 0b18 AA55AA55 		.word	1437226410
 3639 0b1c AA55AA55 		.word	1437226410
 3640 0b20 77DD77DD 		.word	-579347081
 3641 0b24 77DD77DD 		.word	-579347081
 3642 0b28 77DD77DD 		.word	-579347081
 3643 0b2c 77DD77DD 		.word	-579347081
 3644 0b30 18181818 		.word	404232216
 3645 0b34 18181818 		.word	404232216
 3646 0b38 18181818 		.word	404232216
 3647 0b3c 18181818 		.word	404232216
 3648 0b40 18181818 		.word	404232216
 3649 0b44 F8181818 		.word	404232440
 3650 0b48 18181818 		.word	404232216
 3651 0b4c 18181818 		.word	404232216
 3652 0b50 18181818 		.word	404232216
 3653 0b54 F818F818 		.word	418912504
 3654 0b58 18181818 		.word	404232216
 3655 0b5c 18181818 		.word	404232216
 3656 0b60 36363636 		.word	909522486
 3657 0b64 F6363636 		.word	909522678
 3658 0b68 36363636 		.word	909522486
 3659 0b6c 36363636 		.word	909522486
 3660 0b70 00000000 		.word	0
 3661 0b74 FE000000 		.word	254
 3662 0b78 36363636 		.word	909522486
AARCH64 GAS  C:\Users\A01169~1\AppData\Local\Temp\cclmDoLY.s 			page 66


 3663 0b7c 36363636 		.word	909522486
 3664 0b80 00000000 		.word	0
 3665 0b84 F818F800 		.word	16259320
 3666 0b88 18181818 		.word	404232216
 3667 0b8c 18181818 		.word	404232216
 3668 0b90 36363636 		.word	909522486
 3669 0b94 F606F636 		.word	922093302
 3670 0b98 36363636 		.word	909522486
 3671 0b9c 36363636 		.word	909522486
 3672 0ba0 36363636 		.word	909522486
 3673 0ba4 36363636 		.word	909522486
 3674 0ba8 36363636 		.word	909522486
 3675 0bac 36363636 		.word	909522486
 3676 0bb0 00000000 		.word	0
 3677 0bb4 F606FE00 		.word	16647926
 3678 0bb8 36363636 		.word	909522486
 3679 0bbc 36363636 		.word	909522486
 3680 0bc0 36363636 		.word	909522486
 3681 0bc4 FE06F636 		.word	922093310
 3682 0bc8 00000000 		.word	0
 3683 0bcc 00000000 		.word	0
 3684 0bd0 36363636 		.word	909522486
 3685 0bd4 FE363636 		.word	909522686
 3686 0bd8 00000000 		.word	0
 3687 0bdc 00000000 		.word	0
 3688 0be0 18181818 		.word	404232216
 3689 0be4 F818F818 		.word	418912504
 3690 0be8 00000000 		.word	0
 3691 0bec 00000000 		.word	0
 3692 0bf0 00000000 		.word	0
 3693 0bf4 F8000000 		.word	248
 3694 0bf8 18181818 		.word	404232216
 3695 0bfc 18181818 		.word	404232216
 3696 0c00 18181818 		.word	404232216
 3697 0c04 1F181818 		.word	404232223
 3698 0c08 00000000 		.word	0
 3699 0c0c 00000000 		.word	0
 3700 0c10 18181818 		.word	404232216
 3701 0c14 FF181818 		.word	404232447
 3702 0c18 00000000 		.word	0
 3703 0c1c 00000000 		.word	0
 3704 0c20 00000000 		.word	0
 3705 0c24 FF000000 		.word	255
 3706 0c28 18181818 		.word	404232216
 3707 0c2c 18181818 		.word	404232216
 3708 0c30 18181818 		.word	404232216
 3709 0c34 1F181818 		.word	404232223
 3710 0c38 18181818 		.word	404232216
 3711 0c3c 18181818 		.word	404232216
 3712 0c40 00000000 		.word	0
 3713 0c44 FF000000 		.word	255
 3714 0c48 00000000 		.word	0
 3715 0c4c 00000000 		.word	0
 3716 0c50 18181818 		.word	404232216
 3717 0c54 FF181818 		.word	404232447
 3718 0c58 18181818 		.word	404232216
 3719 0c5c 18181818 		.word	404232216
AARCH64 GAS  C:\Users\A01169~1\AppData\Local\Temp\cclmDoLY.s 			page 67


 3720 0c60 18181818 		.word	404232216
 3721 0c64 1F181F18 		.word	404690975
 3722 0c68 18181818 		.word	404232216
 3723 0c6c 18181818 		.word	404232216
 3724 0c70 36363636 		.word	909522486
 3725 0c74 37363636 		.word	909522487
 3726 0c78 36363636 		.word	909522486
 3727 0c7c 36363636 		.word	909522486
 3728 0c80 36363636 		.word	909522486
 3729 0c84 3F303736 		.word	909586495
 3730 0c88 00000000 		.word	0
 3731 0c8c 00000000 		.word	0
 3732 0c90 00000000 		.word	0
 3733 0c94 37303F00 		.word	4141111
 3734 0c98 36363636 		.word	909522486
 3735 0c9c 36363636 		.word	909522486
 3736 0ca0 36363636 		.word	909522486
 3737 0ca4 FF00F736 		.word	922157311
 3738 0ca8 00000000 		.word	0
 3739 0cac 00000000 		.word	0
 3740 0cb0 00000000 		.word	0
 3741 0cb4 F700FF00 		.word	16711927
 3742 0cb8 36363636 		.word	909522486
 3743 0cbc 36363636 		.word	909522486
 3744 0cc0 36363636 		.word	909522486
 3745 0cc4 37303736 		.word	909586487
 3746 0cc8 36363636 		.word	909522486
 3747 0ccc 36363636 		.word	909522486
 3748 0cd0 00000000 		.word	0
 3749 0cd4 FF00FF00 		.word	16711935
 3750 0cd8 00000000 		.word	0
 3751 0cdc 00000000 		.word	0
 3752 0ce0 36363636 		.word	909522486
 3753 0ce4 F700F736 		.word	922157303
 3754 0ce8 36363636 		.word	909522486
 3755 0cec 36363636 		.word	909522486
 3756 0cf0 18181818 		.word	404232216
 3757 0cf4 FF00FF18 		.word	419365119
 3758 0cf8 00000000 		.word	0
 3759 0cfc 00000000 		.word	0
 3760 0d00 36363636 		.word	909522486
 3761 0d04 FF363636 		.word	909522687
 3762 0d08 00000000 		.word	0
 3763 0d0c 00000000 		.word	0
 3764 0d10 00000000 		.word	0
 3765 0d14 FF00FF00 		.word	16711935
 3766 0d18 18181818 		.word	404232216
 3767 0d1c 18181818 		.word	404232216
 3768 0d20 00000000 		.word	0
 3769 0d24 FF000000 		.word	255
 3770 0d28 36363636 		.word	909522486
 3771 0d2c 36363636 		.word	909522486
 3772 0d30 36363636 		.word	909522486
 3773 0d34 3F363636 		.word	909522495
 3774 0d38 00000000 		.word	0
 3775 0d3c 00000000 		.word	0
 3776 0d40 18181818 		.word	404232216
AARCH64 GAS  C:\Users\A01169~1\AppData\Local\Temp\cclmDoLY.s 			page 68


 3777 0d44 1F181F18 		.word	404690975
 3778 0d48 00000000 		.word	0
 3779 0d4c 00000000 		.word	0
 3780 0d50 00000000 		.word	0
 3781 0d54 1F181F00 		.word	2037791
 3782 0d58 18181818 		.word	404232216
 3783 0d5c 18181818 		.word	404232216
 3784 0d60 00000000 		.word	0
 3785 0d64 3F000000 		.word	63
 3786 0d68 36363636 		.word	909522486
 3787 0d6c 36363636 		.word	909522486
 3788 0d70 36363636 		.word	909522486
 3789 0d74 FF363636 		.word	909522687
 3790 0d78 36363636 		.word	909522486
 3791 0d7c 36363636 		.word	909522486
 3792 0d80 18181818 		.word	404232216
 3793 0d84 FF18FF18 		.word	419371263
 3794 0d88 18181818 		.word	404232216
 3795 0d8c 18181818 		.word	404232216
 3796 0d90 18181818 		.word	404232216
 3797 0d94 F8181818 		.word	404232440
 3798 0d98 00000000 		.word	0
 3799 0d9c 00000000 		.word	0
 3800 0da0 00000000 		.word	0
 3801 0da4 1F000000 		.word	31
 3802 0da8 18181818 		.word	404232216
 3803 0dac 18181818 		.word	404232216
 3804 0db0 FFFFFFFF 		.word	-1
 3805 0db4 FFFFFFFF 		.word	-1
 3806 0db8 FFFFFFFF 		.word	-1
 3807 0dbc FFFFFFFF 		.word	-1
 3808 0dc0 00000000 		.word	0
 3809 0dc4 FF000000 		.word	255
 3810 0dc8 FFFFFFFF 		.word	-1
 3811 0dcc FFFFFFFF 		.word	-1
 3812 0dd0 F0F0F0F0 		.word	-252645136
 3813 0dd4 F0F0F0F0 		.word	-252645136
 3814 0dd8 F0F0F0F0 		.word	-252645136
 3815 0ddc F0F0F0F0 		.word	-252645136
 3816 0de0 0F0F0F0F 		.word	252645135
 3817 0de4 0F0F0F0F 		.word	252645135
 3818 0de8 0F0F0F0F 		.word	252645135
 3819 0dec 0F0F0F0F 		.word	252645135
 3820 0df0 FFFFFFFF 		.word	-1
 3821 0df4 00FFFFFF 		.word	-256
 3822 0df8 00000000 		.word	0
 3823 0dfc 00000000 		.word	0
 3824 0e00 00000000 		.word	0
 3825 0e04 D8DC7600 		.word	7789784
 3826 0e08 76DCD8D8 		.word	-656876426
 3827 0e0c 00000000 		.word	0
 3828 0e10 CC780000 		.word	30924
 3829 0e14 CCD8CCCC 		.word	-858990388
 3830 0e18 CCC6C6C6 		.word	-960051508
 3831 0e1c 00000000 		.word	0
 3832 0e20 C6FE0000 		.word	65222
 3833 0e24 C0C0C0C6 		.word	-960446272
AARCH64 GAS  C:\Users\A01169~1\AppData\Local\Temp\cclmDoLY.s 			page 69


 3834 0e28 C0C0C0C0 		.word	-1061109568
 3835 0e2c 00000000 		.word	0
 3836 0e30 00000000 		.word	0
 3837 0e34 6C6C6CFE 		.word	-26448788
 3838 0e38 6C6C6C6C 		.word	1819044972
 3839 0e3c 00000000 		.word	0
 3840 0e40 FE000000 		.word	254
 3841 0e44 183060C6 		.word	-966774760
 3842 0e48 FEC66030 		.word	811648766
 3843 0e4c 00000000 		.word	0
 3844 0e50 00000000 		.word	0
 3845 0e54 D8D87E00 		.word	8313048
 3846 0e58 70D8D8D8 		.word	-656877456
 3847 0e5c 00000000 		.word	0
 3848 0e60 00000000 		.word	0
 3849 0e64 66666666 		.word	1717986918
 3850 0e68 60607C66 		.word	1719427168
 3851 0e6c 000000C0 		.word	-1073741824
 3852 0e70 00000000 		.word	0
 3853 0e74 1818DC76 		.word	1994135576
 3854 0e78 18181818 		.word	404232216
 3855 0e7c 00000000 		.word	0
 3856 0e80 7E000000 		.word	126
 3857 0e84 66663C18 		.word	406611558
 3858 0e88 7E183C66 		.word	1715214462
 3859 0e8c 00000000 		.word	0
 3860 0e90 38000000 		.word	56
 3861 0e94 FEC6C66C 		.word	1824966398
 3862 0e98 386CC6C6 		.word	-960074696
 3863 0e9c 00000000 		.word	0
 3864 0ea0 6C380000 		.word	14444
 3865 0ea4 6CC6C6C6 		.word	-960051604
 3866 0ea8 EE6C6C6C 		.word	1819045102
 3867 0eac 00000000 		.word	0
 3868 0eb0 301E0000 		.word	7728
 3869 0eb4 663E0C18 		.word	403455590
 3870 0eb8 3C666666 		.word	1717986876
 3871 0ebc 00000000 		.word	0
 3872 0ec0 00000000 		.word	0
 3873 0ec4 DBDB7E00 		.word	8313819
 3874 0ec8 00007EDB 		.word	-612499456
 3875 0ecc 00000000 		.word	0
 3876 0ed0 03000000 		.word	3
 3877 0ed4 DBDB7E06 		.word	108977115
 3878 0ed8 C0607EF3 		.word	-209821504
 3879 0edc 00000000 		.word	0
 3880 0ee0 301C0000 		.word	7216
 3881 0ee4 607C6060 		.word	1616936032
 3882 0ee8 1C306060 		.word	1616916508
 3883 0eec 00000000 		.word	0
 3884 0ef0 7C000000 		.word	124
 3885 0ef4 C6C6C6C6 		.word	-960051514
 3886 0ef8 C6C6C6C6 		.word	-960051514
 3887 0efc 00000000 		.word	0
 3888 0f00 00000000 		.word	0
 3889 0f04 FE0000FE 		.word	-33554178
 3890 0f08 00FE0000 		.word	65024
AARCH64 GAS  C:\Users\A01169~1\AppData\Local\Temp\cclmDoLY.s 			page 70


 3891 0f0c 00000000 		.word	0
 3892 0f10 00000000 		.word	0
 3893 0f14 187E1818 		.word	404258328
 3894 0f18 FF000018 		.word	402653439
 3895 0f1c 00000000 		.word	0
 3896 0f20 30000000 		.word	48
 3897 0f24 0C060C18 		.word	403441164
 3898 0f28 7E003018 		.word	405799038
 3899 0f2c 00000000 		.word	0
 3900 0f30 0C000000 		.word	12
 3901 0f34 30603018 		.word	405823536
 3902 0f38 7E000C18 		.word	403439742
 3903 0f3c 00000000 		.word	0
 3904 0f40 1B0E0000 		.word	3611
 3905 0f44 1818181B 		.word	454563864
 3906 0f48 18181818 		.word	404232216
 3907 0f4c 18181818 		.word	404232216
 3908 0f50 18181818 		.word	404232216
 3909 0f54 18181818 		.word	404232216
 3910 0f58 70D8D8D8 		.word	-656877456
 3911 0f5c 00000000 		.word	0
 3912 0f60 00000000 		.word	0
 3913 0f64 7E001818 		.word	404226174
 3914 0f68 00181800 		.word	1579008
 3915 0f6c 00000000 		.word	0
 3916 0f70 00000000 		.word	0
 3917 0f74 00DC7600 		.word	7789568
 3918 0f78 0000DC76 		.word	1994129408
 3919 0f7c 00000000 		.word	0
 3920 0f80 6C6C3800 		.word	3697772
 3921 0f84 00000038 		.word	939524096
 3922 0f88 00000000 		.word	0
 3923 0f8c 00000000 		.word	0
 3924 0f90 00000000 		.word	0
 3925 0f94 18000000 		.word	24
 3926 0f98 00000018 		.word	402653184
 3927 0f9c 00000000 		.word	0
 3928 0fa0 00000000 		.word	0
 3929 0fa4 00000000 		.word	0
 3930 0fa8 00000018 		.word	402653184
 3931 0fac 00000000 		.word	0
 3932 0fb0 0C0C0F00 		.word	986124
 3933 0fb4 EC0C0C0C 		.word	202116332
 3934 0fb8 1C3C6C6C 		.word	1819032604
 3935 0fbc 00000000 		.word	0
 3936 0fc0 6C6CD800 		.word	14183532
 3937 0fc4 006C6C6C 		.word	1819044864
 3938 0fc8 00000000 		.word	0
 3939 0fcc 00000000 		.word	0
 3940 0fd0 30D87000 		.word	7395376
 3941 0fd4 00F8C860 		.word	1623783424
 3942 0fd8 00000000 		.word	0
 3943 0fdc 00000000 		.word	0
 3944 0fe0 00000000 		.word	0
 3945 0fe4 7C7C7C7C 		.word	2088533116
 3946 0fe8 007C7C7C 		.word	2088532992
 3947 0fec 00000000 		.word	0
AARCH64 GAS  C:\Users\A01169~1\AppData\Local\Temp\cclmDoLY.s 			page 71


 3948 0ff0 00000000 		.word	0
 3949 0ff4 00000000 		.word	0
 3950 0ff8 00000000 		.word	0
 3951 0ffc 00000000 		.word	0
 3952              		.data
 3953              		.align	2
 3954              		.set	.LANCHOR1,. + 0
 3955              		.type	ActivityGPIOPort, %object
 3956              		.size	ActivityGPIOPort, 4
 3957              	ActivityGPIOPort:
 3958 0000 2F000000 		.word	47
 3959              		.bss
 3960              		.align	3
 3961              		.set	.LANCHOR0,. + 0
 3962              		.type	ModelCheckHasRun, %object
 3963              		.size	ModelCheckHasRun, 1
 3964              	ModelCheckHasRun:
 3965 0000 00       		.zero	1
 3966 0001 000000   		.zero	3
 3967              		.type	console, %object
 3968              		.size	console, 96
 3969              	console:
 3970 0004 00000000 		.zero	96
 3970      00000000 
 3970      00000000 
 3970      00000000 
 3970      00000000 
 3971 0064 00000000 		.zero	4
 3972              		.type	heap_end.4634, %object
 3973              		.size	heap_end.4634, 8
 3974              	heap_end.4634:
 3975 0068 00000000 		.zero	8
 3975      00000000 
 3976              		.section	.rodata,"a",%progbits; //,"a"
 3977              		.align	2
 3978              		.type	BitFontEnd, %object
 3979              		.size	BitFontEnd, 4
 3980              	BitFontEnd:
 3981 1000 00000000 		.zero	4
 3982              		.section	.rodata.str1.8,"aMS",@progbits,1
 3983              		.align	3
 3984              	.LC0:
 3985 0000 43505520 		.string	"CPU frequency set to %u Hz\n"
 3985      66726571 
 3985      75656E63 
 3985      79207365 
 3985      7420746F 
 3986 001c 00000000 		.zero	4
 3987              	.LC1:
 3988 0020 536D6172 		.string	"SmartStart v2.02 compiled for Arm%d, AARCH%d with %u core s/w support\n"
 3988      74537461 
 3988      72742076 
 3988      322E3032 
 3988      20636F6D 
 3989 0067 00       		.zero	1
 3990              	.LC2:
 3991 0068 44657465 		.string	"Detected %s CPU, part id: 0x%03X, Cores made ready for use: %u\n"
AARCH64 GAS  C:\Users\A01169~1\AppData\Local\Temp\cclmDoLY.s 			page 72


 3991      63746564 
 3991      20257320 
 3991      4350552C 
 3991      20706172 
 3992              	.LC3:
 3993 00a8 494E5349 		.string	"INSIDE SMART PUT PIXEL"
 3993      44452053 
 3993      4D415254 
 3993      20505554 
 3993      20504958 
 3994 00bf 00       		.zero	1
 3995              	.LC4:
 3996 00c0 53637265 		.string	"Screen resolution %i x %i Colour Depth: %i\n"
 3996      656E2072 
 3996      65736F6C 
 3996      7574696F 
 3996      6E202569 
 3997              		.ident	"GCC: (GNU Toolchain for the A-profile Architecture 8.2-2019.01 (arm-rel-8.28)) 8.2.1 20180
AARCH64 GAS  C:\Users\A01169~1\AppData\Local\Temp\cclmDoLY.s 			page 73


DEFINED SYMBOLS
                            *ABS*:0000000000000000 rpi-SmartStart.c
C:\Users\A01169~1\AppData\Local\Temp\cclmDoLY.s:4      .text:0000000000000000 $x
C:\Users\A01169~1\AppData\Local\Temp\cclmDoLY.s:7      .text:0000000000000000 ClearArea16
C:\Users\A01169~1\AppData\Local\Temp\cclmDoLY.s:97     .text:0000000000000140 VertLine16
C:\Users\A01169~1\AppData\Local\Temp\cclmDoLY.s:214    .text:00000000000002d0 HorzLine16
C:\Users\A01169~1\AppData\Local\Temp\cclmDoLY.s:282    .text:00000000000003b0 DiagLine16
C:\Users\A01169~1\AppData\Local\Temp\cclmDoLY.s:336    .text:0000000000000470 WriteChar16
C:\Users\A01169~1\AppData\Local\Temp\cclmDoLY.s:2927   .rodata:0000000000000000 BitFont
C:\Users\A01169~1\AppData\Local\Temp\cclmDoLY.s:405    .text:0000000000000570 PutImage16
C:\Users\A01169~1\AppData\Local\Temp\cclmDoLY.s:456    .text:0000000000000620 ClearArea24
C:\Users\A01169~1\AppData\Local\Temp\cclmDoLY.s:502    .text:00000000000006c0 VertLine24
C:\Users\A01169~1\AppData\Local\Temp\cclmDoLY.s:553    .text:0000000000000770 HorzLine24
C:\Users\A01169~1\AppData\Local\Temp\cclmDoLY.s:588    .text:00000000000007e0 DiagLine24
C:\Users\A01169~1\AppData\Local\Temp\cclmDoLY.s:635    .text:0000000000000880 WriteChar24
C:\Users\A01169~1\AppData\Local\Temp\cclmDoLY.s:688    .text:0000000000000930 PutImage24
C:\Users\A01169~1\AppData\Local\Temp\cclmDoLY.s:741    .text:00000000000009f0 ClearArea32
C:\Users\A01169~1\AppData\Local\Temp\cclmDoLY.s:779    .text:0000000000000a60 VertLine32
C:\Users\A01169~1\AppData\Local\Temp\cclmDoLY.s:830    .text:0000000000000b00 HorzLine32
C:\Users\A01169~1\AppData\Local\Temp\cclmDoLY.s:861    .text:0000000000000b60 DiagLine32
C:\Users\A01169~1\AppData\Local\Temp\cclmDoLY.s:904    .text:0000000000000bf0 WriteChar32
C:\Users\A01169~1\AppData\Local\Temp\cclmDoLY.s:913    .text:0000000000000c00 PutImage32
C:\Users\A01169~1\AppData\Local\Temp\cclmDoLY.s:959    .text:0000000000000ca0 mailbox_tag_message.constprop.4
C:\Users\A01169~1\AppData\Local\Temp\cclmDoLY.s:1006   .text:0000000000000d40 mailbox_tag_message.constprop.7
C:\Users\A01169~1\AppData\Local\Temp\cclmDoLY.s:1112   .text:0000000000000ea0 mailbox_tag_message.constprop.5
C:\Users\A01169~1\AppData\Local\Temp\cclmDoLY.s:1174   .text:0000000000000f70 mailbox_tag_message.constprop.6
C:\Users\A01169~1\AppData\Local\Temp\cclmDoLY.s:1234   .text:0000000000001040 gpio_setup
C:\Users\A01169~1\AppData\Local\Temp\cclmDoLY.s:1266   .text:00000000000010b0 gpio_output
C:\Users\A01169~1\AppData\Local\Temp\cclmDoLY.s:1301   .text:0000000000001120 gpio_input
C:\Users\A01169~1\AppData\Local\Temp\cclmDoLY.s:1325   .text:0000000000001160 gpio_checkEvent
C:\Users\A01169~1\AppData\Local\Temp\cclmDoLY.s:1348   .text:00000000000011a0 gpio_clearEvent
C:\Users\A01169~1\AppData\Local\Temp\cclmDoLY.s:1370   .text:00000000000011e0 gpio_edgeDetect
C:\Users\A01169~1\AppData\Local\Temp\cclmDoLY.s:1423   .text:0000000000001280 gpio_fixResistor
C:\Users\A01169~1\AppData\Local\Temp\cclmDoLY.s:1492   .text:0000000000001360 timer_getTickCount
C:\Users\A01169~1\AppData\Local\Temp\cclmDoLY.s:1511   .text:0000000000001390 timer_wait
C:\Users\A01169~1\AppData\Local\Temp\cclmDoLY.s:1542   .text:00000000000013f0 tick_difference
C:\Users\A01169~1\AppData\Local\Temp\cclmDoLY.s:1550   .text:0000000000001400 mailbox_write
C:\Users\A01169~1\AppData\Local\Temp\cclmDoLY.s:1575   .text:0000000000001440 mailbox_read
C:\Users\A01169~1\AppData\Local\Temp\cclmDoLY.s:1601   .text:0000000000001490 mailbox_tag_message
C:\Users\A01169~1\AppData\Local\Temp\cclmDoLY.s:1726   .text:0000000000001630 set_Activity_LED
C:\Users\A01169~1\AppData\Local\Temp\cclmDoLY.s:1844   .text:00000000000017b0 ARM_setmaxspeed
C:\Users\A01169~1\AppData\Local\Temp\cclmDoLY.s:1890   .text:0000000000001840 displaySmartStart
C:\Users\A01169~1\AppData\Local\Temp\cclmDoLY.s:1926   .text:00000000000018b0 Embedded_Console_WriteChar
C:\Users\A01169~1\AppData\Local\Temp\cclmDoLY.s:1982   .text:0000000000001960 WriteText
C:\Users\A01169~1\AppData\Local\Temp\cclmDoLY.s:2058   .text:0000000000001a50 SetDCPenColor
C:\Users\A01169~1\AppData\Local\Temp\cclmDoLY.s:2071   .text:0000000000001a70 SetDCBrushColor
C:\Users\A01169~1\AppData\Local\Temp\cclmDoLY.s:2084   .text:0000000000001a90 MoveToEx
C:\Users\A01169~1\AppData\Local\Temp\cclmDoLY.s:2105   .text:0000000000001ac0 LineTo
C:\Users\A01169~1\AppData\Local\Temp\cclmDoLY.s:2177   .text:0000000000001b90 TextOut
C:\Users\A01169~1\AppData\Local\Temp\cclmDoLY.s:2219   .text:0000000000001c10 BmpOut
C:\Users\A01169~1\AppData\Local\Temp\cclmDoLY.s:2245   .text:0000000000001c60 CvtBmpLine
C:\Users\A01169~1\AppData\Local\Temp\cclmDoLY.s:2514   .text:0000000000002000 SmartStartPutPixelRaw
C:\Users\A01169~1\AppData\Local\Temp\cclmDoLY.s:2524   .text:0000000000002010 Rectangle
C:\Users\A01169~1\AppData\Local\Temp\cclmDoLY.s:2542   .text:0000000000002040 PiConsole_Init
C:\Users\A01169~1\AppData\Local\Temp\cclmDoLY.s:2729   .text:00000000000022d0 GetConsoleDC
C:\Users\A01169~1\AppData\Local\Temp\cclmDoLY.s:2739   .text:00000000000022e0 GetConsole_FrameBuffer
C:\Users\A01169~1\AppData\Local\Temp\cclmDoLY.s:2748   .text:00000000000022f0 GetConsole_Width
AARCH64 GAS  C:\Users\A01169~1\AppData\Local\Temp\cclmDoLY.s 			page 74


C:\Users\A01169~1\AppData\Local\Temp\cclmDoLY.s:2757   .text:0000000000002300 GetConsole_Height
C:\Users\A01169~1\AppData\Local\Temp\cclmDoLY.s:2766   .text:0000000000002310 _sbrk
C:\Users\A01169~1\AppData\Local\Temp\cclmDoLY.s:2783   .text:0000000000002340 _kill
C:\Users\A01169~1\AppData\Local\Temp\cclmDoLY.s:2794   .text:0000000000002360 _getpid
C:\Users\A01169~1\AppData\Local\Temp\cclmDoLY.s:2802   .text:0000000000002370 _read
C:\Users\A01169~1\AppData\Local\Temp\cclmDoLY.s:2810   .text:0000000000002380 _close
C:\Users\A01169~1\AppData\Local\Temp\cclmDoLY.s:2818   .text:0000000000002390 _lseek
C:\Users\A01169~1\AppData\Local\Temp\cclmDoLY.s:2826   .text:00000000000023a0 _isatty
C:\Users\A01169~1\AppData\Local\Temp\cclmDoLY.s:2834   .text:00000000000023b0 _fstat
C:\Users\A01169~1\AppData\Local\Temp\cclmDoLY.s:2844   .text:00000000000023c0 _exit
C:\Users\A01169~1\AppData\Local\Temp\cclmDoLY.s:2853   .text:00000000000023d0 _write
C:\Users\A01169~1\AppData\Local\Temp\cclmDoLY.s:3969   .bss:0000000000000004 console
C:\Users\A01169~1\AppData\Local\Temp\cclmDoLY.s:3980   .rodata:0000000000001000 BitFontEnd
C:\Users\A01169~1\AppData\Local\Temp\cclmDoLY.s:2924   .rodata:0000000000000000 $d
C:\Users\A01169~1\AppData\Local\Temp\cclmDoLY.s:3953   .data:0000000000000000 $d
C:\Users\A01169~1\AppData\Local\Temp\cclmDoLY.s:3957   .data:0000000000000000 ActivityGPIOPort
C:\Users\A01169~1\AppData\Local\Temp\cclmDoLY.s:3960   .bss:0000000000000000 $d
C:\Users\A01169~1\AppData\Local\Temp\cclmDoLY.s:3964   .bss:0000000000000000 ModelCheckHasRun
C:\Users\A01169~1\AppData\Local\Temp\cclmDoLY.s:3974   .bss:0000000000000068 heap_end.4634
C:\Users\A01169~1\AppData\Local\Temp\cclmDoLY.s:3983   .rodata.str1.8:0000000000000000 $d

UNDEFINED SYMBOLS
ARMaddrToGPUaddr
RPi_IO_Base_Addr
RPi_CpuId
RPi_CompileMode
RPi_CpuIdString
RPi_CoresReady
strlen
hal_io_serial_puts
GPUaddrToARMaddr
_end
errno
AARCH64 GAS  C:\Users\A01169~1\AppData\Local\Temp\cclmDoLY.s 			page 1


   1              		.arch armv8-a
   2              		.file	"emb-stdio.c"
   3              		.text
   4              		.align	2
   5              		.p2align 4,,15
   6              		.type	number, %function
   7              	number:
   8 0000 FF4301D1 		sub	sp, sp, #80
   9 0004 AC001B12 		and	w12, w5, 32
  10 0008 AF001C12 		and	w15, w5, 16
  11 000c 250E2037 		tbnz	x5, 4, .L51
  12 0010 BF0040F2 		tst	x5, 1
  13 0014 0A068052 		mov	w10, 48
  14 0018 06048052 		mov	w6, 32
  15 001c 2D028052 		mov	w13, 17
  16 0020 4A11861A 		csel	w10, w10, w6, ne
  17 0024 AD000D0A 		and	w13, w5, w13
  18 0028 AE001A12 		and	w14, w5, 64
  19 002c C50D0836 		tbz	x5, 1, .L28
  20              	.L61:
  21 0030 E10DF8B7 		tbnz	x1, #63, .L52
  22 0034 65101037 		tbnz	x5, 2, .L53
  23 0038 10008052 		mov	w16, 0
  24 003c 65001836 		tbz	x5, 3, .L3
  25 0040 63040051 		sub	w3, w3, #1
  26 0044 10048052 		mov	w16, 32
  27              		.p2align 3
  28              	.L3:
  29 0048 CE000034 		cbz	w14, .L8
  30              	.L5:
  31 004c 5F400071 		cmp	w2, 16
  32 0050 E0100054 		beq	.L54
  33 0054 5F200071 		cmp	w2, 8
  34 0058 E5179F1A 		cset	w5, eq
  35 005c 6300054B 		sub	w3, w3, w5
  36              	.L8:
  37 0060 E10C00B5 		cbnz	x1, .L6
  38 0064 01068052 		mov	w1, 48
  39 0068 05068052 		mov	w5, 48
  40 006c 08008052 		mov	w8, 0
  41 0070 29008052 		mov	w9, 1
  42 0074 E1230039 		strb	w1, [sp, 8]
  43              	.L10:
  44 0078 3F01046B 		cmp	w9, w4
  45 007c 24A1841A 		csel	w4, w9, w4, ge
  46 0080 6300044B 		sub	w3, w3, w4
  47 0084 67040051 		sub	w7, w3, #1
  48 0088 ED010035 		cbnz	w13, .L12
  49 008c 7F000071 		cmp	w3, 0
  50 0090 CD0F0054 		ble	.L55
  51 0094 E3040091 		add	x3, x7, 1
  52 0098 E10300AA 		mov	x1, x0
  53 009c 0300038B 		add	x3, x0, x3
  54 00a0 06048052 		mov	w6, 32
  55 00a4 1F2003D5 		.p2align 3
  56              	.L14:
  57 00a8 26140038 		strb	w6, [x1], 1
AARCH64 GAS  C:\Users\A01169~1\AppData\Local\Temp\cclmDoLY.s 			page 2


  58 00ac 7F0001EB 		cmp	x3, x1
  59 00b0 C1FFFF54 		bne	.L14
  60 00b4 E1040091 		add	x1, x7, 1
  61 00b8 03008012 		mov	w3, -1
  62 00bc 0000018B 		add	x0, x0, x1
  63 00c0 27008012 		mov	w7, -2
  64              	.L12:
  65 00c4 50000034 		cbz	w16, .L15
  66 00c8 10140038 		strb	w16, [x0], 1
  67              	.L15:
  68 00cc AE000034 		cbz	w14, .L16
  69 00d0 5F200071 		cmp	w2, 8
  70 00d4 000D0054 		beq	.L56
  71 00d8 5F400071 		cmp	w2, 16
  72 00dc 800B0054 		beq	.L57
  73              	.L16:
  74 00e0 6F020035 		cbnz	w15, .L18
  75 00e4 7F000071 		cmp	w3, 0
  76 00e8 E600000B 		add	w6, w7, w0
  77 00ec E30300AA 		mov	x3, x0
  78 00f0 22008052 		mov	w2, 1
  79 00f4 2D0D0054 		ble	.L58
  80              		.p2align 3
  81              	.L19:
  82 00f8 6A140038 		strb	w10, [x3], 1
  83 00fc 4100034B 		sub	w1, w2, w3
  84 0100 C100010B 		add	w1, w6, w1
  85 0104 3F000071 		cmp	w1, 0
  86 0108 8CFFFF54 		bgt	.L19
  87 010c FF000071 		cmp	w7, 0
  88 0110 E3040051 		sub	w3, w7, #1
  89 0114 E1A09F1A 		csel	w1, w7, wzr, ge
  90 0118 6300014B 		sub	w3, w3, w1
  91 011c 217C4093 		sxtw	x1, w1
  92 0120 67040051 		sub	w7, w3, #1
  93 0124 21040091 		add	x1, x1, 1
  94 0128 0000018B 		add	x0, x0, x1
  95              	.L18:
  96 012c 3F01046B 		cmp	w9, w4
  97 0130 8A0A0054 		bge	.L59
  98 0134 8200094B 		sub	w2, w4, w9
  99 0138 04068052 		mov	w4, 48
 100 013c 42040051 		sub	w2, w2, #1
 101 0140 42040091 		add	x2, x2, 1
 102 0144 0200028B 		add	x2, x0, x2
 103              		.p2align 3
 104              	.L20:
 105 0148 04140038 		strb	w4, [x0], 1
 106 014c 1F0002EB 		cmp	x0, x2
 107 0150 C1FFFF54 		bne	.L20
 108              	.L21:
 109 0154 007D4093 		sxtw	x0, w8
 110 0158 E40302AA 		mov	x4, x2
 111 015c E10300AA 		mov	x1, x0
 112 0160 02000014 		b	.L24
 113              		.p2align 2
 114              	.L60:
AARCH64 GAS  C:\Users\A01169~1\AppData\Local\Temp\cclmDoLY.s 			page 3


 115 0164 C5F05F38 		ldrb	w5, [x6, -1]
 116              	.L24:
 117 0168 85140038 		strb	w5, [x4], 1
 118 016c E6230091 		add	x6, sp, 8
 119 0170 2600068B 		add	x6, x1, x6
 120 0174 3F000071 		cmp	w1, 0
 121 0178 210400D1 		sub	x1, x1, #1
 122 017c 4CFFFF54 		bgt	.L60
 123 0180 00040091 		add	x0, x0, 1
 124 0184 7F000071 		cmp	w3, 0
 125 0188 4000008B 		add	x0, x2, x0
 126 018c ED010054 		ble	.L1
 127 0190 E20300AA 		mov	x2, x0
 128 0194 E500000B 		add	w5, w7, w0
 129 0198 04048052 		mov	w4, 32
 130 019c 23008052 		mov	w3, 1
 131              		.p2align 3
 132              	.L26:
 133 01a0 44140038 		strb	w4, [x2], 1
 134 01a4 6100024B 		sub	w1, w3, w2
 135 01a8 A100010B 		add	w1, w5, w1
 136 01ac 3F000071 		cmp	w1, 0
 137 01b0 8CFFFF54 		bgt	.L26
 138 01b4 FF000071 		cmp	w7, 0
 139 01b8 E1A09F1A 		csel	w1, w7, wzr, ge
 140 01bc 217C4093 		sxtw	x1, w1
 141 01c0 21040091 		add	x1, x1, 1
 142 01c4 0000018B 		add	x0, x0, x1
 143              	.L1:
 144 01c8 FF430191 		add	sp, sp, 80
 145 01cc C0035FD6 		ret
 146              		.p2align 2
 147              	.L51:
 148 01d0 A5781F12 		and	w5, w5, -2
 149 01d4 ED030F2A 		mov	w13, w15
 150 01d8 0A048052 		mov	w10, 32
 151 01dc AE001A12 		and	w14, w5, 64
 152 01e0 85F20F37 		tbnz	x5, 1, .L61
 153              	.L28:
 154 01e4 10008052 		mov	w16, 0
 155 01e8 98FFFF17 		b	.L3
 156              		.p2align 2
 157              	.L52:
 158 01ec E10301CB 		neg	x1, x1
 159 01f0 63040051 		sub	w3, w3, #1
 160 01f4 B0058052 		mov	w16, 45
 161 01f8 AEF2FF35 		cbnz	w14, .L5
 162              	.L6:
 163 01fc 0B000090 		adrp	x11, .LANCHOR0
 164 0200 6B010091 		add	x11, x11, :lo12:.LANCHOR0
 165 0204 467C4093 		sxtw	x6, w2
 166 0208 E7230091 		add	x7, sp, 8
 167 020c 08008052 		mov	w8, 0
 168 0210 02000014 		b	.L11
 169              		.p2align 2
 170              	.L31:
 171 0214 E803092A 		mov	w8, w9
AARCH64 GAS  C:\Users\A01169~1\AppData\Local\Temp\cclmDoLY.s 			page 4


 172              	.L11:
 173 0218 E50301AA 		mov	x5, x1
 174 021c 09050011 		add	w9, w8, 1
 175 0220 2108C69A 		udiv	x1, x1, x6
 176 0224 BF0006EB 		cmp	x5, x6
 177 0228 2594069B 		msub	x5, x1, x6, x5
 178 022c 65C96538 		ldrb	w5, [x11, w5, sxtw]
 179 0230 A5000C2A 		orr	w5, w5, w12
 180 0234 E5140038 		strb	w5, [x7], 1
 181 0238 E2FEFF54 		bcs	.L31
 182 023c 8FFFFF17 		b	.L10
 183              		.p2align 2
 184              	.L53:
 185 0240 63040051 		sub	w3, w3, #1
 186 0244 70058052 		mov	w16, 43
 187 0248 80FFFF17 		b	.L3
 188              		.p2align 2
 189              	.L57:
 190 024c E10300AA 		mov	x1, x0
 191 0250 06068052 		mov	w6, 48
 192 0254 020B8052 		mov	w2, 88
 193 0258 8C01022A 		orr	w12, w12, w2
 194 025c 26240038 		strb	w6, [x1], 2
 195 0260 0C040039 		strb	w12, [x0, 1]
 196 0264 E00301AA 		mov	x0, x1
 197 0268 9EFFFF17 		b	.L16
 198              		.p2align 2
 199              	.L54:
 200 026c 63080051 		sub	w3, w3, #2
 201 0270 7CFFFF17 		b	.L8
 202              		.p2align 2
 203              	.L56:
 204 0274 01068052 		mov	w1, 48
 205 0278 01140038 		strb	w1, [x0], 1
 206 027c 99FFFF17 		b	.L16
 207              		.p2align 2
 208              	.L59:
 209 0280 E20300AA 		mov	x2, x0
 210 0284 B4FFFF17 		b	.L21
 211              	.L55:
 212 0288 61080051 		sub	w1, w3, #2
 213 028c E303072A 		mov	w3, w7
 214 0290 E703012A 		mov	w7, w1
 215 0294 8CFFFF17 		b	.L12
 216              	.L58:
 217 0298 E303072A 		mov	w3, w7
 218 029c E7040051 		sub	w7, w7, #1
 219 02a0 A3FFFF17 		b	.L18
 220              		.size	number, .-number
 221              		.align	2
 222 02a4 1F2003D5 		.p2align 4,,15
 222      1F2003D5 
 222      1F2003D5 
 223              		.global	vsprintf
 224              		.type	vsprintf, %function
 225              	vsprintf:
 226 02b0 F353B9A9 		stp	x19, x20, [sp, -112]!
AARCH64 GAS  C:\Users\A01169~1\AppData\Local\Temp\cclmDoLY.s 			page 5


 227 02b4 F30301AA 		mov	x19, x1
 228 02b8 F55B01A9 		stp	x21, x22, [sp, 16]
 229 02bc F50300AA 		mov	x21, x0
 230 02c0 F76302A9 		stp	x23, x24, [sp, 32]
 231 02c4 581840B9 		ldr	w24, [x2, 24]
 232 02c8 570040F9 		ldr	x23, [x2]
 233 02cc FE2B00F9 		str	x30, [sp, 80]
 234 02d0 E03300F9 		str	x0, [sp, 96]
 235 02d4 20004039 		ldrb	w0, [x1]
 236 02d8 410440F9 		ldr	x1, [x2, 8]
 237 02dc E13700F9 		str	x1, [sp, 104]
 238 02e0 603A0034 		cbz	w0, .L157
 239 02e4 56018052 		mov	w22, 10
 240 02e8 F96B03A9 		stp	x25, x26, [sp, 48]
 241 02ec 1A0D8052 		mov	w26, 104
 242 02f0 FB7304A9 		stp	x27, x28, [sp, 64]
 243 02f4 1F2003D5 		.p2align 3
 244              	.L151:
 245 02f8 1F940071 		cmp	w0, 37
 246 02fc E0010054 		beq	.L158
 247 0300 A0160038 		strb	w0, [x21], 1
 248 0304 73060091 		add	x19, x19, 1
 249 0308 60024039 		ldrb	w0, [x19]
 250 030c 60FFFF35 		cbnz	w0, .L151
 251              	.L134:
 252 0310 E06340B9 		ldr	w0, [sp, 96]
 253 0314 F96B43A9 		ldp	x25, x26, [sp, 48]
 254 0318 A002004B 		sub	w0, w21, w0
 255 031c FB7344A9 		ldp	x27, x28, [sp, 64]
 256 0320 BF020039 		strb	wzr, [x21]
 257 0324 F55B41A9 		ldp	x21, x22, [sp, 16]
 258 0328 F76342A9 		ldp	x23, x24, [sp, 32]
 259 032c FE2B40F9 		ldr	x30, [sp, 80]
 260 0330 F353C7A8 		ldp	x19, x20, [sp], 112
 261 0334 C0035FD6 		ret
 262              		.p2align 2
 263              	.L158:
 264 0338 61064039 		ldrb	w1, [x19, 1]
 265 033c 1C008052 		mov	w28, 0
 266 0340 74060091 		add	x20, x19, 1
 267 0344 3FAC0071 		cmp	w1, 43
 268 0348 A0010054 		beq	.L66
 269 034c 1F2003D5 		.p2align 3
 270              	.L216:
 271 0350 C8010054 		bhi	.L67
 272 0354 3F800071 		cmp	w1, 32
 273 0358 60080054 		beq	.L68
 274 035c 3F8C0071 		cmp	w1, 35
 275 0360 81020054 		bne	.L70
 276 0364 9C031A32 		orr	w28, w28, 64
 277 0368 F30314AA 		mov	x19, x20
 278              	.L217:
 279 036c 61064039 		ldrb	w1, [x19, 1]
 280 0370 74060091 		add	x20, x19, 1
 281 0374 3FAC0071 		cmp	w1, 43
 282 0378 C1FEFF54 		bne	.L216
 283              	.L66:
AARCH64 GAS  C:\Users\A01169~1\AppData\Local\Temp\cclmDoLY.s 			page 6


 284 037c 9C031E32 		orr	w28, w28, 4
 285 0380 F30314AA 		mov	x19, x20
 286 0384 FAFFFF17 		b	.L217
 287              		.p2align 2
 288              	.L67:
 289 0388 3FB40071 		cmp	w1, 45
 290 038c C0000054 		beq	.L71
 291 0390 3FC00071 		cmp	w1, 48
 292 0394 E1000054 		bne	.L70
 293 0398 9C030032 		orr	w28, w28, 1
 294 039c F30314AA 		mov	x19, x20
 295 03a0 F3FFFF17 		b	.L217
 296              		.p2align 2
 297              	.L71:
 298 03a4 9C031C32 		orr	w28, w28, 16
 299 03a8 F30314AA 		mov	x19, x20
 300 03ac F0FFFF17 		b	.L217
 301              		.p2align 2
 302              	.L70:
 303 03b0 00000094 		bl	__locale_ctype_ptr
 304 03b4 81024039 		ldrb	w1, [x20]
 305 03b8 0000218B 		add	x0, x0, x1, uxtb
 306 03bc 00044039 		ldrb	w0, [x0, 1]
 307 03c0 A00B1037 		tbnz	x0, 2, .L218
 308 03c4 3FA80071 		cmp	w1, 42
 309 03c8 19008012 		mov	w25, -1
 310 03cc 20160054 		beq	.L219
 311              	.L77:
 312 03d0 3FB80071 		cmp	w1, 46
 313 03d4 04008012 		mov	w4, -1
 314 03d8 800C0054 		beq	.L220
 315              	.L82:
 316 03dc 20781A12 		and	w0, w1, -33
 317 03e0 1F300171 		cmp	w0, 76
 318 03e4 24105A7A 		ccmp	w1, w26, 4, ne
 319 03e8 C10D0054 		bne	.L90
 320              	.L227:
 321 03ec 80064039 		ldrb	w0, [x20, 1]
 322 03f0 E503012A 		mov	w5, w1
 323 03f4 9B060091 		add	x27, x20, 1
 324 03f8 1FB80171 		cmp	w0, 110
 325 03fc 602E0054 		beq	.L91
 326 0400 C9050054 		bls	.L221
 327 0404 1FCC0171 		cmp	w0, 115
 328 0408 80190054 		beq	.L99
 329 040c 28030054 		bhi	.L100
 330 0410 1FBC0171 		cmp	w0, 111
 331 0414 A0130054 		beq	.L164
 332 0418 1FC00171 		cmp	w0, 112
 333 041c 810D0054 		bne	.L97
 334              	.L102:
 335 0420 3F070031 		cmn	w25, #1
 336 0424 E0270054 		beq	.L222
 337 0428 D825F837 		tbnz	w24, #31, .L122
 338              	.L236:
 339 042c E13E0091 		add	x1, x23, 15
 340 0430 E00317AA 		mov	x0, x23
AARCH64 GAS  C:\Users\A01169~1\AppData\Local\Temp\cclmDoLY.s 			page 7


 341 0434 37F07D92 		and	x23, x1, -8
 342              	.L123:
 343 0438 010040F9 		ldr	x1, [x0]
 344 043c E5031C2A 		mov	w5, w28
 345 0440 E00315AA 		mov	x0, x21
 346 0444 E303192A 		mov	w3, w25
 347 0448 02028052 		mov	w2, 16
 348 044c 73070091 		add	x19, x27, 1
 349 0450 ECFEFF97 		bl	number
 350 0454 F50300AA 		mov	x21, x0
 351 0458 60074039 		ldrb	w0, [x27, 1]
 352 045c E0F4FF35 		cbnz	w0, .L151
 353 0460 ACFFFF17 		b	.L134
 354              		.p2align 2
 355              	.L68:
 356 0464 9C031D32 		orr	w28, w28, 8
 357 0468 F30314AA 		mov	x19, x20
 358 046c C0FFFF17 		b	.L217
 359              		.p2align 2
 360              	.L100:
 361 0470 1FD40171 		cmp	w0, 117
 362 0474 60100054 		beq	.L165
 363 0478 9C031B32 		orr	w28, w28, 32
 364 047c 1FE00171 		cmp	w0, 120
 365 0480 02028052 		mov	w2, 16
 366 0484 410A0054 		bne	.L97
 367              	.L101:
 368 0488 BFB00171 		cmp	w5, 108
 369 048c A0020054 		beq	.L223
 370              	.L135:
 371 0490 BFA00171 		cmp	w5, 104
 372 0494 81031F12 		and	w1, w28, 2
 373 0498 C0110054 		beq	.L224
 374              	.L132:
 375 049c E10B0034 		cbz	w1, .L144
 376              	.L229:
 377 04a0 581EF837 		tbnz	w24, #31, .L145
 378 04a4 E00317AA 		mov	x0, x23
 379 04a8 E12E0091 		add	x1, x23, 11
 380 04ac 37F07D92 		and	x23, x1, -8
 381 04b0 010080B9 		ldrsw	x1, [x0]
 382 04b4 10000014 		b	.L139
 383              		.p2align 2
 384              	.L221:
 385 04b8 1F8C0171 		cmp	w0, 99
 386 04bc 40180054 		beq	.L93
 387 04c0 C8020054 		bhi	.L94
 388 04c4 1F940071 		cmp	w0, 37
 389 04c8 80110054 		beq	.L95
 390 04cc 1F600171 		cmp	w0, 88
 391 04d0 E1070054 		bne	.L97
 392 04d4 02028052 		mov	w2, 16
 393              		.p2align 3
 394              	.L230:
 395 04d8 BFB00171 		cmp	w5, 108
 396 04dc A1FDFF54 		bne	.L135
 397              	.L223:
AARCH64 GAS  C:\Users\A01169~1\AppData\Local\Temp\cclmDoLY.s 			page 8


 398 04e0 5826F837 		tbnz	w24, #31, .L136
 399 04e4 E13E0091 		add	x1, x23, 15
 400 04e8 E00317AA 		mov	x0, x23
 401 04ec 37F07D92 		and	x23, x1, -8
 402              	.L137:
 403 04f0 010040F9 		ldr	x1, [x0]
 404              	.L139:
 405 04f4 E00315AA 		mov	x0, x21
 406 04f8 E5031C2A 		mov	w5, w28
 407 04fc E303192A 		mov	w3, w25
 408 0500 C0FEFF97 		bl	number
 409 0504 F50300AA 		mov	x21, x0
 410 0508 60074039 		ldrb	w0, [x27, 1]
 411 050c 73070091 		add	x19, x27, 1
 412 0510 40EFFF35 		cbnz	w0, .L151
 413 0514 7FFFFF17 		b	.L134
 414              		.p2align 2
 415              	.L94:
 416 0518 1F900171 		cmp	w0, 100
 417 051c 60000054 		beq	.L98
 418 0520 1FA40171 		cmp	w0, 105
 419 0524 41050054 		bne	.L97
 420              	.L98:
 421 0528 9C031F32 		orr	w28, w28, 2
 422 052c 42018052 		mov	w2, 10
 423 0530 D6FFFF17 		b	.L101
 424              		.p2align 2
 425              	.L218:
 426 0534 19008052 		mov	w25, 0
 427 0538 03000014 		b	.L74
 428              		.p2align 2
 429              	.L76:
 430 053c 94060091 		add	x20, x20, 1
 431 0540 59C00051 		sub	w25, w2, #48
 432              	.L74:
 433 0544 00000094 		bl	__locale_ctype_ptr
 434 0548 81024039 		ldrb	w1, [x20]
 435 054c 0000218B 		add	x0, x0, x1, uxtb
 436 0550 2207161B 		madd	w2, w25, w22, w1
 437 0554 00044039 		ldrb	w0, [x0, 1]
 438 0558 20FF1737 		tbnz	x0, 2, .L76
 439 055c 3FB80071 		cmp	w1, 46
 440 0560 04008012 		mov	w4, -1
 441 0564 C1F3FF54 		bne	.L82
 442              	.L220:
 443 0568 00000094 		bl	__locale_ctype_ptr
 444 056c 93060091 		add	x19, x20, 1
 445 0570 81064039 		ldrb	w1, [x20, 1]
 446 0574 0000218B 		add	x0, x0, x1, uxtb
 447 0578 00044039 		ldrb	w0, [x0, 1]
 448 057c A01F1037 		tbnz	x0, 2, .L225
 449 0580 3FA80071 		cmp	w1, 42
 450 0584 20260054 		beq	.L226
 451 0588 20781A12 		and	w0, w1, -33
 452 058c F40313AA 		mov	x20, x19
 453 0590 1F300171 		cmp	w0, 76
 454 0594 04008052 		mov	w4, 0
AARCH64 GAS  C:\Users\A01169~1\AppData\Local\Temp\cclmDoLY.s 			page 9


 455 0598 24105A7A 		ccmp	w1, w26, 4, ne
 456 059c 80F2FF54 		beq	.L227
 457              		.p2align 3
 458              	.L90:
 459 05a0 FB0314AA 		mov	x27, x20
 460 05a4 3FB80171 		cmp	w1, 110
 461 05a8 C0220054 		beq	.L125
 462 05ac 29040054 		bls	.L228
 463 05b0 3FCC0171 		cmp	w1, 115
 464 05b4 200C0054 		beq	.L99
 465 05b8 E8010054 		bhi	.L154
 466 05bc 3FBC0171 		cmp	w1, 111
 467 05c0 A0130054 		beq	.L155
 468 05c4 3FC00171 		cmp	w1, 112
 469 05c8 C0F2FF54 		beq	.L102
 470              	.L97:
 471 05cc A0048052 		mov	w0, 37
 472 05d0 A0020039 		strb	w0, [x21]
 473 05d4 60034039 		ldrb	w0, [x27]
 474 05d8 40130034 		cbz	w0, .L133
 475              	.L231:
 476 05dc 73070091 		add	x19, x27, 1
 477 05e0 B50A0091 		add	x21, x21, 2
 478 05e4 A0F21F38 		strb	w0, [x21, -1]
 479              	.L214:
 480 05e8 60074039 		ldrb	w0, [x27, 1]
 481              	.L233:
 482 05ec 60E8FF35 		cbnz	w0, .L151
 483 05f0 48FFFF17 		b	.L134
 484              		.p2align 2
 485              	.L154:
 486 05f4 3FD40171 		cmp	w1, 117
 487 05f8 20060054 		beq	.L176
 488 05fc 3FE00171 		cmp	w1, 120
 489 0600 61FEFF54 		bne	.L97
 490 0604 81031F12 		and	w1, w28, 2
 491 0608 02028052 		mov	w2, 16
 492 060c 9C031B32 		orr	w28, w28, 32
 493 0610 81F4FF35 		cbnz	w1, .L229
 494 0614 1F2003D5 		.p2align 3
 495              	.L144:
 496 0618 B813F837 		tbnz	w24, #31, .L148
 497 061c E00317AA 		mov	x0, x23
 498 0620 E12E0091 		add	x1, x23, 11
 499 0624 37F07D92 		and	x23, x1, -8
 500 0628 010040B9 		ldr	w1, [x0]
 501 062c B2FFFF17 		b	.L139
 502              		.p2align 2
 503              	.L228:
 504 0630 3F8C0171 		cmp	w1, 99
 505 0634 800C0054 		beq	.L93
 506 0638 08010054 		bhi	.L153
 507 063c 3F940071 		cmp	w1, 37
 508 0640 C0050054 		beq	.L95
 509 0644 3F600171 		cmp	w1, 88
 510 0648 05008012 		mov	w5, -1
 511 064c 01FCFF54 		bne	.L97
AARCH64 GAS  C:\Users\A01169~1\AppData\Local\Temp\cclmDoLY.s 			page 10


 512 0650 02028052 		mov	w2, 16
 513 0654 A1FFFF17 		b	.L230
 514              		.p2align 2
 515              	.L153:
 516 0658 3F900171 		cmp	w1, 100
 517 065c A0050054 		beq	.L172
 518 0660 3FA40171 		cmp	w1, 105
 519 0664 05008012 		mov	w5, -1
 520 0668 00F6FF54 		beq	.L98
 521 066c A0048052 		mov	w0, 37
 522 0670 A0020039 		strb	w0, [x21]
 523 0674 60034039 		ldrb	w0, [x27]
 524 0678 400E0034 		cbz	w0, .L133
 525 067c D8FFFF17 		b	.L231
 526              		.p2align 2
 527              	.L165:
 528 0680 42018052 		mov	w2, 10
 529 0684 81FFFF17 		b	.L101
 530              		.p2align 2
 531              	.L164:
 532 0688 02018052 		mov	w2, 8
 533 068c 7FFFFF17 		b	.L101
 534              		.p2align 2
 535              	.L219:
 536 0690 740A0091 		add	x20, x19, 2
 537 0694 3804F837 		tbnz	w24, #31, .L78
 538 0698 E12E0091 		add	x1, x23, 11
 539 069c E00317AA 		mov	x0, x23
 540 06a0 37F07D92 		and	x23, x1, -8
 541              	.L79:
 542 06a4 190040B9 		ldr	w25, [x0]
 543 06a8 610A4039 		ldrb	w1, [x19, 2]
 544 06ac 39E9FF36 		tbz	w25, #31, .L77
 545 06b0 F903194B 		neg	w25, w25
 546 06b4 9C031C32 		orr	w28, w28, 16
 547 06b8 46FFFF17 		b	.L77
 548              		.p2align 2
 549              	.L176:
 550 06bc 05008012 		mov	w5, -1
 551 06c0 42018052 		mov	w2, 10
 552 06c4 BFA00171 		cmp	w5, 104
 553 06c8 81031F12 		and	w1, w28, 2
 554 06cc 81EEFF54 		bne	.L132
 555              	.L224:
 556 06d0 D80BF837 		tbnz	w24, #31, .L140
 557 06d4 E52E0091 		add	x5, x23, 11
 558 06d8 E00317AA 		mov	x0, x23
 559 06dc B7F07D92 		and	x23, x5, -8
 560              	.L141:
 561 06e0 000040B9 		ldr	w0, [x0]
 562 06e4 3F000071 		cmp	w1, 0
 563 06e8 013C4092 		and	x1, x0, 65535
 564 06ec 003C4093 		sxth	x0, w0
 565 06f0 0110819A 		csel	x1, x0, x1, ne
 566 06f4 80FFFF17 		b	.L139
 567              		.p2align 2
 568              	.L95:
AARCH64 GAS  C:\Users\A01169~1\AppData\Local\Temp\cclmDoLY.s 			page 11


 569 06f8 A0048052 		mov	w0, 37
 570 06fc A0160038 		strb	w0, [x21], 1
 571 0700 73070091 		add	x19, x27, 1
 572 0704 60074039 		ldrb	w0, [x27, 1]
 573 0708 80DFFF35 		cbnz	w0, .L151
 574 070c 01FFFF17 		b	.L134
 575              		.p2align 2
 576              	.L172:
 577 0710 05008012 		mov	w5, -1
 578 0714 85FFFF17 		b	.L98
 579              		.p2align 2
 580              	.L78:
 581 0718 01230011 		add	w1, w24, 8
 582 071c 3F000071 		cmp	w1, 0
 583 0720 8D0C0054 		ble	.L80
 584 0724 E22E0091 		add	x2, x23, 11
 585 0728 E00317AA 		mov	x0, x23
 586 072c F803012A 		mov	w24, w1
 587 0730 57F07D92 		and	x23, x2, -8
 588 0734 DCFFFF17 		b	.L79
 589              		.p2align 2
 590              	.L99:
 591 0738 580CF837 		tbnz	w24, #31, .L112
 592 073c E13E0091 		add	x1, x23, 15
 593 0740 E00317AA 		mov	x0, x23
 594 0744 37F07D92 		and	x23, x1, -8
 595              	.L113:
 596 0748 130040F9 		ldr	x19, [x0]
 597 074c 817C4093 		sxtw	x1, w4
 598 0750 E00313AA 		mov	x0, x19
 599 0754 00000094 		bl	strnlen
 600 0758 25070051 		sub	w5, w25, #1
 601 075c E203002A 		mov	w2, w0
 602 0760 3C1A2036 		tbz	x28, 4, .L232
 603              	.L115:
 604 0764 1F000071 		cmp	w0, 0
 605 0768 4D010054 		ble	.L118
 606 076c 010080D2 		mov	x1, 0
 607              		.p2align 3
 608              	.L119:
 609 0770 646A6138 		ldrb	w4, [x19, x1]
 610 0774 A46A2138 		strb	w4, [x21, x1]
 611 0778 21040091 		add	x1, x1, 1
 612 077c 5F00016B 		cmp	w2, w1
 613 0780 8CFFFF54 		bgt	.L119
 614 0784 01040051 		sub	w1, w0, #1
 615 0788 21040091 		add	x1, x1, 1
 616 078c B502018B 		add	x21, x21, x1
 617              	.L118:
 618 0790 3F03006B 		cmp	w25, w0
 619 0794 A100150B 		add	w1, w5, w21
 620 0798 73070091 		add	x19, x27, 1
 621 079c 04048052 		mov	w4, 32
 622 07a0 23008052 		mov	w3, 1
 623 07a4 2DF2FF54 		ble	.L214
 624              		.p2align 3
 625              	.L120:
AARCH64 GAS  C:\Users\A01169~1\AppData\Local\Temp\cclmDoLY.s 			page 12


 626 07a8 A4160038 		strb	w4, [x21], 1
 627 07ac 6000154B 		sub	w0, w3, w21
 628 07b0 2000000B 		add	w0, w1, w0
 629 07b4 5F00006B 		cmp	w2, w0
 630 07b8 8BFFFF54 		blt	.L120
 631 07bc 60074039 		ldrb	w0, [x27, 1]
 632 07c0 8BFFFF17 		b	.L233
 633              		.p2align 2
 634              	.L93:
 635 07c4 20070051 		sub	w0, w25, #1
 636 07c8 5C0B2036 		tbz	x28, 4, .L234
 637 07cc B809F837 		tbnz	w24, #31, .L107
 638              	.L238:
 639 07d0 E22E0091 		add	x2, x23, 11
 640 07d4 E10317AA 		mov	x1, x23
 641 07d8 57F07D92 		and	x23, x2, -8
 642              	.L108:
 643 07dc E40315AA 		mov	x4, x21
 644 07e0 210040B9 		ldr	w1, [x1]
 645 07e4 1F000071 		cmp	w0, 0
 646 07e8 73070091 		add	x19, x27, 1
 647 07ec 81140038 		strb	w1, [x4], 1
 648 07f0 0D1E0054 		ble	.L235
 649 07f4 01040051 		sub	w1, w0, #1
 650 07f8 E00304AA 		mov	x0, x4
 651 07fc E20301AA 		mov	x2, x1
 652 0800 21080091 		add	x1, x1, 2
 653 0804 B502018B 		add	x21, x21, x1
 654 0808 03048052 		mov	w3, 32
 655 080c 1F2003D5 		.p2align 3
 656              	.L111:
 657 0810 03140038 		strb	w3, [x0], 1
 658 0814 1F0015EB 		cmp	x0, x21
 659 0818 C1FFFF54 		bne	.L111
 660 081c 60074039 		ldrb	w0, [x27, 1]
 661 0820 557C4093 		sxtw	x21, w2
 662 0824 B5060091 		add	x21, x21, 1
 663 0828 9500158B 		add	x21, x4, x21
 664 082c 60D6FF35 		cbnz	w0, .L151
 665 0830 B8FEFF17 		b	.L134
 666              		.p2align 2
 667              	.L155:
 668 0834 81031F12 		and	w1, w28, 2
 669 0838 02018052 		mov	w2, 8
 670 083c 18FFFF17 		b	.L132
 671              	.L133:
 672 0840 B5060091 		add	x21, x21, 1
 673 0844 B3FEFF17 		b	.L134
 674              	.L140:
 675 0848 05230011 		add	w5, w24, 8
 676 084c BF000071 		cmp	w5, 0
 677 0850 4D190054 		ble	.L142
 678 0854 E72E0091 		add	x7, x23, 11
 679 0858 E00317AA 		mov	x0, x23
 680 085c F803052A 		mov	w24, w5
 681 0860 F7F07D92 		and	x23, x7, -8
 682 0864 9FFFFF17 		b	.L141
AARCH64 GAS  C:\Users\A01169~1\AppData\Local\Temp\cclmDoLY.s 			page 13


 683              	.L145:
 684 0868 01230011 		add	w1, w24, 8
 685 086c 3F000071 		cmp	w1, 0
 686 0870 6D190054 		ble	.L147
 687 0874 E00317AA 		mov	x0, x23
 688 0878 E52E0091 		add	x5, x23, 11
 689 087c F803012A 		mov	w24, w1
 690 0880 B7F07D92 		and	x23, x5, -8
 691 0884 010080B9 		ldrsw	x1, [x0]
 692 0888 1BFFFF17 		b	.L139
 693              	.L148:
 694 088c 01230011 		add	w1, w24, 8
 695 0890 3F000071 		cmp	w1, 0
 696 0894 AD170054 		ble	.L150
 697 0898 E00317AA 		mov	x0, x23
 698 089c E52E0091 		add	x5, x23, 11
 699 08a0 F803012A 		mov	w24, w1
 700 08a4 B7F07D92 		and	x23, x5, -8
 701 08a8 010040B9 		ldr	w1, [x0]
 702 08ac 12FFFF17 		b	.L139
 703              	.L80:
 704 08b0 E03740F9 		ldr	x0, [sp, 104]
 705 08b4 00C0388B 		add	x0, x0, x24, sxtw
 706 08b8 F803012A 		mov	w24, w1
 707 08bc 7AFFFF17 		b	.L79
 708              	.L112:
 709 08c0 01230011 		add	w1, w24, 8
 710 08c4 3F000071 		cmp	w1, 0
 711 08c8 2D110054 		ble	.L114
 712 08cc E23E0091 		add	x2, x23, 15
 713 08d0 E00317AA 		mov	x0, x23
 714 08d4 F803012A 		mov	w24, w1
 715 08d8 57F07D92 		and	x23, x2, -8
 716 08dc 9BFFFF17 		b	.L113
 717              	.L122:
 718 08e0 01230011 		add	w1, w24, 8
 719 08e4 3F000071 		cmp	w1, 0
 720 08e8 AD0F0054 		ble	.L124
 721 08ec E23E0091 		add	x2, x23, 15
 722 08f0 E00317AA 		mov	x0, x23
 723 08f4 F803012A 		mov	w24, w1
 724 08f8 57F07D92 		and	x23, x2, -8
 725 08fc CFFEFF17 		b	.L123
 726              	.L107:
 727 0900 02230011 		add	w2, w24, 8
 728 0904 5F000071 		cmp	w2, 0
 729 0908 AD0F0054 		ble	.L109
 730 090c E32E0091 		add	x3, x23, 11
 731 0910 E10317AA 		mov	x1, x23
 732 0914 F803022A 		mov	w24, w2
 733 0918 77F07D92 		and	x23, x3, -8
 734 091c B0FFFF17 		b	.L108
 735              	.L222:
 736 0920 9C030032 		orr	w28, w28, 1
 737 0924 19028052 		mov	w25, 16
 738 0928 38D8FF36 		tbz	w24, #31, .L236
 739 092c EDFFFF17 		b	.L122
AARCH64 GAS  C:\Users\A01169~1\AppData\Local\Temp\cclmDoLY.s 			page 14


 740              	.L234:
 741 0930 1F000071 		cmp	w0, 0
 742 0934 4D100054 		ble	.L237
 743 0938 210B0051 		sub	w1, w25, #2
 744 093c E00315AA 		mov	x0, x21
 745 0940 E30301AA 		mov	x3, x1
 746 0944 21040091 		add	x1, x1, 1
 747 0948 A102018B 		add	x1, x21, x1
 748 094c 02048052 		mov	w2, 32
 749              		.p2align 3
 750              	.L106:
 751 0950 02140038 		strb	w2, [x0], 1
 752 0954 1F0001EB 		cmp	x0, x1
 753 0958 C1FFFF54 		bne	.L106
 754 095c 61040091 		add	x1, x3, 1
 755 0960 00008012 		mov	w0, -1
 756 0964 B502018B 		add	x21, x21, x1
 757 0968 58F3FF36 		tbz	w24, #31, .L238
 758 096c E5FFFF17 		b	.L107
 759              		.p2align 2
 760              	.L225:
 761 0970 1B008052 		mov	w27, 0
 762 0974 03000014 		b	.L83
 763              		.p2align 2
 764              	.L85:
 765 0978 73060091 		add	x19, x19, 1
 766 097c 5BC00051 		sub	w27, w2, #48
 767              	.L83:
 768 0980 00000094 		bl	__locale_ctype_ptr
 769 0984 61024039 		ldrb	w1, [x19]
 770 0988 0000218B 		add	x0, x0, x1, uxtb
 771 098c 6207161B 		madd	w2, w27, w22, w1
 772 0990 00044039 		ldrb	w0, [x0, 1]
 773 0994 20FF1737 		tbnz	x0, 2, .L85
 774 0998 7F030071 		cmp	w27, 0
 775 099c F40313AA 		mov	x20, x19
 776 09a0 64A39F1A 		csel	w4, w27, wzr, ge
 777 09a4 8EFEFF17 		b	.L82
 778              		.p2align 2
 779              	.L136:
 780 09a8 01230011 		add	w1, w24, 8
 781 09ac 3F000071 		cmp	w1, 0
 782 09b0 2D060054 		ble	.L138
 783 09b4 E53E0091 		add	x5, x23, 15
 784 09b8 E00317AA 		mov	x0, x23
 785 09bc F803012A 		mov	w24, w1
 786 09c0 B7F07D92 		and	x23, x5, -8
 787 09c4 CBFEFF17 		b	.L137
 788              		.p2align 2
 789              	.L91:
 790 09c8 3FB00171 		cmp	w1, 108
 791 09cc A1010054 		bne	.L125
 792 09d0 F809F837 		tbnz	w24, #31, .L126
 793 09d4 E13E0091 		add	x1, x23, 15
 794 09d8 E00317AA 		mov	x0, x23
 795 09dc 37F07D92 		and	x23, x1, -8
 796              	.L127:
AARCH64 GAS  C:\Users\A01169~1\AppData\Local\Temp\cclmDoLY.s 			page 15


 797 09e0 000040F9 		ldr	x0, [x0]
 798 09e4 930A0091 		add	x19, x20, 2
 799 09e8 E13340F9 		ldr	x1, [sp, 96]
 800 09ec A10201CB 		sub	x1, x21, x1
 801 09f0 010000F9 		str	x1, [x0]
 802 09f4 800A4039 		ldrb	w0, [x20, 2]
 803 09f8 00C8FF35 		cbnz	w0, .L151
 804 09fc 45FEFF17 		b	.L134
 805              		.p2align 2
 806              	.L125:
 807 0a00 3804F837 		tbnz	w24, #31, .L129
 808 0a04 E13E0091 		add	x1, x23, 15
 809 0a08 E00317AA 		mov	x0, x23
 810 0a0c 37F07D92 		and	x23, x1, -8
 811              	.L130:
 812 0a10 010040F9 		ldr	x1, [x0]
 813 0a14 73070091 		add	x19, x27, 1
 814 0a18 E03340F9 		ldr	x0, [sp, 96]
 815 0a1c A00200CB 		sub	x0, x21, x0
 816 0a20 200000B9 		str	w0, [x1]
 817 0a24 60074039 		ldrb	w0, [x27, 1]
 818 0a28 F1FEFF17 		b	.L233
 819              	.L157:
 820 0a2c BF020039 		strb	wzr, [x21]
 821 0a30 00008052 		mov	w0, 0
 822 0a34 F55B41A9 		ldp	x21, x22, [sp, 16]
 823 0a38 F76342A9 		ldp	x23, x24, [sp, 32]
 824 0a3c FE2B40F9 		ldr	x30, [sp, 80]
 825 0a40 F353C7A8 		ldp	x19, x20, [sp], 112
 826 0a44 C0035FD6 		ret
 827              	.L226:
 828 0a48 930A0091 		add	x19, x20, 2
 829 0a4c 7808F837 		tbnz	w24, #31, .L87
 830 0a50 E12E0091 		add	x1, x23, 11
 831 0a54 E00317AA 		mov	x0, x23
 832 0a58 37F07D92 		and	x23, x1, -8
 833              	.L88:
 834 0a5c 1B0040B9 		ldr	w27, [x0]
 835 0a60 810A4039 		ldrb	w1, [x20, 2]
 836 0a64 F40313AA 		mov	x20, x19
 837 0a68 7F030071 		cmp	w27, 0
 838 0a6c 64A39F1A 		csel	w4, w27, wzr, ge
 839 0a70 5BFEFF17 		b	.L82
 840              	.L138:
 841 0a74 E03740F9 		ldr	x0, [sp, 104]
 842 0a78 00C0388B 		add	x0, x0, x24, sxtw
 843 0a7c F803012A 		mov	w24, w1
 844 0a80 9CFEFF17 		b	.L137
 845              	.L129:
 846 0a84 01230011 		add	w1, w24, 8
 847 0a88 3F000071 		cmp	w1, 0
 848 0a8c 0D050054 		ble	.L131
 849 0a90 E23E0091 		add	x2, x23, 15
 850 0a94 E00317AA 		mov	x0, x23
 851 0a98 F803012A 		mov	w24, w1
 852 0a9c 57F07D92 		and	x23, x2, -8
 853 0aa0 DCFFFF17 		b	.L130
AARCH64 GAS  C:\Users\A01169~1\AppData\Local\Temp\cclmDoLY.s 			page 16


 854              	.L232:
 855 0aa4 3F03006B 		cmp	w25, w0
 856 0aa8 0D050054 		ble	.L239
 857 0aac A100004B 		sub	w1, w5, w0
 858 0ab0 04048052 		mov	w4, 32
 859 0ab4 21040091 		add	x1, x1, 1
 860 0ab8 A102018B 		add	x1, x21, x1
 861 0abc 1F2003D5 		.p2align 3
 862              	.L117:
 863 0ac0 A4160038 		strb	w4, [x21], 1
 864 0ac4 BF0201EB 		cmp	x21, x1
 865 0ac8 C1FFFF54 		bne	.L117
 866 0acc 0300194B 		sub	w3, w0, w25
 867 0ad0 7900050B 		add	w25, w3, w5
 868 0ad4 25070051 		sub	w5, w25, #1
 869 0ad8 23FFFF17 		b	.L115
 870              	.L124:
 871 0adc E03740F9 		ldr	x0, [sp, 104]
 872 0ae0 00C0388B 		add	x0, x0, x24, sxtw
 873 0ae4 F803012A 		mov	w24, w1
 874 0ae8 54FEFF17 		b	.L123
 875              	.L114:
 876 0aec E03740F9 		ldr	x0, [sp, 104]
 877 0af0 00C0388B 		add	x0, x0, x24, sxtw
 878 0af4 F803012A 		mov	w24, w1
 879 0af8 14FFFF17 		b	.L113
 880              	.L109:
 881 0afc E13740F9 		ldr	x1, [sp, 104]
 882 0b00 21C0388B 		add	x1, x1, x24, sxtw
 883 0b04 F803022A 		mov	w24, w2
 884 0b08 35FFFF17 		b	.L108
 885              	.L126:
 886 0b0c 01230011 		add	w1, w24, 8
 887 0b10 3F000071 		cmp	w1, 0
 888 0b14 ED050054 		ble	.L128
 889 0b18 E23E0091 		add	x2, x23, 15
 890 0b1c E00317AA 		mov	x0, x23
 891 0b20 F803012A 		mov	w24, w1
 892 0b24 57F07D92 		and	x23, x2, -8
 893 0b28 AEFFFF17 		b	.L127
 894              	.L131:
 895 0b2c E03740F9 		ldr	x0, [sp, 104]
 896 0b30 00C0388B 		add	x0, x0, x24, sxtw
 897 0b34 F803012A 		mov	w24, w1
 898 0b38 B6FFFF17 		b	.L130
 899              	.L237:
 900 0b3c 200B0051 		sub	w0, w25, #2
 901 0b40 98E4FF36 		tbz	w24, #31, .L238
 902 0b44 6FFFFF17 		b	.L107
 903              	.L239:
 904 0b48 210B0051 		sub	w1, w25, #2
 905 0b4c F903052A 		mov	w25, w5
 906 0b50 E503012A 		mov	w5, w1
 907 0b54 04FFFF17 		b	.L115
 908              	.L87:
 909 0b58 01230011 		add	w1, w24, 8
 910 0b5c 3F000071 		cmp	w1, 0
AARCH64 GAS  C:\Users\A01169~1\AppData\Local\Temp\cclmDoLY.s 			page 17


 911 0b60 0D030054 		ble	.L89
 912 0b64 E22E0091 		add	x2, x23, 11
 913 0b68 E00317AA 		mov	x0, x23
 914 0b6c F803012A 		mov	w24, w1
 915 0b70 57F07D92 		and	x23, x2, -8
 916 0b74 BAFFFF17 		b	.L88
 917              	.L142:
 918 0b78 E03740F9 		ldr	x0, [sp, 104]
 919 0b7c 00C0388B 		add	x0, x0, x24, sxtw
 920 0b80 F803052A 		mov	w24, w5
 921 0b84 D7FEFF17 		b	.L141
 922              	.L150:
 923 0b88 E03740F9 		ldr	x0, [sp, 104]
 924 0b8c 00C0388B 		add	x0, x0, x24, sxtw
 925 0b90 F803012A 		mov	w24, w1
 926 0b94 010040B9 		ldr	w1, [x0]
 927 0b98 57FEFF17 		b	.L139
 928              	.L147:
 929 0b9c E03740F9 		ldr	x0, [sp, 104]
 930 0ba0 00C0388B 		add	x0, x0, x24, sxtw
 931 0ba4 F803012A 		mov	w24, w1
 932 0ba8 010080B9 		ldrsw	x1, [x0]
 933 0bac 52FEFF17 		b	.L139
 934              	.L235:
 935 0bb0 60074039 		ldrb	w0, [x27, 1]
 936 0bb4 F50304AA 		mov	x21, x4
 937 0bb8 00BAFF35 		cbnz	w0, .L151
 938 0bbc D5FDFF17 		b	.L134
 939              	.L89:
 940 0bc0 E03740F9 		ldr	x0, [sp, 104]
 941 0bc4 00C0388B 		add	x0, x0, x24, sxtw
 942 0bc8 F803012A 		mov	w24, w1
 943 0bcc A4FFFF17 		b	.L88
 944              	.L128:
 945 0bd0 E03740F9 		ldr	x0, [sp, 104]
 946 0bd4 00C0388B 		add	x0, x0, x24, sxtw
 947 0bd8 F803012A 		mov	w24, w1
 948 0bdc 81FFFF17 		b	.L127
 949              		.size	vsprintf, .-vsprintf
 950              		.align	2
 951              		.p2align 4,,15
 952              		.global	sprintf
 953              		.type	sprintf, %function
 954              	sprintf:
 955 0be0 FF0304D1 		sub	sp, sp, #256
 956 0be4 E9058012 		mov	w9, -48
 957 0be8 EA430391 		add	x10, sp, 208
 958 0bec EB030491 		add	x11, sp, 256
 959 0bf0 E80F8012 		mov	w8, -128
 960 0bf4 EB2F03A9 		stp	x11, x11, [sp, 48]
 961 0bf8 EA2300F9 		str	x10, [sp, 64]
 962 0bfc E9230929 		stp	w9, w8, [sp, 72]
 963 0c00 EA2F43A9 		ldp	x10, x11, [sp, 48]
 964 0c04 FE0300F9 		str	x30, [sp]
 965 0c08 E82744A9 		ldp	x8, x9, [sp, 64]
 966 0c0c EA2F01A9 		stp	x10, x11, [sp, 16]
 967 0c10 E82702A9 		stp	x8, x9, [sp, 32]
AARCH64 GAS  C:\Users\A01169~1\AppData\Local\Temp\cclmDoLY.s 			page 18


 968 0c14 E017803D 		str	q0, [sp, 80]
 969 0c18 E11B803D 		str	q1, [sp, 96]
 970 0c1c E21F803D 		str	q2, [sp, 112]
 971 0c20 E323803D 		str	q3, [sp, 128]
 972 0c24 E427803D 		str	q4, [sp, 144]
 973 0c28 E52B803D 		str	q5, [sp, 160]
 974 0c2c E62F803D 		str	q6, [sp, 176]
 975 0c30 E733803D 		str	q7, [sp, 192]
 976 0c34 E20F0DA9 		stp	x2, x3, [sp, 208]
 977 0c38 E2430091 		add	x2, sp, 16
 978 0c3c E4170EA9 		stp	x4, x5, [sp, 224]
 979 0c40 E61F0FA9 		stp	x6, x7, [sp, 240]
 980 0c44 00000094 		bl	vsprintf
 981 0c48 FE0340F9 		ldr	x30, [sp]
 982 0c4c FF030491 		add	sp, sp, 256
 983 0c50 C0035FD6 		ret
 984              		.size	sprintf, .-sprintf
 985              		.align	2
 986 0c54 1F2003D5 		.p2align 4,,15
 986      1F2003D5 
 986      1F2003D5 
 987              		.global	printf
 988              		.type	printf, %function
 989              	printf:
 990 0c60 FF830CD1 		sub	sp, sp, #800
 991 0c64 E9068012 		mov	w9, -56
 992 0c68 EB830C91 		add	x11, sp, 800
 993 0c6c EA830B91 		add	x10, sp, 736
 994 0c70 E80F8012 		mov	w8, -128
 995 0c74 EB2F04A9 		stp	x11, x11, [sp, 64]
 996 0c78 EA2B00F9 		str	x10, [sp, 80]
 997 0c7c E9230B29 		stp	w9, w8, [sp, 88]
 998 0c80 E82744A9 		ldp	x8, x9, [sp, 64]
 999 0c84 E82702A9 		stp	x8, x9, [sp, 32]
 1000 0c88 E82745A9 		ldp	x8, x9, [sp, 80]
 1001 0c8c E82703A9 		stp	x8, x9, [sp, 48]
 1002 0c90 E8030891 		add	x8, sp, 512
 1003 0c94 F35300A9 		stp	x19, x20, [sp]
 1004 0c98 F57B01A9 		stp	x21, x30, [sp, 16]
 1005 0c9c 0019803D 		str	q0, [x8, 96]
 1006 0ca0 011D803D 		str	q1, [x8, 112]
 1007 0ca4 0221803D 		str	q2, [x8, 128]
 1008 0ca8 0325803D 		str	q3, [x8, 144]
 1009 0cac 0429803D 		str	q4, [x8, 160]
 1010 0cb0 052D803D 		str	q5, [x8, 176]
 1011 0cb4 0631803D 		str	q6, [x8, 192]
 1012 0cb8 0735803D 		str	q7, [x8, 208]
 1013 0cbc E8030891 		add	x8, sp, 512
 1014 0cc0 01890EA9 		stp	x1, x2, [x8, 232]
 1015 0cc4 E10300AA 		mov	x1, x0
 1016 0cc8 E2830091 		add	x2, sp, 32
 1017 0ccc 03910FA9 		stp	x3, x4, [x8, 248]
 1018 0cd0 E0830191 		add	x0, sp, 96
 1019 0cd4 E58701F9 		str	x5, [sp, 776]
 1020 0cd8 E68B01F9 		str	x6, [sp, 784]
 1021 0cdc E78F01F9 		str	x7, [sp, 792]
 1022 0ce0 00000094 		bl	vsprintf
AARCH64 GAS  C:\Users\A01169~1\AppData\Local\Temp\cclmDoLY.s 			page 19


 1023 0ce4 F503002A 		mov	w21, w0
 1024 0ce8 1F000071 		cmp	w0, 0
 1025 0cec 2D010054 		ble	.L242
 1026 0cf0 F3830191 		add	x19, sp, 96
 1027 0cf4 14040051 		sub	w20, w0, #1
 1028 0cf8 60060091 		add	x0, x19, 1
 1029 0cfc 1400148B 		add	x20, x0, x20
 1030              		.p2align 3
 1031              	.L244:
 1032 0d00 60164038 		ldrb	w0, [x19], 1
 1033 0d04 00000094 		bl	Embedded_Console_WriteChar
 1034 0d08 7F0214EB 		cmp	x19, x20
 1035 0d0c A1FFFF54 		bne	.L244
 1036              	.L242:
 1037 0d10 E003152A 		mov	w0, w21
 1038 0d14 F35340A9 		ldp	x19, x20, [sp]
 1039 0d18 F57B41A9 		ldp	x21, x30, [sp, 16]
 1040 0d1c FF830C91 		add	sp, sp, 800
 1041 0d20 C0035FD6 		ret
 1042              		.size	printf, .-printf
 1043              		.section	.rodata
 1044              		.align	3
 1045              		.set	.LANCHOR0,. + 0
 1046              		.type	digits.3946, %object
 1047              		.size	digits.3946, 16
 1048              	digits.3946:
 1049 0000 30313233 		.ascii	"0123456789ABCDEF"
 1049      34353637 
 1049      38394142 
 1049      43444546 
 1050              		.ident	"GCC: (GNU Toolchain for the A-profile Architecture 8.2-2019.01 (arm-rel-8.28)) 8.2.1 20180
AARCH64 GAS  C:\Users\A01169~1\AppData\Local\Temp\cclmDoLY.s 			page 20


DEFINED SYMBOLS
                            *ABS*:0000000000000000 emb-stdio.c
C:\Users\A01169~1\AppData\Local\Temp\cclmDoLY.s:4      .text:0000000000000000 $x
C:\Users\A01169~1\AppData\Local\Temp\cclmDoLY.s:7      .text:0000000000000000 number
C:\Users\A01169~1\AppData\Local\Temp\cclmDoLY.s:225    .text:00000000000002b0 vsprintf
C:\Users\A01169~1\AppData\Local\Temp\cclmDoLY.s:954    .text:0000000000000be0 sprintf
C:\Users\A01169~1\AppData\Local\Temp\cclmDoLY.s:989    .text:0000000000000c60 printf
C:\Users\A01169~1\AppData\Local\Temp\cclmDoLY.s:1044   .rodata:0000000000000000 $d
C:\Users\A01169~1\AppData\Local\Temp\cclmDoLY.s:1048   .rodata:0000000000000000 digits.3946

UNDEFINED SYMBOLS
__locale_ctype_ptr
strnlen
Embedded_Console_WriteChar
AARCH64 GAS  C:\Users\A01169~1\AppData\Local\Temp\cclmDoLY.s 			page 1


   1              		.arch armv8-a
   2              		.file	"SDCard.c"
   3              		.text
   4              		.align	2
   5              		.p2align 4,,15
   6              		.type	sdWaitForData, %function
   7              	sdWaitForData:
   8 0000 F353BCA9 		stp	x19, x20, [sp, -64]!
   9 0004 13000090 		adrp	x19, RPi_IO_Base_Addr
  10 0008 73020091 		add	x19, x19, :lo12:RPi_IO_Base_Addr
  11 000c F4870C32 		mov	w20, 3145776
  12 0010 F55B01A9 		stp	x21, x22, [sp, 16]
  13 0014 95048052 		mov	w21, 36
  14 0018 1506A072 		movk	w21, 0x30, lsl 16
  15 001c 16009052 		mov	w22, 32768
  16 0020 D62FA072 		movk	w22, 0x17e, lsl 16
  17 0024 F76302A9 		stp	x23, x24, [sp, 32]
  18 0028 F72394D2 		mov	x23, 41247
  19 002c F700A0F2 		movk	x23, 0x7, lsl 16
  20 0030 180080D2 		mov	x24, 0
  21 0034 F97B03A9 		stp	x25, x30, [sp, 48]
  22 0038 190080D2 		mov	x25, 0
  23 003c 1F2003D5 		.p2align 3
  24              	.L2:
  25 0040 600240B9 		ldr	w0, [x19]
  26 0044 0100150B 		add	w1, w0, w21
  27 0048 0300140B 		add	w3, w0, w20
  28 004c 220040B9 		ldr	w2, [x1]
  29 0050 C2010836 		tbz	x2, 1, .L5
  30              	.L16:
  31 0054 620040B9 		ldr	w2, [x3]
  32 0058 5F00166A 		tst	w2, w22
  33 005c 61010054 		bne	.L5
  34 0060 3F0317EB 		cmp	x25, x23
  35 0064 08040054 		bhi	.L9
  36 0068 380300B5 		cbnz	x24, .L3
  37 006c 00000094 		bl	timer_getTickCount
  38 0070 F80300AA 		mov	x24, x0
  39 0074 600240B9 		ldr	w0, [x19]
  40 0078 0100150B 		add	w1, w0, w21
  41 007c 0300140B 		add	w3, w0, w20
  42 0080 220040B9 		ldr	w2, [x1]
  43 0084 82FE0F37 		tbnz	x2, 1, .L16
  44              	.L5:
  45 0088 E22394D2 		mov	x2, 41247
  46 008c E200A0F2 		movk	x2, 0x7, lsl 16
  47 0090 3F0302EB 		cmp	x25, x2
  48 0094 88020054 		bhi	.L9
  49 0098 E3870C32 		mov	w3, 3145776
  50 009c 0200030B 		add	w2, w0, w3
  51 00a0 03009052 		mov	w3, 32768
  52 00a4 C32FA072 		movk	w3, 0x17e, lsl 16
  53 00a8 420040B9 		ldr	w2, [x2]
  54 00ac 5F00036A 		tst	w2, w3
  55 00b0 A1010054 		bne	.L9
  56 00b4 00008052 		mov	w0, 0
  57 00b8 F55B41A9 		ldp	x21, x22, [sp, 16]
AARCH64 GAS  C:\Users\A01169~1\AppData\Local\Temp\cclmDoLY.s 			page 2


  58 00bc F76342A9 		ldp	x23, x24, [sp, 32]
  59 00c0 F97B43A9 		ldp	x25, x30, [sp, 48]
  60 00c4 F353C4A8 		ldp	x19, x20, [sp], 64
  61 00c8 C0035FD6 		ret
  62              		.p2align 2
  63              	.L3:
  64 00cc 00000094 		bl	timer_getTickCount
  65 00d0 E10300AA 		mov	x1, x0
  66 00d4 E00318AA 		mov	x0, x24
  67 00d8 00000094 		bl	tick_difference
  68 00dc F90300AA 		mov	x25, x0
  69 00e0 D8FFFF17 		b	.L2
  70              		.p2align 2
  71              	.L9:
  72 00e4 02000090 		adrp	x2, .LANCHOR0
  73 00e8 440040F9 		ldr	x4, [x2, #:lo12:.LANCHOR0]
  74 00ec 640100B4 		cbz	x4, .L14
  75 00f0 03004C11 		add	w3, w0, 3145728
  76 00f4 E2870C32 		mov	w2, 3145776
  77 00f8 63400011 		add	w3, w3, 16
  78 00fc 0200020B 		add	w2, w0, w2
  79 0100 210040B9 		ldr	w1, [x1]
  80 0104 00000090 		adrp	x0, .LC0
  81 0108 00000091 		add	x0, x0, :lo12:.LC0
  82 010c 420040B9 		ldr	w2, [x2]
  83 0110 630040B9 		ldr	w3, [x3]
  84 0114 80003FD6 		blr	x4
  85              	.L14:
  86 0118 60008052 		mov	w0, 3
  87 011c F55B41A9 		ldp	x21, x22, [sp, 16]
  88 0120 F76342A9 		ldp	x23, x24, [sp, 32]
  89 0124 F97B43A9 		ldp	x25, x30, [sp, 48]
  90 0128 F353C4A8 		ldp	x19, x20, [sp], 64
  91 012c C0035FD6 		ret
  92              		.size	sdWaitForData, .-sdWaitForData
  93              		.align	2
  94              		.p2align 4,,15
  95              		.type	sdWaitForInterrupt, %function
  96              	sdWaitForInterrupt:
  97 0130 F353BBA9 		stp	x19, x20, [sp, -80]!
  98 0134 14009052 		mov	w20, 32768
  99 0138 D42FA072 		movk	w20, 0x17e, lsl 16
 100 013c 1400142A 		orr	w20, w0, w20
 101 0140 F55B01A9 		stp	x21, x22, [sp, 16]
 102 0144 130080D2 		mov	x19, 0
 103 0148 F76302A9 		stp	x23, x24, [sp, 32]
 104 014c 18000090 		adrp	x24, RPi_IO_Base_Addr
 105 0150 16030091 		add	x22, x24, :lo12:RPi_IO_Base_Addr
 106 0154 F703002A 		mov	w23, w0
 107 0158 F5870C32 		mov	w21, 3145776
 108 015c F96B03A9 		stp	x25, x26, [sp, 48]
 109 0160 F94788D2 		mov	x25, 16959
 110 0164 F901A0F2 		movk	x25, 0xf, lsl 16
 111 0168 1A0080D2 		mov	x26, 0
 112 016c FE2300F9 		str	x30, [sp, 64]
 113              		.p2align 3
 114              	.L18:
AARCH64 GAS  C:\Users\A01169~1\AppData\Local\Temp\cclmDoLY.s 			page 3


 115 0170 C00240B9 		ldr	w0, [x22]
 116 0174 0100150B 		add	w1, w0, w21
 117 0178 220040B9 		ldr	w2, [x1]
 118 017c 5F00146A 		tst	w2, w20
 119 0180 61010054 		bne	.L21
 120              	.L39:
 121 0184 5F0319EB 		cmp	x26, x25
 122 0188 48070054 		bhi	.L38
 123 018c 930300B5 		cbnz	x19, .L19
 124 0190 00000094 		bl	timer_getTickCount
 125 0194 F30300AA 		mov	x19, x0
 126 0198 C00240B9 		ldr	w0, [x22]
 127 019c 0100150B 		add	w1, w0, w21
 128 01a0 220040B9 		ldr	w2, [x1]
 129 01a4 5F00146A 		tst	w2, w20
 130 01a8 E0FEFF54 		beq	.L39
 131              	.L21:
 132 01ac 330040B9 		ldr	w19, [x1]
 133 01b0 E24788D2 		mov	x2, 16959
 134 01b4 E201A0F2 		movk	x2, 0xf, lsl 16
 135 01b8 5F0302EB 		cmp	x26, x2
 136 01bc C8050054 		bhi	.L24
 137 01c0 2202A052 		mov	w2, 1114112
 138 01c4 7F02026A 		tst	w19, w2
 139 01c8 61050054 		bne	.L24
 140 01cc 02009052 		mov	w2, 32768
 141 01d0 C22FA072 		movk	w2, 0x17e, lsl 16
 142 01d4 7F02026A 		tst	w19, w2
 143 01d8 E1010054 		bne	.L40
 144 01dc 370000B9 		str	w23, [x1]
 145 01e0 00008052 		mov	w0, 0
 146 01e4 F55B41A9 		ldp	x21, x22, [sp, 16]
 147 01e8 F76342A9 		ldp	x23, x24, [sp, 32]
 148 01ec F96B43A9 		ldp	x25, x26, [sp, 48]
 149 01f0 FE2340F9 		ldr	x30, [sp, 64]
 150 01f4 F353C5A8 		ldp	x19, x20, [sp], 80
 151 01f8 C0035FD6 		ret
 152              		.p2align 2
 153              	.L19:
 154 01fc 00000094 		bl	timer_getTickCount
 155 0200 E10300AA 		mov	x1, x0
 156 0204 E00313AA 		mov	x0, x19
 157 0208 00000094 		bl	tick_difference
 158 020c FA0300AA 		mov	x26, x0
 159 0210 D8FFFF17 		b	.L18
 160              		.p2align 2
 161              	.L40:
 162 0214 02000090 		adrp	x2, .LANCHOR0
 163 0218 440040F9 		ldr	x4, [x2, #:lo12:.LANCHOR0]
 164 021c A40100B4 		cbz	x4, .L29
 165 0220 01004C11 		add	w1, w0, 3145728
 166 0224 03004C11 		add	w3, w0, 3145728
 167 0228 21900011 		add	w1, w1, 36
 168 022c 63400011 		add	w3, w3, 16
 169 0230 00000090 		adrp	x0, .LC2
 170 0234 E203132A 		mov	w2, w19
 171 0238 00000091 		add	x0, x0, :lo12:.LC2
AARCH64 GAS  C:\Users\A01169~1\AppData\Local\Temp\cclmDoLY.s 			page 4


 172 023c 210040B9 		ldr	w1, [x1]
 173 0240 630040B9 		ldr	w3, [x3]
 174 0244 80003FD6 		blr	x4
 175 0248 C10240B9 		ldr	w1, [x22]
 176 024c 2100150B 		add	w1, w1, w21
 177              	.L29:
 178 0250 330000B9 		str	w19, [x1]
 179 0254 20008052 		mov	w0, 1
 180 0258 F55B41A9 		ldp	x21, x22, [sp, 16]
 181 025c F76342A9 		ldp	x23, x24, [sp, 32]
 182 0260 F96B43A9 		ldp	x25, x26, [sp, 48]
 183 0264 FE2340F9 		ldr	x30, [sp, 64]
 184 0268 F353C5A8 		ldp	x19, x20, [sp], 80
 185 026c C0035FD6 		ret
 186              		.p2align 2
 187              	.L38:
 188 0270 330040B9 		ldr	w19, [x1]
 189              	.L24:
 190 0274 02000090 		adrp	x2, .LANCHOR0
 191 0278 450040F9 		ldr	x5, [x2, #:lo12:.LANCHOR0]
 192 027c E50100B4 		cbz	x5, .L26
 193 0280 02004C11 		add	w2, w0, 3145728
 194 0284 04004C11 		add	w4, w0, 3145728
 195 0288 42900011 		add	w2, w2, 36
 196 028c 84400011 		add	w4, w4, 16
 197 0290 E103172A 		mov	w1, w23
 198 0294 00000090 		adrp	x0, .LC1
 199 0298 E303132A 		mov	w3, w19
 200 029c 00000091 		add	x0, x0, :lo12:.LC1
 201 02a0 420040B9 		ldr	w2, [x2]
 202 02a4 840040B9 		ldr	w4, [x4]
 203 02a8 A0003FD6 		blr	x5
 204 02ac 010340B9 		ldr	w1, [x24, #:lo12:RPi_IO_Base_Addr]
 205 02b0 E0870C32 		mov	w0, 3145776
 206 02b4 2100000B 		add	w1, w1, w0
 207              	.L26:
 208 02b8 330000B9 		str	w19, [x1]
 209 02bc 40008052 		mov	w0, 2
 210 02c0 F55B41A9 		ldp	x21, x22, [sp, 16]
 211 02c4 F76342A9 		ldp	x23, x24, [sp, 32]
 212 02c8 F96B43A9 		ldp	x25, x26, [sp, 48]
 213 02cc FE2340F9 		ldr	x30, [sp, 64]
 214 02d0 F353C5A8 		ldp	x19, x20, [sp], 80
 215 02d4 C0035FD6 		ret
 216              		.size	sdWaitForInterrupt, .-sdWaitForInterrupt
 217              		.align	2
 218 02d8 1F2003D5 		.p2align 4,,15
 218      1F2003D5 
 219              		.type	sdSetClock, %function
 220              	sdSetClock:
 221 02e0 F353BCA9 		stp	x19, x20, [sp, -64]!
 222 02e4 130080D2 		mov	x19, 0
 223 02e8 F76302A9 		stp	x23, x24, [sp, 32]
 224 02ec 17000090 		adrp	x23, RPi_IO_Base_Addr
 225 02f0 F4020091 		add	x20, x23, :lo12:RPi_IO_Base_Addr
 226 02f4 F803002A 		mov	w24, w0
 227 02f8 F55B01A9 		stp	x21, x22, [sp, 16]
AARCH64 GAS  C:\Users\A01169~1\AppData\Local\Temp\cclmDoLY.s 			page 5


 228 02fc 96048052 		mov	w22, 36
 229 0300 1606A072 		movk	w22, 0x30, lsl 16
 230 0304 150080D2 		mov	x21, 0
 231 0308 F97B03A9 		stp	x25, x30, [sp, 48]
 232 030c F9D390D2 		mov	x25, 34463
 233 0310 3900A0F2 		movk	x25, 0x1, lsl 16
 234 0314 1F2003D5 		.p2align 3
 235              	.L42:
 236 0318 810240B9 		ldr	w1, [x20]
 237 031c 2000160B 		add	w0, w1, w22
 238 0320 020040B9 		ldr	w2, [x0]
 239 0324 62000037 		tbnz	x2, 0, .L45
 240              	.L76:
 241 0328 020040B9 		ldr	w2, [x0]
 242 032c E2030836 		tbz	x2, 1, .L46
 243              	.L45:
 244 0330 BF0219EB 		cmp	x21, x25
 245 0334 48010054 		bhi	.L64
 246              	.L47:
 247 0338 D30200B5 		cbnz	x19, .L43
 248 033c 00000094 		bl	timer_getTickCount
 249 0340 F30300AA 		mov	x19, x0
 250 0344 810240B9 		ldr	w1, [x20]
 251 0348 2000160B 		add	w0, w1, w22
 252 034c 020040B9 		ldr	w2, [x0]
 253 0350 C2FE0736 		tbz	x2, 0, .L76
 254 0354 BF0219EB 		cmp	x21, x25
 255 0358 09FFFF54 		bls	.L47
 256              	.L64:
 257 035c 01000090 		adrp	x1, .LANCHOR0
 258 0360 220040F9 		ldr	x2, [x1, #:lo12:.LANCHOR0]
 259 0364 A20000B4 		cbz	x2, .L74
 260 0368 010040B9 		ldr	w1, [x0]
 261 036c 00000090 		adrp	x0, .LC3
 262 0370 00000091 		add	x0, x0, :lo12:.LC3
 263 0374 40003FD6 		blr	x2
 264              	.L74:
 265 0378 E0008052 		mov	w0, 7
 266              	.L41:
 267 037c F55B41A9 		ldp	x21, x22, [sp, 16]
 268 0380 F76342A9 		ldp	x23, x24, [sp, 32]
 269 0384 F97B43A9 		ldp	x25, x30, [sp, 48]
 270 0388 F353C4A8 		ldp	x19, x20, [sp], 64
 271 038c C0035FD6 		ret
 272              		.p2align 2
 273              	.L43:
 274 0390 00000094 		bl	timer_getTickCount
 275 0394 E10300AA 		mov	x1, x0
 276 0398 E00313AA 		mov	x0, x19
 277 039c 00000094 		bl	tick_difference
 278 03a0 F50300AA 		mov	x21, x0
 279 03a4 DDFFFF17 		b	.L42
 280              		.p2align 2
 281              	.L46:
 282 03a8 E2D390D2 		mov	x2, 34463
 283 03ac 2200A0F2 		movk	x2, 0x1, lsl 16
 284 03b0 BF0202EB 		cmp	x21, x2
AARCH64 GAS  C:\Users\A01169~1\AppData\Local\Temp\cclmDoLY.s 			page 6


 285 03b4 48FDFF54 		bhi	.L64
 286 03b8 21004C11 		add	w1, w1, 3145728
 287 03bc 400180D2 		mov	x0, 10
 288 03c0 21B00011 		add	w1, w1, 44
 289 03c4 220040B9 		ldr	w2, [x1]
 290 03c8 42781D12 		and	w2, w2, -5
 291 03cc 220000B9 		str	w2, [x1]
 292 03d0 00000094 		bl	timer_wait
 293 03d4 830240B9 		ldr	w3, [x20]
 294 03d8 400D9952 		mov	w0, 51306
 295 03dc 604FA072 		movk	w0, 0x27b, lsl 16
 296 03e0 0003000B 		add	w0, w24, w0
 297 03e4 61004C11 		add	w1, w3, 3145728
 298 03e8 21F00311 		add	w1, w1, 252
 299 03ec 1808D81A 		udiv	w24, w0, w24
 300 03f0 200040B9 		ldr	w0, [x1]
 301 03f4 005C50D3 		ubfx	x0, x0, 16, 8
 302 03f8 1F040071 		cmp	w0, 1
 303 03fc 29070054 		bls	.L77
 304 0400 1F0B0071 		cmp	w24, 2
 305 0404 185F1853 		lsl	w24, w24, 8
 306 0408 01808052 		mov	w1, 1024
 307 040c 0183811A 		csel	w1, w24, w1, hi
 308              	.L52:
 309 0410 99058052 		mov	w25, 44
 310 0414 1906A072 		movk	w25, 0x30, lsl 16
 311 0418 6300190B 		add	w3, w3, w25
 312 041c 400180D2 		mov	x0, 10
 313 0420 F603192A 		mov	w22, w25
 314 0424 F8D390D2 		mov	x24, 34463
 315 0428 3800A0F2 		movk	x24, 0x1, lsl 16
 316 042c 130080D2 		mov	x19, 0
 317 0430 620040B9 		ldr	w2, [x3]
 318 0434 150080D2 		mov	x21, 0
 319 0438 42501012 		and	w2, w2, -65505
 320 043c 4100012A 		orr	w1, w2, w1
 321 0440 610000B9 		str	w1, [x3]
 322 0444 00000094 		bl	timer_wait
 323 0448 E00240B9 		ldr	w0, [x23, #:lo12:RPi_IO_Base_Addr]
 324 044c 0000190B 		add	w0, w0, w25
 325 0450 010040B9 		ldr	w1, [x0]
 326 0454 21001E32 		orr	w1, w1, 4
 327 0458 010000B9 		str	w1, [x0]
 328 045c 1F2003D5 		.p2align 3
 329              	.L53:
 330 0460 800240B9 		ldr	w0, [x20]
 331 0464 0000160B 		add	w0, w0, w22
 332 0468 000040B9 		ldr	w0, [x0]
 333 046c 40010837 		tbnz	x0, 1, .L56
 334              	.L78:
 335 0470 BF0218EB 		cmp	x21, x24
 336 0474 A8010054 		bhi	.L58
 337 0478 930200B5 		cbnz	x19, .L54
 338 047c 00000094 		bl	timer_getTickCount
 339 0480 F30300AA 		mov	x19, x0
 340 0484 800240B9 		ldr	w0, [x20]
 341 0488 0000160B 		add	w0, w0, w22
AARCH64 GAS  C:\Users\A01169~1\AppData\Local\Temp\cclmDoLY.s 			page 7


 342 048c 000040B9 		ldr	w0, [x0]
 343 0490 00FF0F36 		tbz	x0, 1, .L78
 344              	.L56:
 345 0494 E1D390D2 		mov	x1, 34463
 346 0498 2100A0F2 		movk	x1, 0x1, lsl 16
 347 049c 00008052 		mov	w0, 0
 348 04a0 BF0201EB 		cmp	x21, x1
 349 04a4 C9F6FF54 		bls	.L41
 350              		.p2align 3
 351              	.L58:
 352 04a8 00000090 		adrp	x0, .LANCHOR0
 353 04ac 010040F9 		ldr	x1, [x0, #:lo12:.LANCHOR0]
 354 04b0 41F6FFB4 		cbz	x1, .L74
 355 04b4 00000090 		adrp	x0, .LC4
 356 04b8 00000091 		add	x0, x0, :lo12:.LC4
 357 04bc 20003FD6 		blr	x1
 358 04c0 E0008052 		mov	w0, 7
 359 04c4 AEFFFF17 		b	.L41
 360              		.p2align 2
 361              	.L54:
 362 04c8 00000094 		bl	timer_getTickCount
 363 04cc E10300AA 		mov	x1, x0
 364 04d0 E00313AA 		mov	x0, x19
 365 04d4 00000094 		bl	tick_difference
 366 04d8 F50300AA 		mov	x21, x0
 367 04dc E1FFFF17 		b	.L53
 368              		.p2align 2
 369              	.L77:
 370 04e0 001F0853 		lsl	w0, w24, 24
 371 04e4 1F0C0472 		tst	w0, -268435456
 372 04e8 80010054 		beq	.L60
 373 04ec A1008052 		mov	w1, 5
 374 04f0 E2008052 		mov	w2, 7
 375              	.L61:
 376 04f4 1F040272 		tst	w0, -1073741824
 377 04f8 61000054 		bne	.L50
 378 04fc 00741E53 		lsl	w0, w0, 2
 379 0500 E203012A 		mov	w2, w1
 380              	.L50:
 381 0504 E003202A 		mvn	w0, w0
 382 0508 01208052 		mov	w1, 256
 383 050c 427C404B 		sub	w2, w2, w0, lsr 31
 384 0510 2120C21A 		lsl	w1, w1, w2
 385 0514 BFFFFF17 		b	.L52
 386              	.L60:
 387 0518 000F0453 		lsl	w0, w24, 28
 388 051c 21008052 		mov	w1, 1
 389 0520 62008052 		mov	w2, 3
 390 0524 F4FFFF17 		b	.L61
 391              		.size	sdSetClock, .-sdSetClock
 392              		.align	2
 393 0528 1F2003D5 		.p2align 4,,15
 393      1F2003D5 
 394              		.type	SetFindDataFromFATEntry.part.0, %function
 395              	SetFindDataFromFATEntry.part.0:
 396 0530 022C4039 		ldrb	w2, [x0, 11]
 397 0534 226C00B9 		str	w2, [x1, 108]
AARCH64 GAS  C:\Users\A01169~1\AppData\Local\Temp\cclmDoLY.s 			page 8


 398 0538 03604039 		ldrb	w3, [x0, 24]
 399 053c 02644039 		ldrb	w2, [x0, 25]
 400 0540 6220022A 		orr	w2, w3, w2, lsl 8
 401 0544 43100012 		and	w3, w2, 31
 402 0548 230C00B9 		str	w3, [x1, 12]
 403 054c 437C0953 		lsr	w3, w2, 9
 404 0550 422045D3 		ubfx	x2, x2, 5, 4
 405 0554 63400111 		add	w3, w3, 80
 406 0558 42040051 		sub	w2, w2, #1
 407 055c 220C0229 		stp	w2, w3, [x1, 16]
 408 0560 03584039 		ldrb	w3, [x0, 22]
 409 0564 025C4039 		ldrb	w2, [x0, 23]
 410 0568 6220022A 		orr	w2, w3, w2, lsl 8
 411 056c 437C0B53 		lsr	w3, w2, 11
 412 0570 442845D3 		ubfx	x4, x2, 5, 6
 413 0574 42101F53 		ubfiz	w2, w2, 1, 5
 414 0578 22100029 		stp	w2, w4, [x1]
 415 057c 230800B9 		str	w3, [x1, 8]
 416 0580 03484039 		ldrb	w3, [x0, 18]
 417 0584 024C4039 		ldrb	w2, [x0, 19]
 418 0588 6220022A 		orr	w2, w3, w2, lsl 8
 419 058c 43100012 		and	w3, w2, 31
 420 0590 233000B9 		str	w3, [x1, 48]
 421 0594 437C0953 		lsr	w3, w2, 9
 422 0598 422045D3 		ubfx	x2, x2, 5, 4
 423 059c 63400111 		add	w3, w3, 80
 424 05a0 42040051 		sub	w2, w2, #1
 425 05a4 228C0629 		stp	w2, w3, [x1, 52]
 426 05a8 03404039 		ldrb	w3, [x0, 16]
 427 05ac 02444039 		ldrb	w2, [x0, 17]
 428 05b0 6220022A 		orr	w2, w3, w2, lsl 8
 429 05b4 43100012 		and	w3, w2, 31
 430 05b8 235400B9 		str	w3, [x1, 84]
 431 05bc 437C0953 		lsr	w3, w2, 9
 432 05c0 422045D3 		ubfx	x2, x2, 5, 4
 433 05c4 63400111 		add	w3, w3, 80
 434 05c8 42040051 		sub	w2, w2, #1
 435 05cc 220C0B29 		stp	w2, w3, [x1, 88]
 436 05d0 03384039 		ldrb	w3, [x0, 14]
 437 05d4 023C4039 		ldrb	w2, [x0, 15]
 438 05d8 6220022A 		orr	w2, w3, w2, lsl 8
 439 05dc 437C0B53 		lsr	w3, w2, 11
 440 05e0 442845D3 		ubfx	x4, x2, 5, 6
 441 05e4 42101F53 		ubfiz	w2, w2, 1, 5
 442 05e8 22100929 		stp	w2, w4, [x1, 72]
 443 05ec 235000B9 		str	w3, [x1, 80]
 444 05f0 05704039 		ldrb	w5, [x0, 28]
 445 05f4 04744039 		ldrb	w4, [x0, 29]
 446 05f8 03784039 		ldrb	w3, [x0, 30]
 447 05fc 027C4039 		ldrb	w2, [x0, 31]
 448 0600 A42004AA 		orr	x4, x5, x4, lsl 8
 449 0604 834003AA 		orr	x3, x4, x3, lsl 16
 450 0608 626002AA 		orr	x2, x3, x2, lsl 24
 451 060c 3F080E29 		stp	wzr, w2, [x1, 112]
 452 0610 02004039 		ldrb	w2, [x0]
 453 0614 22E00539 		strb	w2, [x1, 376]
 454 0618 02044039 		ldrb	w2, [x0, 1]
AARCH64 GAS  C:\Users\A01169~1\AppData\Local\Temp\cclmDoLY.s 			page 9


 455 061c 22E40539 		strb	w2, [x1, 377]
 456 0620 02084039 		ldrb	w2, [x0, 2]
 457 0624 22E80539 		strb	w2, [x1, 378]
 458 0628 020C4039 		ldrb	w2, [x0, 3]
 459 062c 22EC0539 		strb	w2, [x1, 379]
 460 0630 02104039 		ldrb	w2, [x0, 4]
 461 0634 22F00539 		strb	w2, [x1, 380]
 462 0638 02144039 		ldrb	w2, [x0, 5]
 463 063c 22F40539 		strb	w2, [x1, 381]
 464 0640 02184039 		ldrb	w2, [x0, 6]
 465 0644 22F80539 		strb	w2, [x1, 382]
 466 0648 021C4039 		ldrb	w2, [x0, 7]
 467 064c 22FC0539 		strb	w2, [x1, 383]
 468 0650 02204039 		ldrb	w2, [x0, 8]
 469 0654 22000639 		strb	w2, [x1, 384]
 470 0658 02244039 		ldrb	w2, [x0, 9]
 471 065c 22040639 		strb	w2, [x1, 385]
 472 0660 00284039 		ldrb	w0, [x0, 10]
 473 0664 20080639 		strb	w0, [x1, 386]
 474 0668 C0035FD6 		ret
 475              		.size	SetFindDataFromFATEntry.part.0, .-SetFindDataFromFATEntry.part.0
 476              		.align	2
 477 066c 1F2003D5 		.p2align 4,,15
 478              		.type	sdSendCommandP, %function
 479              	sdSendCommandP:
 480 0670 F353BAA9 		stp	x19, x20, [sp, -96]!
 481 0674 F44788D2 		mov	x20, 16959
 482 0678 F401A0F2 		movk	x20, 0xf, lsl 16
 483 067c F55B01A9 		stp	x21, x22, [sp, 16]
 484 0680 F50300AA 		mov	x21, x0
 485 0684 130080D2 		mov	x19, 0
 486 0688 F96B03A9 		stp	x25, x26, [sp, 48]
 487 068c FA03012A 		mov	w26, w1
 488 0690 99048052 		mov	w25, 36
 489 0694 1906A072 		movk	w25, 0x30, lsl 16
 490 0698 FB7304A9 		stp	x27, x28, [sp, 64]
 491 069c 16000090 		adrp	x22, RPi_IO_Base_Addr
 492 06a0 DB020091 		add	x27, x22, :lo12:RPi_IO_Base_Addr
 493 06a4 1C0080D2 		mov	x28, 0
 494 06a8 F76302A9 		stp	x23, x24, [sp, 32]
 495 06ac 17009052 		mov	w23, 32768
 496 06b0 D72FA072 		movk	w23, 0x17e, lsl 16
 497 06b4 F8870C32 		mov	w24, 3145776
 498 06b8 FE2B00F9 		str	x30, [sp, 80]
 499 06bc 1F2003D5 		.p2align 3
 500              	.L81:
 501 06c0 610340B9 		ldr	w1, [x27]
 502 06c4 2000190B 		add	w0, w1, w25
 503 06c8 2200180B 		add	w2, w1, w24
 504 06cc 030040B9 		ldr	w3, [x0]
 505 06d0 C3010036 		tbz	x3, 0, .L84
 506              	.L106:
 507 06d4 420040B9 		ldr	w2, [x2]
 508 06d8 5F00176A 		tst	w2, w23
 509 06dc 61010054 		bne	.L84
 510 06e0 9F0314EB 		cmp	x28, x20
 511 06e4 C80A0054 		bhi	.L86
AARCH64 GAS  C:\Users\A01169~1\AppData\Local\Temp\cclmDoLY.s 			page 10


 512 06e8 F30900B5 		cbnz	x19, .L82
 513 06ec 00000094 		bl	timer_getTickCount
 514 06f0 F30300AA 		mov	x19, x0
 515 06f4 610340B9 		ldr	w1, [x27]
 516 06f8 2000190B 		add	w0, w1, w25
 517 06fc 2200180B 		add	w2, w1, w24
 518 0700 030040B9 		ldr	w3, [x0]
 519 0704 83FE0737 		tbnz	x3, 0, .L106
 520              	.L84:
 521 0708 E24788D2 		mov	x2, 16959
 522 070c E201A0F2 		movk	x2, 0xf, lsl 16
 523 0710 9F0302EB 		cmp	x28, x2
 524 0714 48090054 		bhi	.L86
 525 0718 E3870C32 		mov	w3, 3145776
 526 071c 2200030B 		add	w2, w1, w3
 527 0720 03009052 		mov	w3, 32768
 528 0724 C32FA072 		movk	w3, 0x17e, lsl 16
 529 0728 440040B9 		ldr	w4, [x2]
 530 072c 9F00036A 		tst	w4, w3
 531 0730 61080054 		bne	.L86
 532 0734 14000090 		adrp	x20, .LANCHOR0
 533 0738 94020091 		add	x20, x20, :lo12:.LANCHOR0
 534 073c 410040B9 		ldr	w1, [x2]
 535 0740 A02E4079 		ldrh	w0, [x21, 22]
 536 0744 952A00F9 		str	x21, [x20, 80]
 537 0748 410000B9 		str	w1, [x2]
 538 074c C10240B9 		ldr	w1, [x22, #:lo12:RPi_IO_Base_Addr]
 539 0750 21004C11 		add	w1, w1, 3145728
 540 0754 21200011 		add	w1, w1, 8
 541 0758 3A0000B9 		str	w26, [x1]
 542 075c C10240B9 		ldr	w1, [x22, #:lo12:RPi_IO_Base_Addr]
 543 0760 A21240B9 		ldr	w2, [x21, 16]
 544 0764 21004C11 		add	w1, w1, 3145728
 545 0768 21300011 		add	w1, w1, 12
 546 076c 220000B9 		str	w2, [x1]
 547 0770 20090035 		cbnz	w0, .L107
 548              	.L88:
 549 0774 20008052 		mov	w0, 1
 550 0778 6EFEFF97 		bl	sdWaitForInterrupt
 551 077c F303002A 		mov	w19, w0
 552 0780 20040035 		cbnz	w0, .L80
 553 0784 C10240B9 		ldr	w1, [x22, #:lo12:RPi_IO_Base_Addr]
 554 0788 23004C11 		add	w3, w1, 3145728
 555 078c 63400011 		add	w3, w3, 16
 556 0790 620040B9 		ldr	w2, [x3]
 557 0794 A01240B9 		ldr	w0, [x21, 16]
 558 0798 004450D3 		ubfx	x0, x0, 16, 2
 559 079c 1F080071 		cmp	w0, 2
 560 07a0 00080054 		beq	.L91
 561 07a4 E8080054 		bhi	.L96
 562 07a8 13008052 		mov	w19, 0
 563 07ac 1F040071 		cmp	w0, 1
 564 07b0 A1020054 		bne	.L80
 565 07b4 80220091 		add	x0, x20, 8
 566 07b8 1F4400B9 		str	wzr, [x0, 68]
 567 07bc 26004C11 		add	w6, w1, 3145728
 568 07c0 25004C11 		add	w5, w1, 3145728
AARCH64 GAS  C:\Users\A01169~1\AppData\Local\Temp\cclmDoLY.s 			page 11


 569 07c4 A41240B9 		ldr	w4, [x21, 16]
 570 07c8 21004C11 		add	w1, w1, 3145728
 571 07cc C6500011 		add	w6, w6, 20
 572 07d0 A5600011 		add	w5, w5, 24
 573 07d4 21700011 		add	w1, w1, 28
 574 07d8 847458D3 		ubfx	x4, x4, 24, 6
 575 07dc 9F240071 		cmp	w4, 9
 576 07e0 800B0054 		beq	.L108
 577 07e4 020C00B9 		str	w2, [x0, 12]
 578 07e8 13008052 		mov	w19, 0
 579 07ec C20040B9 		ldr	w2, [x6]
 580 07f0 020800B9 		str	w2, [x0, 8]
 581 07f4 A20040B9 		ldr	w2, [x5]
 582 07f8 020400B9 		str	w2, [x0, 4]
 583 07fc 200040B9 		ldr	w0, [x1]
 584 0800 800A00B9 		str	w0, [x20, 8]
 585              	.L80:
 586 0804 E003132A 		mov	w0, w19
 587 0808 F55B41A9 		ldp	x21, x22, [sp, 16]
 588 080c F76342A9 		ldp	x23, x24, [sp, 32]
 589 0810 F96B43A9 		ldp	x25, x26, [sp, 48]
 590 0814 FB7344A9 		ldp	x27, x28, [sp, 64]
 591 0818 FE2B40F9 		ldr	x30, [sp, 80]
 592 081c F353C6A8 		ldp	x19, x20, [sp], 96
 593 0820 C0035FD6 		ret
 594              		.p2align 2
 595              	.L82:
 596 0824 00000094 		bl	timer_getTickCount
 597 0828 E10300AA 		mov	x1, x0
 598 082c E00313AA 		mov	x0, x19
 599 0830 00000094 		bl	tick_difference
 600 0834 FC0300AA 		mov	x28, x0
 601 0838 A2FFFF17 		b	.L81
 602              		.p2align 2
 603              	.L86:
 604 083c 02000090 		adrp	x2, .LANCHOR0
 605 0840 440040F9 		ldr	x4, [x2, #:lo12:.LANCHOR0]
 606 0844 73008052 		mov	w19, 3
 607 0848 E4FDFFB4 		cbz	x4, .L80
 608 084c 23004C11 		add	w3, w1, 3145728
 609 0850 E2870C32 		mov	w2, 3145776
 610 0854 63400011 		add	w3, w3, 16
 611 0858 2200020B 		add	w2, w1, w2
 612 085c 010040B9 		ldr	w1, [x0]
 613 0860 00000090 		adrp	x0, .LC5
 614 0864 00000091 		add	x0, x0, :lo12:.LC5
 615 0868 420040B9 		ldr	w2, [x2]
 616 086c 630040B9 		ldr	w3, [x3]
 617 0870 80003FD6 		blr	x4
 618 0874 E003132A 		mov	w0, w19
 619 0878 F55B41A9 		ldp	x21, x22, [sp, 16]
 620 087c F76342A9 		ldp	x23, x24, [sp, 32]
 621 0880 F96B43A9 		ldp	x25, x26, [sp, 48]
 622 0884 FB7344A9 		ldp	x27, x28, [sp, 64]
 623 0888 FE2B40F9 		ldr	x30, [sp, 80]
 624 088c F353C6A8 		ldp	x19, x20, [sp], 96
 625 0890 C0035FD6 		ret
AARCH64 GAS  C:\Users\A01169~1\AppData\Local\Temp\cclmDoLY.s 			page 12


 626              		.p2align 2
 627              	.L107:
 628 0894 003C4092 		and	x0, x0, 65535
 629 0898 00000094 		bl	timer_wait
 630 089c B6FFFF17 		b	.L88
 631              		.p2align 2
 632              	.L91:
 633 08a0 A01240B9 		ldr	w0, [x21, 16]
 634 08a4 007458D3 		ubfx	x0, x0, 24, 6
 635 08a8 1F200071 		cmp	w0, 8
 636 08ac A0040054 		beq	.L94
 637 08b0 1FA40071 		cmp	w0, 41
 638 08b4 E0030054 		beq	.L95
 639 08b8 1F0C0071 		cmp	w0, 3
 640 08bc A0010054 		beq	.L109
 641              	.L96:
 642 08c0 824E00B9 		str	w2, [x20, 76]
 643 08c4 93009852 		mov	w19, 49156
 644 08c8 33FFBF72 		movk	w19, 0xfff9, lsl 16
 645 08cc 5300130A 		and	w19, w2, w19
 646 08d0 E003132A 		mov	w0, w19
 647 08d4 F55B41A9 		ldp	x21, x22, [sp, 16]
 648 08d8 F76342A9 		ldp	x23, x24, [sp, 32]
 649 08dc F96B43A9 		ldp	x25, x26, [sp, 48]
 650 08e0 FB7344A9 		ldp	x27, x28, [sp, 64]
 651 08e4 FE2B40F9 		ldr	x30, [sp, 80]
 652 08e8 F353C6A8 		ldp	x19, x20, [sp], 96
 653 08ec C0035FD6 		ret
 654              		.p2align 2
 655              	.L109:
 656 08f0 405C1853 		lsl	w0, w2, 8
 657 08f4 41641A53 		lsl	w1, w2, 6
 658 08f8 04000A12 		and	w4, w0, 4194304
 659 08fc 43300012 		and	w3, w2, 8191
 660 0900 00000912 		and	w0, w0, 8388608
 661 0904 21000D12 		and	w1, w1, 524288
 662 0908 2100042A 		orr	w1, w1, w4
 663 090c 6000002A 		orr	w0, w3, w0
 664 0910 2100002A 		orr	w1, w1, w0
 665 0914 423C1012 		and	w2, w2, -65536
 666 0918 93009852 		mov	w19, 49156
 667 091c 33FFBF72 		movk	w19, 0xfff9, lsl 16
 668 0920 3300130A 		and	w19, w1, w19
 669 0924 824600B9 		str	w2, [x20, 68]
 670 0928 814E00B9 		str	w1, [x20, 76]
 671 092c B6FFFF17 		b	.L80
 672              		.p2align 2
 673              	.L95:
 674 0930 13008052 		mov	w19, 0
 675 0934 824A00B9 		str	w2, [x20, 72]
 676 0938 9F4E00B9 		str	wzr, [x20, 76]
 677 093c B2FFFF17 		b	.L80
 678              		.p2align 2
 679              	.L94:
 680 0940 5F03026B 		cmp	w26, w2
 681 0944 9F4E00B9 		str	wzr, [x20, 76]
 682 0948 F3079F1A 		cset	w19, ne
AARCH64 GAS  C:\Users\A01169~1\AppData\Local\Temp\cclmDoLY.s 			page 13


 683 094c AEFFFF17 		b	.L80
 684              		.p2align 2
 685              	.L108:
 686 0950 670040B9 		ldr	w7, [x3]
 687 0954 C40040B9 		ldr	w4, [x6]
 688 0958 A30040B9 		ldr	w3, [x5]
 689 095c 02584039 		ldrb	w2, [x0, 22]
 690 0960 651C0012 		and	w5, w3, 255
 691 0964 280040B9 		ldr	w8, [x1]
 692 0968 695C50D3 		ubfx	x9, x3, 16, 8
 693 096c 661C0012 		and	w6, w3, 255
 694 0970 AA7C0753 		lsr	w10, w5, 7
 695 0974 0B284079 		ldrh	w11, [x0, 20]
 696 0978 613C4CD3 		ubfx	x1, x3, 12, 4
 697 097c CD7C0613 		asr	w13, w6, 6
 698 0980 42010033 		bfi	w2, w10, 0, 1
 699 0984 2910092A 		orr	w9, w1, w9, lsl 4
 700 0988 0A5D50D3 		ubfx	x10, x8, 16, 8
 701 098c E103022A 		mov	w1, w2
 702 0990 02404039 		ldrb	w2, [x0, 16]
 703 0994 2B2D0033 		bfi	w11, w9, 0, 12
 704 0998 497D0653 		lsr	w9, w10, 6
 705 099c 0B280079 		strh	w11, [x0, 20]
 706 09a0 CC7C0513 		asr	w12, w6, 5
 707 09a4 A1011F33 		bfi	w1, w13, 1, 1
 708 09a8 22050033 		bfi	w2, w9, 0, 2
 709 09ac 09544039 		ldrb	w9, [x0, 21]
 710 09b0 C67C0413 		asr	w6, w6, 4
 711 09b4 6B2C48D3 		ubfx	x11, x3, 8, 4
 712 09b8 81011E33 		bfi	w1, w12, 2, 1
 713 09bc 42151E33 		bfi	w2, w10, 2, 6
 714 09c0 637C1853 		lsr	w3, w3, 24
 715 09c4 690D1C33 		bfi	w9, w11, 4, 4
 716 09c8 C1001D33 		bfi	w1, w6, 3, 1
 717 09cc 063D48D3 		ubfx	x6, x8, 8, 8
 718 09d0 02400039 		strb	w2, [x0, 16]
 719 09d4 42040012 		and	w2, w2, 3
 720 09d8 06440039 		strb	w6, [x0, 17]
 721 09dc 5F040071 		cmp	w2, 1
 722 09e0 08480039 		strb	w8, [x0, 18]
 723 09e4 034C0039 		strb	w3, [x0, 19]
 724 09e8 09540039 		strb	w9, [x0, 21]
 725 09ec 01580039 		strb	w1, [x0, 22]
 726 09f0 A00A0054 		beq	.L110
 727 09f4 885C50D3 		ubfx	x8, x4, 16, 8
 728 09f8 03604039 		ldrb	w3, [x0, 24]
 729 09fc 823C48D3 		ubfx	x2, x4, 8, 8
 730 0a00 A1041853 		ubfiz	w1, w5, 8, 2
 731 0a04 067D0313 		asr	w6, w8, 3
 732 0a08 2160440B 		add	w1, w1, w4, lsr 24
 733 0a0c 497C0553 		lsr	w9, w2, 5
 734 0a10 057D0653 		lsr	w5, w8, 6
 735 0a14 C3080033 		bfi	w3, w6, 0, 3
 736 0a18 8A1C47D3 		ubfx	x10, x4, 7, 1
 737 0a1c 46041F53 		ubfiz	w6, w2, 1, 2
 738 0a20 A108010B 		add	w1, w5, w1, lsl 2
 739 0a24 03091D33 		bfi	w3, w8, 3, 3
AARCH64 GAS  C:\Users\A01169~1\AppData\Local\Temp\cclmDoLY.s 			page 14


 740 0a28 03600039 		strb	w3, [x0, 24]
 741 0a2c C6000A2A 		orr	w6, w6, w10
 742 0a30 457C0213 		asr	w5, w2, 2
 743 0a34 03304079 		ldrh	w3, [x0, 24]
 744 0a38 22040011 		add	w2, w1, 1
 745 0a3c CA080011 		add	w10, w6, 2
 746 0a40 082C4079 		ldrh	w8, [x0, 22]
 747 0a44 23091A33 		bfi	w3, w9, 6, 3
 748 0a48 03300079 		strh	w3, [x0, 24]
 749 0a4c 4220CA1A 		lsl	w2, w2, w10
 750 0a50 282C1C33 		bfi	w8, w1, 4, 12
 751 0a54 03644039 		ldrb	w3, [x0, 25]
 752 0a58 4220CB1A 		lsl	w2, w2, w11
 753 0a5c 417C4093 		sxtw	x1, w2
 754 0a60 011800F9 		str	x1, [x0, 48]
 755 0a64 082C0079 		strh	w8, [x0, 22]
 756 0a68 A3081F33 		bfi	w3, w5, 1, 3
 757 0a6c E103032A 		mov	w1, w3
 758 0a70 C1081C33 		bfi	w1, w6, 4, 3
 759 0a74 01640039 		strb	w1, [x0, 25]
 760              	.L99:
 761 0a78 82A24039 		ldrb	w2, [x20, 40]
 762 0a7c E15C50D3 		ubfx	x1, x7, 16, 8
 763 0a80 E07C1853 		lsr	w0, w7, 24
 764 0a84 85AA4039 		ldrb	w5, [x20, 42]
 765 0a88 88A64039 		ldrb	w8, [x20, 41]
 766 0a8c 297C0753 		lsr	w9, w1, 7
 767 0a90 2A1845D3 		ubfx	x10, x1, 5, 2
 768 0a94 2B7C0213 		asr	w11, w1, 2
 769 0a98 02180033 		bfi	w2, w0, 0, 7
 770 0a9c E63C48D3 		ubfx	x6, x7, 8, 8
 771 0aa0 68091E33 		bfi	w8, w11, 2, 3
 772 0aa4 45111E33 		bfi	w5, w10, 2, 5
 773 0aa8 22011933 		bfi	w2, w9, 7, 1
 774 0aac 82A20039 		strb	w2, [x20, 40]
 775 0ab0 88A60039 		strb	w8, [x20, 41]
 776 0ab4 21041E53 		ubfiz	w1, w1, 2, 2
 777 0ab8 85AA0039 		strb	w5, [x20, 42]
 778 0abc 2218462A 		orr	w2, w1, w6, lsr 6
 779 0ac0 E31C0012 		and	w3, w7, 255
 780 0ac4 017C0113 		asr	w1, w0, 1
 781 0ac8 882A40B9 		ldr	w8, [x20, 40]
 782 0acc 8C1C46D3 		ubfx	x12, x4, 6, 2
 783 0ad0 6B7C0613 		asr	w11, w3, 6
 784 0ad4 6A7C0513 		asr	w10, w3, 5
 785 0ad8 697C0413 		asr	w9, w3, 4
 786 0adc 85924039 		ldrb	w5, [x20, 36]
 787 0ae0 480C1333 		bfi	w8, w2, 13, 4
 788 0ae4 882A00B9 		str	w8, [x20, 40]
 789 0ae8 C67C0513 		asr	w6, w6, 5
 790 0aec 637C0213 		asr	w3, w3, 2
 791 0af0 80AE4039 		ldrb	w0, [x20, 43]
 792 0af4 84140012 		and	w4, w4, 63
 793 0af8 82AA4039 		ldrb	w2, [x20, 42]
 794 0afc 85010033 		bfi	w5, w12, 0, 1
 795 0b00 21001A12 		and	w1, w1, 64
 796 0b04 13008052 		mov	w19, 0
AARCH64 GAS  C:\Users\A01169~1\AppData\Local\Temp\cclmDoLY.s 			page 15


 797 0b08 60010033 		bfi	w0, w11, 0, 1
 798 0b0c 2100042A 		orr	w1, w1, w4
 799 0b10 C2001F33 		bfi	w2, w6, 1, 1
 800 0b14 E403052A 		mov	w4, w5
 801 0b18 40011F33 		bfi	w0, w10, 1, 1
 802 0b1c E51C47D3 		ubfx	x5, x7, 7, 1
 803 0b20 24181F33 		bfi	w4, w1, 1, 7
 804 0b24 84920039 		strb	w4, [x20, 36]
 805 0b28 20011E33 		bfi	w0, w9, 2, 1
 806 0b2c A2001933 		bfi	w2, w5, 7, 1
 807 0b30 82AA0039 		strb	w2, [x20, 42]
 808 0b34 60041D33 		bfi	w0, w3, 3, 2
 809 0b38 E0041B33 		bfi	w0, w7, 5, 2
 810 0b3c 80AE0039 		strb	w0, [x20, 43]
 811 0b40 31FFFF17 		b	.L80
 812              	.L110:
 813 0b44 011840B9 		ldr	w1, [x0, 24]
 814 0b48 827448D3 		ubfx	x2, x4, 8, 22
 815 0b4c 43546DD3 		ubfiz	x3, x2, 19, 22
 816 0b50 031800F9 		str	x3, [x0, 48]
 817 0b54 41540033 		bfi	w1, w2, 0, 22
 818 0b58 011800B9 		str	w1, [x0, 24]
 819 0b5c C7FFFF17 		b	.L99
 820              		.size	sdSendCommandP, .-sdSendCommandP
 821              		.align	2
 822              		.p2align 4,,15
 823              		.type	sdAppSendOpCond, %function
 824              	sdAppSendOpCond:
 825 0b60 F353BBA9 		stp	x19, x20, [sp, -80]!
 826 0b64 F76302A9 		stp	x23, x24, [sp, 32]
 827 0b68 18000090 		adrp	x24, .LANCHOR0
 828 0b6c 14030091 		add	x20, x24, :lo12:.LANCHOR0
 829 0b70 93220091 		add	x19, x20, 8
 830 0b74 F55B01A9 		stp	x21, x22, [sp, 16]
 831 0b78 16000090 		adrp	x22, .LANCHOR1
 832 0b7c D6020091 		add	x22, x22, :lo12:.LANCHOR1
 833 0b80 613E40B9 		ldr	w1, [x19, 60]
 834 0b84 FB7B04A9 		stp	x27, x30, [sp, 64]
 835 0b88 FB03002A 		mov	w27, w0
 836 0b8c 61050035 		cbnz	w1, .L112
 837 0b90 C0E20A91 		add	x0, x22, 696
 838 0b94 B7FEFF97 		bl	sdSendCommandP
 839              	.L113:
 840 0b98 E1031B2A 		mov	w1, w27
 841 0b9c C0820D91 		add	x0, x22, 864
 842 0ba0 B4FEFF97 		bl	sdSendCommandP
 843 0ba4 F303002A 		mov	w19, w0
 844 0ba8 A00B0035 		cbnz	w0, .L116
 845 0bac 80220091 		add	x0, x20, 8
 846 0bb0 013C40B9 		ldr	w1, [x0, 60]
 847 0bb4 81000034 		cbz	w1, .L119
 848 0bb8 004440B9 		ldr	w0, [x0, 68]
 849 0bbc 33018052 		mov	w19, 9
 850 0bc0 80042836 		tbz	x0, 5, .L115
 851              	.L119:
 852 0bc4 94220091 		add	x20, x20, 8
 853 0bc8 F96B03A9 		stp	x25, x26, [sp, 48]
AARCH64 GAS  C:\Users\A01169~1\AppData\Local\Temp\cclmDoLY.s 			page 16


 854 0bcc D9820D91 		add	x25, x22, 864
 855 0bd0 DA420B91 		add	x26, x22, 720
 856 0bd4 D6E20A91 		add	x22, x22, 696
 857 0bd8 175083D2 		mov	x23, 6784
 858 0bdc D700A0F2 		movk	x23, 0x6, lsl 16
 859 0be0 F5008052 		mov	w21, 7
 860              	.L118:
 861 0be4 800EC139 		ldrsb	w0, [x20, 67]
 862 0be8 2007F837 		tbnz	w0, #31, .L127
 863              	.L145:
 864 0bec B5060071 		subs	w21, w21, #1
 865 0bf0 40080054 		beq	.L144
 866 0bf4 E00317AA 		mov	x0, x23
 867 0bf8 00000094 		bl	timer_wait
 868 0bfc 813E40B9 		ldr	w1, [x20, 60]
 869 0c00 01040035 		cbnz	w1, .L121
 870 0c04 E00316AA 		mov	x0, x22
 871 0c08 9AFEFF97 		bl	sdSendCommandP
 872              	.L122:
 873 0c0c E1031B2A 		mov	w1, w27
 874 0c10 E00319AA 		mov	x0, x25
 875 0c14 97FEFF97 		bl	sdSendCommandP
 876 0c18 F303002A 		mov	w19, w0
 877 0c1c 00050035 		cbnz	w0, .L125
 878 0c20 803E40B9 		ldr	w0, [x20, 60]
 879 0c24 00FEFF34 		cbz	w0, .L118
 880 0c28 804640B9 		ldr	w0, [x20, 68]
 881 0c2c C0FD2F37 		tbnz	x0, 5, .L118
 882 0c30 33018052 		mov	w19, 9
 883 0c34 19000014 		b	.L124
 884              		.p2align 2
 885              	.L112:
 886 0c38 C0420B91 		add	x0, x22, 720
 887 0c3c 8DFEFF97 		bl	sdSendCommandP
 888 0c40 C0060035 		cbnz	w0, .L114
 889 0c44 604640B9 		ldr	w0, [x19, 68]
 890 0c48 80FA2F37 		tbnz	x0, 5, .L113
 891 0c4c 33008052 		mov	w19, 1
 892              	.L115:
 893 0c50 020340F9 		ldr	x2, [x24, #:lo12:.LANCHOR0]
 894 0c54 A20000B4 		cbz	x2, .L111
 895 0c58 00000090 		adrp	x0, .LC6
 896 0c5c E103132A 		mov	w1, w19
 897 0c60 00000091 		add	x0, x0, :lo12:.LC6
 898 0c64 40003FD6 		blr	x2
 899              	.L111:
 900 0c68 E003132A 		mov	w0, w19
 901 0c6c F55B41A9 		ldp	x21, x22, [sp, 16]
 902 0c70 F76342A9 		ldp	x23, x24, [sp, 32]
 903 0c74 FB7B44A9 		ldp	x27, x30, [sp, 64]
 904 0c78 F353C5A8 		ldp	x19, x20, [sp], 80
 905 0c7c C0035FD6 		ret
 906              		.p2align 2
 907              	.L121:
 908 0c80 E0031AAA 		mov	x0, x26
 909 0c84 7BFEFF97 		bl	sdSendCommandP
 910 0c88 80010035 		cbnz	w0, .L123
AARCH64 GAS  C:\Users\A01169~1\AppData\Local\Temp\cclmDoLY.s 			page 17


 911 0c8c 804640B9 		ldr	w0, [x20, 68]
 912 0c90 E0FB2F37 		tbnz	x0, 5, .L122
 913 0c94 33008052 		mov	w19, 1
 914              	.L124:
 915 0c98 020340F9 		ldr	x2, [x24, #:lo12:.LANCHOR0]
 916 0c9c 620400B4 		cbz	x2, .L142
 917 0ca0 00000090 		adrp	x0, .LC6
 918 0ca4 E103132A 		mov	w1, w19
 919 0ca8 00000091 		add	x0, x0, :lo12:.LC6
 920 0cac 40003FD6 		blr	x2
 921 0cb0 F96B43A9 		ldp	x25, x26, [sp, 48]
 922 0cb4 EDFFFF17 		b	.L111
 923              		.p2align 2
 924              	.L123:
 925 0cb8 F303002A 		mov	w19, w0
 926              	.L125:
 927 0cbc 7F0A0071 		cmp	w19, 2
 928 0cc0 C1FEFF54 		bne	.L124
 929 0cc4 800EC139 		ldrsb	w0, [x20, 67]
 930 0cc8 20F9FF36 		tbz	w0, #31, .L145
 931              	.L127:
 932 0ccc 800A4139 		ldrb	w0, [x20, 66]
 933 0cd0 F55B41A9 		ldp	x21, x22, [sp, 16]
 934 0cd4 1F041C72 		tst	w0, 48
 935 0cd8 F3179F1A 		cset	w19, eq
 936 0cdc F76342A9 		ldp	x23, x24, [sp, 32]
 937 0ce0 73721D53 		lsl	w19, w19, 3
 938 0ce4 E003132A 		mov	w0, w19
 939 0ce8 F96B43A9 		ldp	x25, x26, [sp, 48]
 940 0cec FB7B44A9 		ldp	x27, x30, [sp, 64]
 941 0cf0 F353C5A8 		ldp	x19, x20, [sp], 80
 942 0cf4 C0035FD6 		ret
 943              		.p2align 2
 944              	.L144:
 945 0cf8 53008052 		mov	w19, 2
 946 0cfc E003132A 		mov	w0, w19
 947 0d00 F55B41A9 		ldp	x21, x22, [sp, 16]
 948 0d04 F76342A9 		ldp	x23, x24, [sp, 32]
 949 0d08 F96B43A9 		ldp	x25, x26, [sp, 48]
 950 0d0c FB7B44A9 		ldp	x27, x30, [sp, 64]
 951 0d10 F353C5A8 		ldp	x19, x20, [sp], 80
 952 0d14 C0035FD6 		ret
 953              		.p2align 2
 954              	.L114:
 955 0d18 F303002A 		mov	w19, w0
 956              	.L116:
 957 0d1c 7F0A0071 		cmp	w19, 2
 958 0d20 20F5FF54 		beq	.L119
 959 0d24 CBFFFF17 		b	.L115
 960              		.p2align 2
 961              	.L142:
 962 0d28 F96B43A9 		ldp	x25, x26, [sp, 48]
 963 0d2c CFFFFF17 		b	.L111
 964              		.size	sdAppSendOpCond, .-sdAppSendOpCond
 965              		.align	2
 966              		.p2align 4,,15
 967              		.type	sdResetCard, %function
AARCH64 GAS  C:\Users\A01169~1\AppData\Local\Temp\cclmDoLY.s 			page 18


 968              	sdResetCard:
 969 0d30 02000090 		adrp	x2, RPi_IO_Base_Addr
 970 0d34 410040B9 		ldr	w1, [x2, #:lo12:RPi_IO_Base_Addr]
 971 0d38 F353BDA9 		stp	x19, x20, [sp, -48]!
 972 0d3c 83058052 		mov	w3, 44
 973 0d40 0306A072 		movk	w3, 0x30, lsl 16
 974 0d44 21004C11 		add	w1, w1, 3145728
 975 0d48 F55B01A9 		stp	x21, x22, [sp, 16]
 976 0d4c 21A00011 		add	w1, w1, 40
 977 0d50 F77B02A9 		stp	x23, x30, [sp, 32]
 978 0d54 55000091 		add	x21, x2, :lo12:RPi_IO_Base_Addr
 979 0d58 F7D390D2 		mov	x23, 34463
 980 0d5c 3700A0F2 		movk	x23, 0x1, lsl 16
 981 0d60 3F0000B9 		str	wzr, [x1]
 982 0d64 F603032A 		mov	w22, w3
 983 0d68 400180D2 		mov	x0, 10
 984 0d6c 410040B9 		ldr	w1, [x2, #:lo12:RPi_IO_Base_Addr]
 985 0d70 130080D2 		mov	x19, 0
 986 0d74 140080D2 		mov	x20, 0
 987 0d78 2100030B 		add	w1, w1, w3
 988 0d7c 3F0000B9 		str	wzr, [x1]
 989 0d80 410040B9 		ldr	w1, [x2, #:lo12:RPi_IO_Base_Addr]
 990 0d84 2100030B 		add	w1, w1, w3
 991 0d88 220040B9 		ldr	w2, [x1]
 992 0d8c 42000832 		orr	w2, w2, 16777216
 993 0d90 220000B9 		str	w2, [x1]
 994 0d94 00000094 		bl	timer_wait
 995              		.p2align 3
 996              	.L147:
 997 0d98 A10240B9 		ldr	w1, [x21]
 998 0d9c 2100160B 		add	w1, w1, w22
 999 0da0 200040B9 		ldr	w0, [x1]
 1000 0da4 4001C036 		tbz	x0, 24, .L150
 1001              	.L158:
 1002 0da8 9F0217EB 		cmp	x20, x23
 1003 0dac 68070054 		bhi	.L152
 1004 0db0 D30300B5 		cbnz	x19, .L148
 1005 0db4 00000094 		bl	timer_getTickCount
 1006 0db8 F30300AA 		mov	x19, x0
 1007 0dbc A10240B9 		ldr	w1, [x21]
 1008 0dc0 2100160B 		add	w1, w1, w22
 1009 0dc4 200040B9 		ldr	w0, [x1]
 1010 0dc8 00FFC737 		tbnz	x0, 24, .L158
 1011              	.L150:
 1012 0dcc E0D390D2 		mov	x0, 34463
 1013 0dd0 2000A0F2 		movk	x0, 0x1, lsl 16
 1014 0dd4 9F0200EB 		cmp	x20, x0
 1015 0dd8 08060054 		bhi	.L152
 1016 0ddc 220040B9 		ldr	w2, [x1]
 1017 0de0 C3018052 		mov	w3, 14
 1018 0de4 400180D2 		mov	x0, 10
 1019 0de8 620C1033 		bfi	w2, w3, 16, 4
 1020 0dec 220000B9 		str	w2, [x1]
 1021 0df0 220040B9 		ldr	w2, [x1]
 1022 0df4 42000032 		orr	w2, w2, 1
 1023 0df8 220000B9 		str	w2, [x1]
 1024 0dfc 00000094 		bl	timer_wait
AARCH64 GAS  C:\Users\A01169~1\AppData\Local\Temp\cclmDoLY.s 			page 19


 1025 0e00 00508352 		mov	w0, 6784
 1026 0e04 C000A072 		movk	w0, 0x6, lsl 16
 1027 0e08 36FDFF97 		bl	sdSetClock
 1028 0e0c F303002A 		mov	w19, w0
 1029 0e10 80010034 		cbz	w0, .L159
 1030              	.L146:
 1031 0e14 E003132A 		mov	w0, w19
 1032 0e18 F55B41A9 		ldp	x21, x22, [sp, 16]
 1033 0e1c F77B42A9 		ldp	x23, x30, [sp, 32]
 1034 0e20 F353C3A8 		ldp	x19, x20, [sp], 48
 1035 0e24 C0035FD6 		ret
 1036              		.p2align 2
 1037              	.L148:
 1038 0e28 00000094 		bl	timer_getTickCount
 1039 0e2c E10300AA 		mov	x1, x0
 1040 0e30 E00313AA 		mov	x0, x19
 1041 0e34 00000094 		bl	tick_difference
 1042 0e38 F40300AA 		mov	x20, x0
 1043 0e3c D7FFFF17 		b	.L147
 1044              		.p2align 2
 1045              	.L159:
 1046 0e40 A30240B9 		ldr	w3, [x21]
 1047 0e44 04008012 		mov	w4, -1
 1048 0e48 F77B42A9 		ldp	x23, x30, [sp, 32]
 1049 0e4c 63004C11 		add	w3, w3, 3145728
 1050 0e50 63E00011 		add	w3, w3, 56
 1051 0e54 02000090 		adrp	x2, .LANCHOR0
 1052 0e58 42000091 		add	x2, x2, :lo12:.LANCHOR0
 1053 0e5c 00000090 		adrp	x0, .LANCHOR1
 1054 0e60 01008052 		mov	w1, 0
 1055 0e64 00000091 		add	x0, x0, :lo12:.LANCHOR1
 1056 0e68 640000B9 		str	w4, [x3]
 1057 0e6c A30240B9 		ldr	w3, [x21]
 1058 0e70 F55B41A9 		ldp	x21, x22, [sp, 16]
 1059 0e74 63004C11 		add	w3, w3, 3145728
 1060 0e78 63D00011 		add	w3, w3, 52
 1061 0e7c 640000B9 		str	w4, [x3]
 1062 0e80 5F7C0829 		stp	wzr, wzr, [x2, 64]
 1063 0e84 5F4800B9 		str	wzr, [x2, 72]
 1064 0e88 5F4C00B9 		str	wzr, [x2, 76]
 1065 0e8c 5F2800F9 		str	xzr, [x2, 80]
 1066 0e90 F353C3A8 		ldp	x19, x20, [sp], 48
 1067 0e94 F7FDFF17 		b	sdSendCommandP
 1068              		.p2align 2
 1069              	.L152:
 1070 0e98 00000090 		adrp	x0, .LANCHOR0
 1071 0e9c 010040F9 		ldr	x1, [x0, #:lo12:.LANCHOR0]
 1072 0ea0 D3008052 		mov	w19, 6
 1073 0ea4 81FBFFB4 		cbz	x1, .L146
 1074 0ea8 00000090 		adrp	x0, .LC7
 1075 0eac 00000091 		add	x0, x0, :lo12:.LC7
 1076 0eb0 20003FD6 		blr	x1
 1077 0eb4 E003132A 		mov	w0, w19
 1078 0eb8 F55B41A9 		ldp	x21, x22, [sp, 16]
 1079 0ebc F77B42A9 		ldp	x23, x30, [sp, 32]
 1080 0ec0 F353C3A8 		ldp	x19, x20, [sp], 48
 1081 0ec4 C0035FD6 		ret
AARCH64 GAS  C:\Users\A01169~1\AppData\Local\Temp\cclmDoLY.s 			page 20


 1082              		.size	sdResetCard, .-sdResetCard
 1083              		.align	2
 1084 0ec8 1F2003D5 		.p2align 4,,15
 1084      1F2003D5 
 1085              		.type	sdTransferBlocks.constprop.7, %function
 1086              	sdTransferBlocks.constprop.7:
 1087 0ed0 F353BCA9 		stp	x19, x20, [sp, -64]!
 1088 0ed4 F55B01A9 		stp	x21, x22, [sp, 16]
 1089 0ed8 B6008052 		mov	w22, 5
 1090 0edc F76302A9 		stp	x23, x24, [sp, 32]
 1091 0ee0 15000090 		adrp	x21, .LANCHOR0
 1092 0ee4 B8020091 		add	x24, x21, :lo12:.LANCHOR0
 1093 0ee8 571C0012 		and	w23, w2, 255
 1094 0eec 024340B9 		ldr	w2, [x24, 64]
 1095 0ef0 FE1F00F9 		str	x30, [sp, 56]
 1096 0ef4 C2040034 		cbz	w2, .L160
 1097 0ef8 F30301AA 		mov	x19, x1
 1098 0efc 56008052 		mov	w22, 2
 1099 0f00 F91B00F9 		str	x25, [sp, 48]
 1100 0f04 F903002A 		mov	w25, w0
 1101 0f08 3EFCFF97 		bl	sdWaitForData
 1102 0f0c E0030035 		cbnz	w0, .L195
 1103 0f10 14000090 		adrp	x20, RPi_IO_Base_Addr
 1104 0f14 820240B9 		ldr	w2, [x20, #:lo12:RPi_IO_Base_Addr]
 1105 0f18 18230091 		add	x24, x24, 8
 1106 0f1c 033B40B9 		ldr	w3, [x24, 56]
 1107 0f20 42004C11 		add	w2, w2, 3145728
 1108 0f24 FF020071 		cmp	w23, 0
 1109 0f28 42100011 		add	w2, w2, 4
 1110 0f2c 00048052 		mov	w0, 32
 1111 0f30 042A80D2 		mov	x4, 336
 1112 0f34 18028052 		mov	w24, 16
 1113 0f38 1813801A 		csel	w24, w24, w0, ne
 1114 0f3c 003980D2 		mov	x0, 456
 1115 0f40 410040B9 		ldr	w1, [x2]
 1116 0f44 0010849A 		csel	x0, x0, x4, ne
 1117 0f48 05408052 		mov	w5, 512
 1118 0f4c 7F0C0071 		cmp	w3, 3
 1119 0f50 213C0012 		and	w1, w1, 65535
 1120 0f54 03000090 		adrp	x3, .LANCHOR1
 1121 0f58 63000091 		add	x3, x3, :lo12:.LANCHOR1
 1122 0f5c 21001032 		orr	w1, w1, 65536
 1123 0f60 410000B9 		str	w1, [x2]
 1124 0f64 215B1753 		lsl	w1, w25, 9
 1125 0f68 6000008B 		add	x0, x3, x0
 1126 0f6c 2100991A 		csel	w1, w1, w25, eq
 1127 0f70 440040B9 		ldr	w4, [x2]
 1128 0f74 A4240033 		bfi	w4, w5, 0, 10
 1129 0f78 440000B9 		str	w4, [x2]
 1130 0f7c BDFDFF97 		bl	sdSendCommandP
 1131 0f80 F603002A 		mov	w22, w0
 1132 0f84 00010034 		cbz	w0, .L196
 1133              		.p2align 3
 1134              	.L195:
 1135 0f88 F91B40F9 		ldr	x25, [sp, 48]
 1136              	.L160:
 1137 0f8c E003162A 		mov	w0, w22
AARCH64 GAS  C:\Users\A01169~1\AppData\Local\Temp\cclmDoLY.s 			page 21


 1138 0f90 F55B41A9 		ldp	x21, x22, [sp, 16]
 1139 0f94 F76342A9 		ldp	x23, x24, [sp, 32]
 1140 0f98 FE1F40F9 		ldr	x30, [sp, 56]
 1141 0f9c F353C4A8 		ldp	x19, x20, [sp], 64
 1142 0fa0 C0035FD6 		ret
 1143              	.L196:
 1144 0fa4 E003182A 		mov	w0, w24
 1145 0fa8 62FCFF97 		bl	sdWaitForInterrupt
 1146 0fac F603002A 		mov	w22, w0
 1147 0fb0 20090035 		cbnz	w0, .L197
 1148 0fb4 E10313AA 		mov	x1, x19
 1149 0fb8 82020091 		add	x2, x20, :lo12:RPi_IO_Base_Addr
 1150 0fbc 7F0640F2 		tst	x19, 3
 1151 0fc0 80020054 		beq	.L164
 1152 0fc4 D7030035 		cbnz	w23, .L165
 1153 0fc8 66020891 		add	x6, x19, 512
 1154 0fcc 05048052 		mov	w5, 32
 1155 0fd0 0506A072 		movk	w5, 0x30, lsl 16
 1156 0fd4 1F2003D5 		.p2align 3
 1157              	.L166:
 1158 0fd8 400040B9 		ldr	w0, [x2]
 1159 0fdc 21040091 		add	x1, x1, 1
 1160 0fe0 0000050B 		add	w0, w0, w5
 1161 0fe4 000040B9 		ldr	w0, [x0]
 1162 0fe8 20F01F38 		strb	w0, [x1, -1]
 1163 0fec 047C0853 		lsr	w4, w0, 8
 1164 0ff0 037C1053 		lsr	w3, w0, 16
 1165 0ff4 007C1853 		lsr	w0, w0, 24
 1166 0ff8 24000039 		strb	w4, [x1]
 1167 0ffc 23040039 		strb	w3, [x1, 1]
 1168 1000 20080039 		strb	w0, [x1, 2]
 1169 1004 3F0006EB 		cmp	x1, x6
 1170 1008 81FEFF54 		bne	.L166
 1171 100c DFFFFF17 		b	.L195
 1172              		.p2align 2
 1173              	.L164:
 1174 1010 F7040035 		cbnz	w23, .L170
 1175 1014 64020891 		add	x4, x19, 512
 1176 1018 03048052 		mov	w3, 32
 1177 101c 0306A072 		movk	w3, 0x30, lsl 16
 1178              		.p2align 3
 1179              	.L171:
 1180 1020 400040B9 		ldr	w0, [x2]
 1181 1024 0000030B 		add	w0, w0, w3
 1182 1028 000040B9 		ldr	w0, [x0]
 1183 102c 204400B8 		str	w0, [x1], 4
 1184 1030 9F0001EB 		cmp	x4, x1
 1185 1034 61FFFF54 		bne	.L171
 1186 1038 D4FFFF17 		b	.L195
 1187              	.L165:
 1188 103c 68020891 		add	x8, x19, 512
 1189 1040 07048052 		mov	w7, 32
 1190 1044 0706A072 		movk	w7, 0x30, lsl 16
 1191              		.p2align 3
 1192              	.L168:
 1193 1048 25084039 		ldrb	w5, [x1, 2]
 1194 104c 21040091 		add	x1, x1, 1
AARCH64 GAS  C:\Users\A01169~1\AppData\Local\Temp\cclmDoLY.s 			page 22


 1195 1050 430040B9 		ldr	w3, [x2]
 1196 1054 20004039 		ldrb	w0, [x1]
 1197 1058 24084039 		ldrb	w4, [x1, 2]
 1198 105c 6300070B 		add	w3, w3, w7
 1199 1060 26F05F38 		ldrb	w6, [x1, -1]
 1200 1064 A53C1053 		lsl	w5, w5, 16
 1201 1068 A020002A 		orr	w0, w5, w0, lsl 8
 1202 106c 3F0008EB 		cmp	x1, x8
 1203 1070 C460042A 		orr	w4, w6, w4, lsl 24
 1204 1074 0000042A 		orr	w0, w0, w4
 1205 1078 600000B9 		str	w0, [x3]
 1206 107c 61FEFF54 		bne	.L168
 1207              	.L169:
 1208 1080 40008052 		mov	w0, 2
 1209 1084 2BFCFF97 		bl	sdWaitForInterrupt
 1210 1088 00F8FF34 		cbz	w0, .L195
 1211 108c A10240F9 		ldr	x1, [x21, #:lo12:.LANCHOR0]
 1212 1090 F603002A 		mov	w22, w0
 1213 1094 A1F7FFB4 		cbz	x1, .L195
 1214 1098 00000090 		adrp	x0, .LC9
 1215 109c 00000091 		add	x0, x0, :lo12:.LC9
 1216 10a0 20003FD6 		blr	x1
 1217 10a4 F91B40F9 		ldr	x25, [sp, 48]
 1218 10a8 B9FFFF17 		b	.L160
 1219              		.p2align 2
 1220              	.L170:
 1221 10ac 65020891 		add	x5, x19, 512
 1222 10b0 04048052 		mov	w4, 32
 1223 10b4 0406A072 		movk	w4, 0x30, lsl 16
 1224              		.p2align 3
 1225              	.L172:
 1226 10b8 400040B9 		ldr	w0, [x2]
 1227 10bc 234440B8 		ldr	w3, [x1], 4
 1228 10c0 0000040B 		add	w0, w0, w4
 1229 10c4 BF0001EB 		cmp	x5, x1
 1230 10c8 030000B9 		str	w3, [x0]
 1231 10cc 61FFFF54 		bne	.L172
 1232 10d0 ECFFFF17 		b	.L169
 1233              	.L197:
 1234 10d4 A10240F9 		ldr	x1, [x21, #:lo12:.LANCHOR0]
 1235 10d8 81F5FFB4 		cbz	x1, .L195
 1236 10dc 00000090 		adrp	x0, .LC8
 1237 10e0 00000091 		add	x0, x0, :lo12:.LC8
 1238 10e4 20003FD6 		blr	x1
 1239 10e8 E003162A 		mov	w0, w22
 1240 10ec F55B41A9 		ldp	x21, x22, [sp, 16]
 1241 10f0 F76342A9 		ldp	x23, x24, [sp, 32]
 1242 10f4 F91B40F9 		ldr	x25, [sp, 48]
 1243 10f8 FE1F40F9 		ldr	x30, [sp, 56]
 1244 10fc F353C4A8 		ldp	x19, x20, [sp], 64
 1245 1100 C0035FD6 		ret
 1246              		.size	sdTransferBlocks.constprop.7, .-sdTransferBlocks.constprop.7
 1247              		.align	2
 1248 1104 1F2003D5 		.p2align 4,,15
 1248      1F2003D5 
 1248      1F2003D5 
 1249              		.type	LoadDrivePartition, %function
AARCH64 GAS  C:\Users\A01169~1\AppData\Local\Temp\cclmDoLY.s 			page 23


 1250              	LoadDrivePartition:
 1251 1110 FFC308D1 		sub	sp, sp, #560
 1252 1114 F35300A9 		stp	x19, x20, [sp]
 1253 1118 F55B01A9 		stp	x21, x22, [sp, 16]
 1254 111c 15000090 		adrp	x21, .LANCHOR0
 1255 1120 B4020091 		add	x20, x21, :lo12:.LANCHOR0
 1256 1124 FE1300F9 		str	x30, [sp, 32]
 1257 1128 814240B9 		ldr	w1, [x20, 64]
 1258 112c 81050034 		cbz	w1, .L231
 1259 1130 F30300AA 		mov	x19, x0
 1260 1134 B3FBFF97 		bl	sdWaitForData
 1261 1138 20050035 		cbnz	w0, .L231
 1262 113c 16000090 		adrp	x22, RPi_IO_Base_Addr
 1263 1140 C20240B9 		ldr	w2, [x22, #:lo12:RPi_IO_Base_Addr]
 1264 1144 04408052 		mov	w4, 512
 1265 1148 00000090 		adrp	x0, .LANCHOR1
 1266 114c 00000091 		add	x0, x0, :lo12:.LANCHOR1
 1267 1150 42004C11 		add	w2, w2, 3145728
 1268 1154 42100011 		add	w2, w2, 4
 1269 1158 00400591 		add	x0, x0, 336
 1270 115c 01008052 		mov	w1, 0
 1271 1160 430040B9 		ldr	w3, [x2]
 1272 1164 633C0012 		and	w3, w3, 65535
 1273 1168 63001032 		orr	w3, w3, 65536
 1274 116c 430000B9 		str	w3, [x2]
 1275 1170 430040B9 		ldr	w3, [x2]
 1276 1174 83240033 		bfi	w3, w4, 0, 10
 1277 1178 430000B9 		str	w3, [x2]
 1278 117c 3DFDFF97 		bl	sdSendCommandP
 1279 1180 E0020035 		cbnz	w0, .L231
 1280 1184 00048052 		mov	w0, 32
 1281 1188 EAFBFF97 		bl	sdWaitForInterrupt
 1282 118c A00D0035 		cbnz	w0, .L232
 1283 1190 C10240B9 		ldr	w1, [x22, #:lo12:RPi_IO_Base_Addr]
 1284 1194 E0C30091 		add	x0, sp, 48
 1285 1198 E3C30891 		add	x3, sp, 560
 1286 119c 21004C11 		add	w1, w1, 3145728
 1287 11a0 21800011 		add	w1, w1, 32
 1288 11a4 1F2003D5 		.p2align 3
 1289              	.L203:
 1290 11a8 220040B9 		ldr	w2, [x1]
 1291 11ac 024400B8 		str	w2, [x0], 4
 1292 11b0 1F0003EB 		cmp	x0, x3
 1293 11b4 A1FFFF54 		bne	.L203
 1294 11b8 E1C34039 		ldrb	w1, [sp, 48]
 1295 11bc 21781E12 		and	w1, w1, -3
 1296 11c0 211C0012 		and	w1, w1, 255
 1297 11c4 3FA40371 		cmp	w1, 233
 1298 11c8 00030054 		beq	.L207
 1299 11cc E15F4479 		ldrh	w1, [sp, 558]
 1300 11d0 A04A9552 		mov	w0, 43605
 1301 11d4 3F00006B 		cmp	w1, w0
 1302 11d8 E0000054 		beq	.L233
 1303              	.L231:
 1304 11dc 00008052 		mov	w0, 0
 1305 11e0 F35340A9 		ldp	x19, x20, [sp]
 1306 11e4 F55B41A9 		ldp	x21, x22, [sp, 16]
AARCH64 GAS  C:\Users\A01169~1\AppData\Local\Temp\cclmDoLY.s 			page 24


 1307 11e8 FE1340F9 		ldr	x30, [sp, 32]
 1308 11ec FFC30891 		add	sp, sp, 560
 1309 11f0 C0035FD6 		ret
 1310              		.p2align 2
 1311              	.L233:
 1312 11f4 E3EF4379 		ldrh	w3, [sp, 502]
 1313 11f8 02008052 		mov	w2, 0
 1314 11fc E0F34379 		ldrh	w0, [sp, 504]
 1315 1200 E1C30091 		add	x1, sp, 48
 1316 1204 604000AA 		orr	x0, x3, x0, lsl 16
 1317 1208 806E00B9 		str	w0, [x20, 108]
 1318 120c 31FFFF97 		bl	sdTransferBlocks.constprop.7
 1319 1210 E0C34039 		ldrb	w0, [sp, 48]
 1320 1214 00781E12 		and	w0, w0, -3
 1321 1218 001C0012 		and	w0, w0, 255
 1322 121c 1FA40371 		cmp	w0, 233
 1323 1220 E1FDFF54 		bne	.L231
 1324 1224 1F2003D5 		.p2align 3
 1325              	.L207:
 1326 1228 E21F40F9 		ldr	x2, [sp, 56]
 1327 122c 84220091 		add	x4, x20, 8
 1328 1230 E14340B9 		ldr	w1, [sp, 64]
 1329 1234 E3F74039 		ldrb	w3, [sp, 61]
 1330 1238 E57F4079 		ldrh	w5, [sp, 62]
 1331 123c 429C58D3 		ubfx	x2, x2, 24, 16
 1332 1240 E68F4079 		ldrh	w6, [sp, 70]
 1333 1244 215C48D3 		ubfx	x1, x1, 8, 16
 1334 1248 83880A29 		stp	w3, w2, [x4, 84]
 1335 124c 856800B9 		str	w5, [x4, 104]
 1336 1250 2100062A 		orr	w1, w1, w6
 1337 1254 E0034139 		ldrb	w0, [sp, 64]
 1338 1258 E25340B9 		ldr	w2, [sp, 80]
 1339 125c 61020035 		cbnz	w1, .L234
 1340 1260 E15740B9 		ldr	w1, [sp, 84]
 1341 1264 4200054B 		sub	w2, w2, w5
 1342 1268 E64F40B9 		ldr	w6, [sp, 76]
 1343 126c E35F40B9 		ldr	w3, [sp, 92]
 1344 1270 A500060B 		add	w5, w5, w6
 1345 1274 835000B9 		str	w3, [x4, 80]
 1346 1278 007C011B 		mul	w0, w0, w1
 1347 127c 4200004B 		sub	w2, w2, w0
 1348 1280 A000000B 		add	w0, w5, w0
 1349 1284 80880B29 		stp	w0, w2, [x4, 92]
 1350 1288 930300B4 		cbz	x19, .L230
 1351 128c E23B40F9 		ldr	x2, [sp, 112]
 1352 1290 E1DF0191 		add	x1, sp, 119
 1353 1294 00000090 		adrp	x0, .LC10
 1354 1298 00000091 		add	x0, x0, :lo12:.LC10
 1355 129c 42DC58D3 		ubfx	x2, x2, 24, 32
 1356 12a0 60023FD6 		blr	x19
 1357 12a4 23000014 		b	.L209
 1358              		.p2align 2
 1359              	.L234:
 1360 12a8 816440B9 		ldr	w1, [x4, 100]
 1361 12ac 007C061B 		mul	w0, w0, w6
 1362 12b0 42840051 		sub	w2, w2, #33
 1363 12b4 45008052 		mov	w5, 2
AARCH64 GAS  C:\Users\A01169~1\AppData\Local\Temp\cclmDoLY.s 			page 25


 1364 12b8 21040011 		add	w1, w1, 1
 1365 12bc 4200004B 		sub	w2, w2, w0
 1366 12c0 2000000B 		add	w0, w1, w0
 1367 12c4 E15B4139 		ldrb	w1, [sp, 86]
 1368 12c8 855000B9 		str	w5, [x4, 80]
 1369 12cc 80880B29 		stp	w0, w2, [x4, 92]
 1370 12d0 3FA40071 		cmp	w1, 41
 1371 12d4 E0010054 		beq	.L235
 1372 12d8 130100B4 		cbz	x19, .L230
 1373 12dc 4308C31A 		udiv	w3, w2, w3
 1374 12e0 440080D2 		mov	x4, 2
 1375              	.L212:
 1376 12e4 E103002A 		uxtw	x1, w0
 1377 12e8 E203022A 		uxtw	x2, w2
 1378 12ec 00000090 		adrp	x0, .LC12
 1379 12f0 00000091 		add	x0, x0, :lo12:.LC12
 1380 12f4 60023FD6 		blr	x19
 1381              	.L230:
 1382 12f8 20008052 		mov	w0, 1
 1383 12fc F35340A9 		ldp	x19, x20, [sp]
 1384 1300 F55B41A9 		ldp	x21, x22, [sp, 16]
 1385 1304 FE1340F9 		ldr	x30, [sp, 32]
 1386 1308 FFC30891 		add	sp, sp, 560
 1387 130c C0035FD6 		ret
 1388              		.p2align 2
 1389              	.L235:
 1390 1310 53FFFFB4 		cbz	x19, .L230
 1391 1314 E35B40B9 		ldr	w3, [sp, 88]
 1392 1318 00000090 		adrp	x0, .LC11
 1393 131c 00000091 		add	x0, x0, :lo12:.LC11
 1394 1320 E25F4139 		ldrb	w2, [sp, 87]
 1395 1324 E16F0191 		add	x1, sp, 91
 1396 1328 4220032A 		orr	w2, w2, w3, lsl 8
 1397 132c 60023FD6 		blr	x19
 1398              	.L209:
 1399 1330 840E4B29 		ldp	w4, w3, [x20, 88]
 1400 1334 808A4C29 		ldp	w0, w2, [x20, 100]
 1401 1338 4308C31A 		udiv	w3, w2, w3
 1402 133c EAFFFF17 		b	.L212
 1403              		.p2align 2
 1404              	.L232:
 1405 1340 A10240F9 		ldr	x1, [x21, #:lo12:.LANCHOR0]
 1406 1344 C1F4FFB4 		cbz	x1, .L231
 1407 1348 00000090 		adrp	x0, .LC8
 1408 134c 00000091 		add	x0, x0, :lo12:.LC8
 1409 1350 20003FD6 		blr	x1
 1410 1354 A2FFFF17 		b	.L231
 1411              		.size	LoadDrivePartition, .-LoadDrivePartition
 1412              		.align	2
 1413 1358 1F2003D5 		.p2align 4,,15
 1413      1F2003D5 
 1414              		.global	sdTransferBlocks
 1415              		.type	sdTransferBlocks, %function
 1416              	sdTransferBlocks:
 1417 1360 F353BAA9 		stp	x19, x20, [sp, -96]!
 1418 1364 741C0012 		and	w20, w3, 255
 1419 1368 F55B01A9 		stp	x21, x22, [sp, 16]
AARCH64 GAS  C:\Users\A01169~1\AppData\Local\Temp\cclmDoLY.s 			page 26


 1420 136c F76302A9 		stp	x23, x24, [sp, 32]
 1421 1370 18000090 		adrp	x24, .LANCHOR0
 1422 1374 15030091 		add	x21, x24, :lo12:.LANCHOR0
 1423 1378 A34240B9 		ldr	w3, [x21, 64]
 1424 137c FE2B00F9 		str	x30, [sp, 80]
 1425 1380 23070034 		cbz	w3, .L257
 1426 1384 F303012A 		mov	w19, w1
 1427 1388 F96B03A9 		stp	x25, x26, [sp, 48]
 1428 138c F90302AA 		mov	x25, x2
 1429 1390 FB7304A9 		stp	x27, x28, [sp, 64]
 1430 1394 FB03002A 		mov	w27, w0
 1431 1398 1AFBFF97 		bl	sdWaitForData
 1432 139c C0150035 		cbnz	w0, .L258
 1433 13a0 E82F00FD 		str	d8, [sp, 88]
 1434 13a4 74050034 		cbz	w20, .L298
 1435 13a8 7F060071 		cmp	w19, 1
 1436 13ac 40070054 		beq	.L262
 1437 13b0 0806000F 		movi	v8.2s, 0x10
 1438 13b4 1C3C80D2 		mov	x28, 480
 1439              	.L255:
 1440 13b8 16000090 		adrp	x22, .LANCHOR1
 1441 13bc D6020091 		add	x22, x22, :lo12:.LANCHOR1
 1442 13c0 7F060071 		cmp	w19, 1
 1443 13c4 E9000054 		bls	.L240
 1444 13c8 A02E40B9 		ldr	w0, [x21, 44]
 1445 13cc 16000090 		adrp	x22, .LANCHOR1
 1446 13d0 D6020091 		add	x22, x22, :lo12:.LANCHOR1
 1447 13d4 006458D3 		ubfx	x0, x0, 24, 2
 1448 13d8 1F080071 		cmp	w0, 2
 1449 13dc E0140054 		beq	.L299
 1450              	.L240:
 1451 13e0 1A000090 		adrp	x26, RPi_IO_Base_Addr
 1452 13e4 420340B9 		ldr	w2, [x26, #:lo12:RPi_IO_Base_Addr]
 1453 13e8 A04240B9 		ldr	w0, [x21, 64]
 1454 13ec 04408052 		mov	w4, 512
 1455 13f0 42004C11 		add	w2, w2, 3145728
 1456 13f4 615B1753 		lsl	w1, w27, 9
 1457 13f8 42100011 		add	w2, w2, 4
 1458 13fc 1F0C0071 		cmp	w0, 3
 1459 1400 21009B1A 		csel	w1, w1, w27, eq
 1460 1404 C0021C8B 		add	x0, x22, x28
 1461 1408 430040B9 		ldr	w3, [x2]
 1462 140c 633E1033 		bfi	w3, w19, 16, 16
 1463 1410 430000B9 		str	w3, [x2]
 1464 1414 430040B9 		ldr	w3, [x2]
 1465 1418 83240033 		bfi	w3, w4, 0, 10
 1466 141c 430000B9 		str	w3, [x2]
 1467 1420 94FCFF97 		bl	sdSendCommandP
 1468 1424 F703002A 		mov	w23, w0
 1469 1428 00040034 		cbz	w0, .L300
 1470              	.L296:
 1471 142c E003172A 		mov	w0, w23
 1472 1430 E82F40FD 		ldr	d8, [sp, 88]
 1473 1434 F55B41A9 		ldp	x21, x22, [sp, 16]
 1474 1438 F76342A9 		ldp	x23, x24, [sp, 32]
 1475 143c F96B43A9 		ldp	x25, x26, [sp, 48]
 1476 1440 FB7344A9 		ldp	x27, x28, [sp, 64]
AARCH64 GAS  C:\Users\A01169~1\AppData\Local\Temp\cclmDoLY.s 			page 27


 1477 1444 FE2B40F9 		ldr	x30, [sp, 80]
 1478 1448 F353C6A8 		ldp	x19, x20, [sp], 96
 1479 144c C0035FD6 		ret
 1480              	.L298:
 1481 1450 7F060071 		cmp	w19, 1
 1482 1454 60010054 		beq	.L263
 1483 1458 0804010F 		movi	v8.2s, 0x20
 1484 145c 1C2D80D2 		mov	x28, 360
 1485 1460 D6FFFF17 		b	.L255
 1486              	.L257:
 1487 1464 B7008052 		mov	w23, 5
 1488              	.L236:
 1489 1468 E003172A 		mov	w0, w23
 1490 146c F55B41A9 		ldp	x21, x22, [sp, 16]
 1491 1470 F76342A9 		ldp	x23, x24, [sp, 32]
 1492 1474 FE2B40F9 		ldr	x30, [sp, 80]
 1493 1478 F353C6A8 		ldp	x19, x20, [sp], 96
 1494 147c C0035FD6 		ret
 1495              	.L263:
 1496 1480 16000090 		adrp	x22, .LANCHOR1
 1497 1484 D6020091 		add	x22, x22, :lo12:.LANCHOR1
 1498 1488 0804010F 		movi	v8.2s, 0x20
 1499 148c 1C2A80D2 		mov	x28, 336
 1500 1490 D4FFFF17 		b	.L240
 1501              	.L262:
 1502 1494 16000090 		adrp	x22, .LANCHOR1
 1503 1498 D6020091 		add	x22, x22, :lo12:.LANCHOR1
 1504 149c 0806000F 		movi	v8.2s, 0x10
 1505 14a0 1C3980D2 		mov	x28, 456
 1506 14a4 CFFFFF17 		b	.L240
 1507              	.L300:
 1508 14a8 1B048052 		mov	w27, 32
 1509 14ac 1B06A072 		movk	w27, 0x30, lsl 16
 1510 14b0 39030891 		add	x25, x25, 512
 1511 14b4 5A030091 		add	x26, x26, :lo12:RPi_IO_Base_Addr
 1512 14b8 1C008052 		mov	w28, 0
 1513 14bc B30E0034 		cbz	w19, .L301
 1514              		.p2align 3
 1515              	.L247:
 1516 14c0 0001261E 		fmov	w0, s8
 1517 14c4 1BFBFF97 		bl	sdWaitForInterrupt
 1518 14c8 800A0035 		cbnz	w0, .L302
 1519 14cc 200308D1 		sub	x0, x25, #512
 1520 14d0 1F0440F2 		tst	x0, 3
 1521 14d4 00070054 		beq	.L243
 1522 14d8 14050035 		cbnz	w20, .L244
 1523 14dc 1F2003D5 		.p2align 3
 1524              	.L245:
 1525 14e0 410340B9 		ldr	w1, [x26]
 1526 14e4 00040091 		add	x0, x0, 1
 1527 14e8 21001B0B 		add	w1, w1, w27
 1528 14ec 220040B9 		ldr	w2, [x1]
 1529 14f0 02F01F38 		strb	w2, [x0, -1]
 1530 14f4 437C0853 		lsr	w3, w2, 8
 1531 14f8 417C1053 		lsr	w1, w2, 16
 1532 14fc 427C1853 		lsr	w2, w2, 24
 1533 1500 03000039 		strb	w3, [x0]
AARCH64 GAS  C:\Users\A01169~1\AppData\Local\Temp\cclmDoLY.s 			page 28


 1534 1504 01040039 		strb	w1, [x0, 1]
 1535 1508 02080039 		strb	w2, [x0, 2]
 1536 150c 1F0019EB 		cmp	x0, x25
 1537 1510 81FEFF54 		bne	.L245
 1538              	.L246:
 1539 1514 9C070011 		add	w28, w28, 1
 1540 1518 39030891 		add	x25, x25, 512
 1541 151c 7F021C6B 		cmp	w19, w28
 1542 1520 01FDFF54 		bne	.L247
 1543              	.L303:
 1544 1524 940B0035 		cbnz	w20, .L256
 1545              	.L251:
 1546 1528 7F060071 		cmp	w19, 1
 1547 152c 09F8FF54 		bls	.L296
 1548 1530 B5220091 		add	x21, x21, 8
 1549 1534 A02640B9 		ldr	w0, [x21, 36]
 1550 1538 006458D3 		ubfx	x0, x0, 24, 2
 1551 153c 1F080071 		cmp	w0, 2
 1552 1540 60F7FF54 		beq	.L296
 1553 1544 C0124439 		ldrb	w0, [x22, 260]
 1554 1548 01008052 		mov	w1, 0
 1555 154c 40000036 		tbz	x0, 0, .L252
 1556 1550 A13E40B9 		ldr	w1, [x21, 60]
 1557              	.L252:
 1558 1554 C0C20391 		add	x0, x22, 240
 1559 1558 E82F40FD 		ldr	d8, [sp, 88]
 1560 155c F55B41A9 		ldp	x21, x22, [sp, 16]
 1561 1560 F76342A9 		ldp	x23, x24, [sp, 32]
 1562 1564 F96B43A9 		ldp	x25, x26, [sp, 48]
 1563 1568 FB7344A9 		ldp	x27, x28, [sp, 64]
 1564 156c FE2B40F9 		ldr	x30, [sp, 80]
 1565 1570 F353C6A8 		ldp	x19, x20, [sp], 96
 1566 1574 3FFCFF17 		b	sdSendCommandP
 1567              		.p2align 2
 1568              	.L244:
 1569 1578 04084039 		ldrb	w4, [x0, 2]
 1570 157c 00040091 		add	x0, x0, 1
 1571 1580 410340B9 		ldr	w1, [x26]
 1572 1584 02004039 		ldrb	w2, [x0]
 1573 1588 03084039 		ldrb	w3, [x0, 2]
 1574 158c 21001B0B 		add	w1, w1, w27
 1575 1590 05F05F38 		ldrb	w5, [x0, -1]
 1576 1594 843C1053 		lsl	w4, w4, 16
 1577 1598 8220022A 		orr	w2, w4, w2, lsl 8
 1578 159c 1F0019EB 		cmp	x0, x25
 1579 15a0 A360032A 		orr	w3, w5, w3, lsl 24
 1580 15a4 4200032A 		orr	w2, w2, w3
 1581 15a8 220000B9 		str	w2, [x1]
 1582 15ac 61FEFF54 		bne	.L244
 1583 15b0 D9FFFF17 		b	.L246
 1584              	.L243:
 1585 15b4 94010035 		cbnz	w20, .L249
 1586              		.p2align 3
 1587              	.L250:
 1588 15b8 410340B9 		ldr	w1, [x26]
 1589 15bc 21001B0B 		add	w1, w1, w27
 1590 15c0 210040B9 		ldr	w1, [x1]
AARCH64 GAS  C:\Users\A01169~1\AppData\Local\Temp\cclmDoLY.s 			page 29


 1591 15c4 014400B8 		str	w1, [x0], 4
 1592 15c8 3F0300EB 		cmp	x25, x0
 1593 15cc 61FFFF54 		bne	.L250
 1594 15d0 9C070011 		add	w28, w28, 1
 1595 15d4 39030891 		add	x25, x25, 512
 1596 15d8 7F021C6B 		cmp	w19, w28
 1597 15dc 21F7FF54 		bne	.L247
 1598 15e0 D1FFFF17 		b	.L303
 1599              		.p2align 2
 1600              	.L249:
 1601 15e4 410340B9 		ldr	w1, [x26]
 1602 15e8 024440B8 		ldr	w2, [x0], 4
 1603 15ec 21001B0B 		add	w1, w1, w27
 1604 15f0 3F0300EB 		cmp	x25, x0
 1605 15f4 220000B9 		str	w2, [x1]
 1606 15f8 E0F8FF54 		beq	.L246
 1607 15fc 410340B9 		ldr	w1, [x26]
 1608 1600 024440B8 		ldr	w2, [x0], 4
 1609 1604 21001B0B 		add	w1, w1, w27
 1610 1608 3F0300EB 		cmp	x25, x0
 1611 160c 220000B9 		str	w2, [x1]
 1612 1610 A1FEFF54 		bne	.L249
 1613 1614 C0FFFF17 		b	.L246
 1614              	.L302:
 1615 1618 010340F9 		ldr	x1, [x24, #:lo12:.LANCHOR0]
 1616 161c F703002A 		mov	w23, w0
 1617 1620 61F0FFB4 		cbz	x1, .L296
 1618 1624 00000090 		adrp	x0, .LC8
 1619 1628 00000091 		add	x0, x0, :lo12:.LC8
 1620 162c 20003FD6 		blr	x1
 1621 1630 E003172A 		mov	w0, w23
 1622 1634 E82F40FD 		ldr	d8, [sp, 88]
 1623 1638 F55B41A9 		ldp	x21, x22, [sp, 16]
 1624 163c F76342A9 		ldp	x23, x24, [sp, 32]
 1625 1640 F96B43A9 		ldp	x25, x26, [sp, 48]
 1626 1644 FB7344A9 		ldp	x27, x28, [sp, 64]
 1627 1648 FE2B40F9 		ldr	x30, [sp, 80]
 1628 164c F353C6A8 		ldp	x19, x20, [sp], 96
 1629 1650 C0035FD6 		ret
 1630              	.L258:
 1631 1654 57008052 		mov	w23, 2
 1632 1658 E003172A 		mov	w0, w23
 1633 165c F55B41A9 		ldp	x21, x22, [sp, 16]
 1634 1660 F76342A9 		ldp	x23, x24, [sp, 32]
 1635 1664 F96B43A9 		ldp	x25, x26, [sp, 48]
 1636 1668 FB7344A9 		ldp	x27, x28, [sp, 64]
 1637 166c FE2B40F9 		ldr	x30, [sp, 80]
 1638 1670 F353C6A8 		ldp	x19, x20, [sp], 96
 1639 1674 C0035FD6 		ret
 1640              	.L299:
 1641 1678 E103132A 		mov	w1, w19
 1642 167c C0C20691 		add	x0, x22, 432
 1643 1680 FCFBFF97 		bl	sdSendCommandP
 1644 1684 F703002A 		mov	w23, w0
 1645 1688 C0EAFF34 		cbz	w0, .L240
 1646 168c 68FFFF17 		b	.L296
 1647              	.L301:
AARCH64 GAS  C:\Users\A01169~1\AppData\Local\Temp\cclmDoLY.s 			page 30


 1648 1690 F4ECFF34 		cbz	w20, .L296
 1649              	.L256:
 1650 1694 40008052 		mov	w0, 2
 1651 1698 A6FAFF97 		bl	sdWaitForInterrupt
 1652 169c 60F4FF34 		cbz	w0, .L251
 1653 16a0 010340F9 		ldr	x1, [x24, #:lo12:.LANCHOR0]
 1654 16a4 F703002A 		mov	w23, w0
 1655 16a8 21ECFFB4 		cbz	x1, .L296
 1656 16ac 00000090 		adrp	x0, .LC9
 1657 16b0 00000091 		add	x0, x0, :lo12:.LC9
 1658 16b4 20003FD6 		blr	x1
 1659 16b8 F96B43A9 		ldp	x25, x26, [sp, 48]
 1660 16bc FB7344A9 		ldp	x27, x28, [sp, 64]
 1661 16c0 E82F40FD 		ldr	d8, [sp, 88]
 1662 16c4 69FFFF17 		b	.L236
 1663              		.size	sdTransferBlocks, .-sdTransferBlocks
 1664              		.align	2
 1665 16c8 1F2003D5 		.p2align 4,,15
 1665      1F2003D5 
 1666              		.global	sdClearBlocks
 1667              		.type	sdClearBlocks, %function
 1668              	sdClearBlocks:
 1669 16d0 F353BCA9 		stp	x19, x20, [sp, -64]!
 1670 16d4 F403002A 		mov	w20, w0
 1671 16d8 F55B01A9 		stp	x21, x22, [sp, 16]
 1672 16dc F77B02A9 		stp	x23, x30, [sp, 32]
 1673 16e0 16000090 		adrp	x22, .LANCHOR0
 1674 16e4 D7020091 		add	x23, x22, :lo12:.LANCHOR0
 1675 16e8 F3220091 		add	x19, x23, 8
 1676 16ec E13F00B9 		str	w1, [sp, 60]
 1677 16f0 603A40B9 		ldr	w0, [x19, 56]
 1678 16f4 80060034 		cbz	w0, .L313
 1679 16f8 42FAFF97 		bl	sdWaitForData
 1680 16fc E13F40B9 		ldr	w1, [sp, 60]
 1681 1700 20080035 		cbnz	w0, .L310
 1682 1704 603A40B9 		ldr	w0, [x19, 56]
 1683 1708 9502010B 		add	w21, w20, w1
 1684 170c 1F0C0071 		cmp	w0, 3
 1685 1710 60060054 		beq	.L322
 1686 1714 13000090 		adrp	x19, .LANCHOR1
 1687 1718 73020091 		add	x19, x19, :lo12:.LANCHOR1
 1688 171c E103142A 		mov	w1, w20
 1689 1720 60620991 		add	x0, x19, 600
 1690 1724 D3FBFF97 		bl	sdSendCommandP
 1691 1728 F403002A 		mov	w20, w0
 1692 172c 20040035 		cbnz	w0, .L304
 1693              	.L324:
 1694 1730 E103152A 		mov	w1, w21
 1695 1734 60C20991 		add	x0, x19, 624
 1696 1738 CEFBFF97 		bl	sdSendCommandP
 1697 173c F403002A 		mov	w20, w0
 1698 1740 80030035 		cbnz	w0, .L304
 1699 1744 60724A39 		ldrb	w0, [x19, 668]
 1700 1748 01008052 		mov	w1, 0
 1701 174c 40000036 		tbz	x0, 0, .L308
 1702 1750 E14640B9 		ldr	w1, [x23, 68]
 1703              	.L308:
AARCH64 GAS  C:\Users\A01169~1\AppData\Local\Temp\cclmDoLY.s 			page 31


 1704 1754 60220A91 		add	x0, x19, 648
 1705 1758 C6FBFF97 		bl	sdSendCommandP
 1706 175c F403002A 		mov	w20, w0
 1707 1760 80020035 		cbnz	w0, .L304
 1708 1764 17000090 		adrp	x23, RPi_IO_Base_Addr
 1709 1768 E00240B9 		ldr	w0, [x23, #:lo12:RPi_IO_Base_Addr]
 1710 176c 95048052 		mov	w21, 36
 1711 1770 1506A072 		movk	w21, 0x30, lsl 16
 1712 1774 0000150B 		add	w0, w0, w21
 1713 1778 F3478852 		mov	w19, 16959
 1714 177c F301A072 		movk	w19, 0xf, lsl 16
 1715 1780 F7020091 		add	x23, x23, :lo12:RPi_IO_Base_Addr
 1716 1784 000040B9 		ldr	w0, [x0]
 1717 1788 80000837 		tbnz	x0, 1, .L309
 1718 178c 09000014 		b	.L304
 1719              		.p2align 2
 1720              	.L311:
 1721 1790 73060071 		subs	w19, w19, #1
 1722 1794 40040054 		beq	.L323
 1723              	.L309:
 1724 1798 400180D2 		mov	x0, 10
 1725 179c 00000094 		bl	timer_wait
 1726 17a0 E00240B9 		ldr	w0, [x23]
 1727 17a4 0100150B 		add	w1, w0, w21
 1728 17a8 220040B9 		ldr	w2, [x1]
 1729 17ac 22FF0F37 		tbnz	x2, 1, .L311
 1730              	.L304:
 1731 17b0 E003142A 		mov	w0, w20
 1732 17b4 F55B41A9 		ldp	x21, x22, [sp, 16]
 1733 17b8 F77B42A9 		ldp	x23, x30, [sp, 32]
 1734 17bc F353C4A8 		ldp	x19, x20, [sp], 64
 1735 17c0 C0035FD6 		ret
 1736              		.p2align 2
 1737              	.L313:
 1738 17c4 B4008052 		mov	w20, 5
 1739 17c8 E003142A 		mov	w0, w20
 1740 17cc F55B41A9 		ldp	x21, x22, [sp, 16]
 1741 17d0 F77B42A9 		ldp	x23, x30, [sp, 32]
 1742 17d4 F353C4A8 		ldp	x19, x20, [sp], 64
 1743 17d8 C0035FD6 		ret
 1744              		.p2align 2
 1745              	.L322:
 1746 17dc 945A1753 		lsl	w20, w20, 9
 1747 17e0 13000090 		adrp	x19, .LANCHOR1
 1748 17e4 73020091 		add	x19, x19, :lo12:.LANCHOR1
 1749 17e8 E103142A 		mov	w1, w20
 1750 17ec 60620991 		add	x0, x19, 600
 1751 17f0 B55A1753 		lsl	w21, w21, 9
 1752 17f4 9FFBFF97 		bl	sdSendCommandP
 1753 17f8 F403002A 		mov	w20, w0
 1754 17fc A0F9FF34 		cbz	w0, .L324
 1755 1800 ECFFFF17 		b	.L304
 1756              		.p2align 2
 1757              	.L310:
 1758 1804 54008052 		mov	w20, 2
 1759 1808 E003142A 		mov	w0, w20
 1760 180c F55B41A9 		ldp	x21, x22, [sp, 16]
AARCH64 GAS  C:\Users\A01169~1\AppData\Local\Temp\cclmDoLY.s 			page 32


 1761 1810 F77B42A9 		ldp	x23, x30, [sp, 32]
 1762 1814 F353C4A8 		ldp	x19, x20, [sp], 64
 1763 1818 C0035FD6 		ret
 1764              	.L323:
 1765 181c C30240F9 		ldr	x3, [x22, #:lo12:.LANCHOR0]
 1766 1820 23FFFFB4 		cbz	x3, .L310
 1767 1824 E2870C32 		mov	w2, 3145776
 1768 1828 0200020B 		add	w2, w0, w2
 1769 182c 210040B9 		ldr	w1, [x1]
 1770 1830 00000090 		adrp	x0, .LC13
 1771 1834 54008052 		mov	w20, 2
 1772 1838 00000091 		add	x0, x0, :lo12:.LC13
 1773 183c 420040B9 		ldr	w2, [x2]
 1774 1840 60003FD6 		blr	x3
 1775 1844 DBFFFF17 		b	.L304
 1776              		.size	sdClearBlocks, .-sdClearBlocks
 1777              		.align	2
 1778 1848 1F2003D5 		.p2align 4,,15
 1778      1F2003D5 
 1779              		.global	getSetNextCluster
 1780              		.type	getSetNextCluster, %function
 1781              	getSetNextCluster:
 1782 1850 FF8309D1 		sub	sp, sp, #608
 1783 1854 00741E53 		lsl	w0, w0, 2
 1784 1858 F55B01A9 		stp	x21, x22, [sp, 16]
 1785 185c F76302A9 		stp	x23, x24, [sp, 32]
 1786 1860 16000090 		adrp	x22, .LANCHOR0
 1787 1864 D7020091 		add	x23, x22, :lo12:.LANCHOR0
 1788 1868 F35300A9 		stp	x19, x20, [sp]
 1789 186c F4220091 		add	x20, x23, 8
 1790 1870 935A40B9 		ldr	w19, [x20, 88]
 1791 1874 F96B03A9 		stp	x25, x26, [sp, 48]
 1792 1878 391C0012 		and	w25, w1, 255
 1793 187c 813A40B9 		ldr	w1, [x20, 56]
 1794 1880 FE2B00F9 		str	x30, [sp, 80]
 1795 1884 1508D31A 		udiv	w21, w0, w19
 1796 1888 B382131B 		msub	w19, w21, w19, w0
 1797 188c 41070034 		cbz	w1, .L328
 1798 1890 F803022A 		mov	w24, w2
 1799 1894 FB7304A9 		stp	x27, x28, [sp, 64]
 1800 1898 9AEE4C29 		ldp	w26, w27, [x20, 100]
 1801 189c D9F9FF97 		bl	sdWaitForData
 1802 18a0 80060035 		cbnz	w0, .L366
 1803 18a4 1C000090 		adrp	x28, RPi_IO_Base_Addr
 1804 18a8 830340B9 		ldr	w3, [x28, #:lo12:RPi_IO_Base_Addr]
 1805 18ac 803A40B9 		ldr	w0, [x20, 56]
 1806 18b0 04408052 		mov	w4, 512
 1807 18b4 63004C11 		add	w3, w3, 3145728
 1808 18b8 54031B0B 		add	w20, w26, w27
 1809 18bc 63100011 		add	w3, w3, 4
 1810 18c0 9402150B 		add	w20, w20, w21
 1811 18c4 1F0C0071 		cmp	w0, 3
 1812 18c8 1A000090 		adrp	x26, .LANCHOR1
 1813 18cc 5A030091 		add	x26, x26, :lo12:.LANCHOR1
 1814 18d0 815A1753 		lsl	w1, w20, 9
 1815 18d4 620040B9 		ldr	w2, [x3]
 1816 18d8 2100941A 		csel	w1, w1, w20, eq
AARCH64 GAS  C:\Users\A01169~1\AppData\Local\Temp\cclmDoLY.s 			page 33


 1817 18dc 40430591 		add	x0, x26, 336
 1818 18e0 423C0012 		and	w2, w2, 65535
 1819 18e4 42001032 		orr	w2, w2, 65536
 1820 18e8 620000B9 		str	w2, [x3]
 1821 18ec 620040B9 		ldr	w2, [x3]
 1822 18f0 82240033 		bfi	w2, w4, 0, 10
 1823 18f4 620000B9 		str	w2, [x3]
 1824 18f8 5EFBFF97 		bl	sdSendCommandP
 1825 18fc A0030035 		cbnz	w0, .L366
 1826 1900 00048052 		mov	w0, 32
 1827 1904 0BFAFF97 		bl	sdWaitForInterrupt
 1828 1908 E0020035 		cbnz	w0, .L336
 1829 190c 810340B9 		ldr	w1, [x28, #:lo12:RPi_IO_Base_Addr]
 1830 1910 E3830191 		add	x3, sp, 96
 1831 1914 F50303AA 		mov	x21, x3
 1832 1918 E00303AA 		mov	x0, x3
 1833 191c 21004C11 		add	w1, w1, 3145728
 1834 1920 FB830991 		add	x27, sp, 608
 1835 1924 21800011 		add	w1, w1, 32
 1836              		.p2align 3
 1837              	.L331:
 1838 1928 220040B9 		ldr	w2, [x1]
 1839 192c 024400B8 		str	w2, [x0], 4
 1840 1930 7F0300EB 		cmp	x27, x0
 1841 1934 A1FFFF54 		bne	.L331
 1842 1938 19030035 		cbnz	w25, .L332
 1843 193c 614873B8 		ldr	w1, [x3, w19, uxtw]
 1844 1940 F35340A9 		ldp	x19, x20, [sp]
 1845 1944 E003012A 		mov	w0, w1
 1846 1948 F55B41A9 		ldp	x21, x22, [sp, 16]
 1847 194c F76342A9 		ldp	x23, x24, [sp, 32]
 1848 1950 F96B43A9 		ldp	x25, x26, [sp, 48]
 1849 1954 FB7344A9 		ldp	x27, x28, [sp, 64]
 1850 1958 FE2B40F9 		ldr	x30, [sp, 80]
 1851 195c FF830991 		add	sp, sp, 608
 1852 1960 C0035FD6 		ret
 1853              		.p2align 2
 1854              	.L336:
 1855 1964 C10240F9 		ldr	x1, [x22, #:lo12:.LANCHOR0]
 1856 1968 E10700B5 		cbnz	x1, .L369
 1857 196c 1F2003D5 		.p2align 3
 1858              	.L366:
 1859 1970 FB7344A9 		ldp	x27, x28, [sp, 64]
 1860              	.L328:
 1861 1974 01008012 		mov	w1, -1
 1862              	.L325:
 1863 1978 E003012A 		mov	w0, w1
 1864 197c F35340A9 		ldp	x19, x20, [sp]
 1865 1980 F55B41A9 		ldp	x21, x22, [sp, 16]
 1866 1984 F76342A9 		ldp	x23, x24, [sp, 32]
 1867 1988 F96B43A9 		ldp	x25, x26, [sp, 48]
 1868 198c FE2B40F9 		ldr	x30, [sp, 80]
 1869 1990 FF830991 		add	sp, sp, 608
 1870 1994 C0035FD6 		ret
 1871              		.p2align 2
 1872              	.L332:
 1873 1998 E04240B9 		ldr	w0, [x23, 64]
AARCH64 GAS  C:\Users\A01169~1\AppData\Local\Temp\cclmDoLY.s 			page 34


 1874 199c F7220091 		add	x23, x23, 8
 1875 19a0 784833B8 		str	w24, [x3, w19, uxtw]
 1876 19a4 60FEFF34 		cbz	w0, .L366
 1877 19a8 96F9FF97 		bl	sdWaitForData
 1878 19ac 20FEFF35 		cbnz	w0, .L366
 1879 19b0 820340B9 		ldr	w2, [x28, #:lo12:RPi_IO_Base_Addr]
 1880 19b4 04408052 		mov	w4, 512
 1881 19b8 E33A40B9 		ldr	w3, [x23, 56]
 1882 19bc 815A1753 		lsl	w1, w20, 9
 1883 19c0 42004C11 		add	w2, w2, 3145728
 1884 19c4 40230791 		add	x0, x26, 456
 1885 19c8 42100011 		add	w2, w2, 4
 1886 19cc 7F0C0071 		cmp	w3, 3
 1887 19d0 2100941A 		csel	w1, w1, w20, eq
 1888 19d4 430040B9 		ldr	w3, [x2]
 1889 19d8 633C0012 		and	w3, w3, 65535
 1890 19dc 63001032 		orr	w3, w3, 65536
 1891 19e0 430000B9 		str	w3, [x2]
 1892 19e4 430040B9 		ldr	w3, [x2]
 1893 19e8 83240033 		bfi	w3, w4, 0, 10
 1894 19ec 430000B9 		str	w3, [x2]
 1895 19f0 20FBFF97 		bl	sdSendCommandP
 1896 19f4 E0FBFF35 		cbnz	w0, .L366
 1897 19f8 00028052 		mov	w0, 16
 1898 19fc CDF9FF97 		bl	sdWaitForInterrupt
 1899 1a00 20FBFF35 		cbnz	w0, .L336
 1900 1a04 02000090 		adrp	x2, RPi_IO_Base_Addr
 1901 1a08 42000091 		add	x2, x2, :lo12:RPi_IO_Base_Addr
 1902 1a0c 03048052 		mov	w3, 32
 1903 1a10 0306A072 		movk	w3, 0x30, lsl 16
 1904 1a14 1F2003D5 		.p2align 3
 1905              	.L335:
 1906 1a18 400040B9 		ldr	w0, [x2]
 1907 1a1c A14640B8 		ldr	w1, [x21], 4
 1908 1a20 0000030B 		add	w0, w0, w3
 1909 1a24 7F0315EB 		cmp	x27, x21
 1910 1a28 010000B9 		str	w1, [x0]
 1911 1a2c 61FFFF54 		bne	.L335
 1912 1a30 40008052 		mov	w0, 2
 1913 1a34 BFF9FF97 		bl	sdWaitForInterrupt
 1914 1a38 01008052 		mov	w1, 0
 1915 1a3c 00020035 		cbnz	w0, .L370
 1916 1a40 E003012A 		mov	w0, w1
 1917 1a44 F35340A9 		ldp	x19, x20, [sp]
 1918 1a48 F55B41A9 		ldp	x21, x22, [sp, 16]
 1919 1a4c F76342A9 		ldp	x23, x24, [sp, 32]
 1920 1a50 F96B43A9 		ldp	x25, x26, [sp, 48]
 1921 1a54 FB7344A9 		ldp	x27, x28, [sp, 64]
 1922 1a58 FE2B40F9 		ldr	x30, [sp, 80]
 1923 1a5c FF830991 		add	sp, sp, 608
 1924 1a60 C0035FD6 		ret
 1925              		.p2align 2
 1926              	.L369:
 1927 1a64 00000090 		adrp	x0, .LC8
 1928 1a68 00000091 		add	x0, x0, :lo12:.LC8
 1929 1a6c 20003FD6 		blr	x1
 1930 1a70 01008012 		mov	w1, -1
AARCH64 GAS  C:\Users\A01169~1\AppData\Local\Temp\cclmDoLY.s 			page 35


 1931 1a74 FB7344A9 		ldp	x27, x28, [sp, 64]
 1932 1a78 C0FFFF17 		b	.L325
 1933              		.p2align 2
 1934              	.L370:
 1935 1a7c C10240F9 		ldr	x1, [x22, #:lo12:.LANCHOR0]
 1936 1a80 81F7FFB4 		cbz	x1, .L366
 1937 1a84 00000090 		adrp	x0, .LC9
 1938 1a88 00000091 		add	x0, x0, :lo12:.LC9
 1939 1a8c 20003FD6 		blr	x1
 1940 1a90 01008012 		mov	w1, -1
 1941 1a94 FB7344A9 		ldp	x27, x28, [sp, 64]
 1942 1a98 B8FFFF17 		b	.L325
 1943              		.size	getSetNextCluster, .-getSetNextCluster
 1944              		.align	2
 1945 1a9c 1F2003D5 		.p2align 4,,15
 1946              		.global	WildcardMatch
 1947              		.type	WildcardMatch, %function
 1948              	WildcardMatch:
 1949 1aa0 F353BCA9 		stp	x19, x20, [sp, -64]!
 1950 1aa4 F55B01A9 		stp	x21, x22, [sp, 16]
 1951 1aa8 F50300AA 		mov	x21, x0
 1952 1aac F60301AA 		mov	x22, x1
 1953 1ab0 F76302A9 		stp	x23, x24, [sp, 32]
 1954 1ab4 170080D2 		mov	x23, 0
 1955 1ab8 180080D2 		mov	x24, 0
 1956 1abc F97B03A9 		stp	x25, x30, [sp, 48]
 1957              		.p2align 3
 1958              	.L372:
 1959 1ac0 D3024039 		ldrb	w19, [x22]
 1960 1ac4 00000094 		bl	__locale_ctype_ptr
 1961 1ac8 B4024039 		ldrb	w20, [x21]
 1962 1acc 61820051 		sub	w1, w19, #32
 1963 1ad0 0000338B 		add	x0, x0, x19, uxtb
 1964 1ad4 00044039 		ldrb	w0, [x0, 1]
 1965 1ad8 00040012 		and	w0, w0, 3
 1966 1adc 1F080071 		cmp	w0, 2
 1967 1ae0 2100931A 		csel	w1, w1, w19, eq
 1968 1ae4 21080034 		cbz	w1, .L418
 1969 1ae8 9FFE0071 		cmp	w20, 63
 1970 1aec B3060091 		add	x19, x21, 1
 1971 1af0 40090054 		beq	.L390
 1972              	.L422:
 1973 1af4 C9060054 		bls	.L419
 1974 1af8 9F6E0171 		cmp	w20, 91
 1975 1afc C0040054 		beq	.L377
 1976 1b00 9F720171 		cmp	w20, 92
 1977 1b04 81000054 		bne	.L376
 1978 1b08 B4064039 		ldrb	w20, [x21, 1]
 1979 1b0c B30A0091 		add	x19, x21, 2
 1980 1b10 14030034 		cbz	w20, .L380
 1981              	.L376:
 1982 1b14 D9024039 		ldrb	w25, [x22]
 1983 1b18 00000094 		bl	__locale_ctype_ptr
 1984 1b1c 35830051 		sub	w21, w25, #32
 1985 1b20 0000398B 		add	x0, x0, x25, uxtb
 1986 1b24 00044039 		ldrb	w0, [x0, 1]
 1987 1b28 00040012 		and	w0, w0, 3
AARCH64 GAS  C:\Users\A01169~1\AppData\Local\Temp\cclmDoLY.s 			page 36


 1988 1b2c 1F080071 		cmp	w0, 2
 1989 1b30 B502991A 		csel	w21, w21, w25, eq
 1990 1b34 00000094 		bl	__locale_ctype_ptr
 1991 1b38 00C0348B 		add	x0, x0, x20, sxtw
 1992 1b3c 82820051 		sub	w2, w20, #32
 1993 1b40 C1024039 		ldrb	w1, [x22]
 1994 1b44 00044039 		ldrb	w0, [x0, 1]
 1995 1b48 00040012 		and	w0, w0, 3
 1996 1b4c 1F080071 		cmp	w0, 2
 1997 1b50 5400941A 		csel	w20, w2, w20, eq
 1998 1b54 BF02146B 		cmp	w21, w20
 1999 1b58 A0060054 		beq	.L420
 2000 1b5c A1000034 		cbz	w1, .L380
 2001 1b60 F7060091 		add	x23, x23, 1
 2002 1b64 F50318AA 		mov	x21, x24
 2003 1b68 F60317AA 		mov	x22, x23
 2004 1b6c B5FAFFB5 		cbnz	x21, .L372
 2005              		.p2align 3
 2006              	.L380:
 2007 1b70 00008052 		mov	w0, 0
 2008              	.L389:
 2009 1b74 F55B41A9 		ldp	x21, x22, [sp, 16]
 2010 1b78 F76342A9 		ldp	x23, x24, [sp, 32]
 2011 1b7c F97B43A9 		ldp	x25, x30, [sp, 48]
 2012 1b80 F353C4A8 		ldp	x19, x20, [sp], 64
 2013 1b84 C0035FD6 		ret
 2014              		.p2align 2
 2015              	.L379:
 2016 1b88 60064039 		ldrb	w0, [x19, 1]
 2017 1b8c 730A0091 		add	x19, x19, 2
 2018 1b90 00FFFF34 		cbz	w0, .L380
 2019              	.L377:
 2020 1b94 60024039 		ldrb	w0, [x19]
 2021 1b98 1F740171 		cmp	w0, 93
 2022 1b9c 00010054 		beq	.L421
 2023              	.L382:
 2024 1ba0 1F700171 		cmp	w0, 92
 2025 1ba4 20FFFF54 		beq	.L379
 2026 1ba8 73060091 		add	x19, x19, 1
 2027 1bac 20FEFF34 		cbz	w0, .L380
 2028 1bb0 60024039 		ldrb	w0, [x19]
 2029 1bb4 1F740171 		cmp	w0, 93
 2030 1bb8 41FFFF54 		bne	.L382
 2031              	.L421:
 2032 1bbc F7060091 		add	x23, x23, 1
 2033 1bc0 F50318AA 		mov	x21, x24
 2034 1bc4 F60317AA 		mov	x22, x23
 2035 1bc8 15000014 		b	.L373
 2036              		.p2align 2
 2037              	.L419:
 2038 1bcc 9FAA0071 		cmp	w20, 42
 2039 1bd0 21FAFF54 		bne	.L376
 2040 1bd4 F80313AA 		mov	x24, x19
 2041 1bd8 F70316AA 		mov	x23, x22
 2042 1bdc F50313AA 		mov	x21, x19
 2043 1be0 15F7FFB5 		cbnz	x21, .L372
 2044 1be4 E3FFFF17 		b	.L380
AARCH64 GAS  C:\Users\A01169~1\AppData\Local\Temp\cclmDoLY.s 			page 37


 2045              		.p2align 2
 2046              	.L418:
 2047 1be8 00000094 		bl	__locale_ctype_ptr
 2048 1bec 0000348B 		add	x0, x0, x20, uxtb
 2049 1bf0 81820051 		sub	w1, w20, #32
 2050 1bf4 00044039 		ldrb	w0, [x0, 1]
 2051 1bf8 00040012 		and	w0, w0, 3
 2052 1bfc 1F080071 		cmp	w0, 2
 2053 1c00 3400941A 		csel	w20, w1, w20, eq
 2054 1c04 14020034 		cbz	w20, .L393
 2055 1c08 B4024039 		ldrb	w20, [x21]
 2056 1c0c B3060091 		add	x19, x21, 1
 2057 1c10 9FFE0071 		cmp	w20, 63
 2058 1c14 01F7FF54 		bne	.L422
 2059              	.L390:
 2060 1c18 F50313AA 		mov	x21, x19
 2061              	.L373:
 2062 1c1c C0164038 		ldrb	w0, [x22], 1
 2063 1c20 80FAFF34 		cbz	w0, .L380
 2064 1c24 F5F4FFB5 		cbnz	x21, .L372
 2065 1c28 D2FFFF17 		b	.L380
 2066              		.p2align 2
 2067              	.L420:
 2068 1c2c 3F000071 		cmp	w1, 0
 2069 1c30 F50313AA 		mov	x21, x19
 2070 1c34 E0079F1A 		cset	w0, ne
 2071 1c38 D602008B 		add	x22, x22, x0
 2072 1c3c 35F4FFB5 		cbnz	x21, .L372
 2073 1c40 CCFFFF17 		b	.L380
 2074              	.L393:
 2075 1c44 20008052 		mov	w0, 1
 2076 1c48 CBFFFF17 		b	.L389
 2077              		.size	WildcardMatch, .-WildcardMatch
 2078              		.align	2
 2079 1c4c 1F2003D5 		.p2align 4,,15
 2080              		.type	LocateFATEntry, %function
 2081              	LocateFATEntry:
 2082 1c50 F353B7A9 		stp	x19, x20, [sp, -144]!
 2083 1c54 541C0012 		and	w20, w2, 255
 2084 1c58 F3030291 		add	x19, sp, 128
 2085 1c5c F96B03A9 		stp	x25, x26, [sp, 48]
 2086 1c60 FA0303AA 		mov	x26, x3
 2087 1c64 FB7304A9 		stp	x27, x28, [sp, 64]
 2088 1c68 FB0301AA 		mov	x27, x1
 2089 1c6c 19008052 		mov	w25, 0
 2090 1c70 F55B01A9 		stp	x21, x22, [sp, 16]
 2091 1c74 F76302A9 		stp	x23, x24, [sp, 32]
 2092 1c78 FE2B00F9 		str	x30, [sp, 80]
 2093 1c7c E82F00FD 		str	d8, [sp, 88]
 2094 1c80 0800679E 		fmov	d8, x0
 2095 1c84 E43700F9 		str	x4, [sp, 104]
 2096              	.L424:
 2097 1c88 600340B9 		ldr	w0, [x27]
 2098 1c8c 81FE9F52 		mov	w1, 65524
 2099 1c90 E1FFA172 		movk	w1, 0xfff, lsl 16
 2100 1c94 00040051 		sub	w0, w0, #1
 2101 1c98 1F00016B 		cmp	w0, w1
AARCH64 GAS  C:\Users\A01169~1\AppData\Local\Temp\cclmDoLY.s 			page 38


 2102 1c9c 68360054 		bhi	.L461
 2103 1ca0 17000090 		adrp	x23, .LANCHOR1
 2104 1ca4 F7020091 		add	x23, x23, :lo12:.LANCHOR1
 2105 1ca8 E0420591 		add	x0, x23, 336
 2106 1cac E03B00F9 		str	x0, [sp, 112]
 2107 1cb0 00000090 		adrp	x0, .LANCHOR0
 2108 1cb4 00000091 		add	x0, x0, :lo12:.LANCHOR0
 2109 1cb8 7C0B40B9 		ldr	w28, [x27, 8]
 2110 1cbc 025C40B9 		ldr	w2, [x0, 92]
 2111              	.L462:
 2112 1cc0 9F03026B 		cmp	w28, w2
 2113 1cc4 62310054 		bcs	.L458
 2114 1cc8 600F40B9 		ldr	w0, [x27, 12]
 2115 1ccc 1FFC0771 		cmp	w0, 511
 2116 1cd0 48110054 		bhi	.L459
 2117 1cd4 E103002A 		uxtw	x1, w0
 2118 1cd8 21400091 		add	x1, x1, 16
 2119 1cdc 7C03018B 		add	x28, x27, x1
 2120 1ce0 616B6138 		ldrb	w1, [x27, x1]
 2121 1ce4 61090034 		cbz	w1, .L460
 2122 1ce8 37008052 		mov	w23, 1
 2123 1cec 1F2003D5 		.p2align 3
 2124              	.L425:
 2125 1cf0 3F940371 		cmp	w1, 229
 2126 1cf4 C0070054 		beq	.L427
 2127 1cf8 862F4039 		ldrb	w6, [x28, 11]
 2128 1cfc DF200071 		cmp	w6, 8
 2129 1d00 60070054 		beq	.L427
 2130 1d04 DF3C0071 		cmp	w6, 15
 2131 1d08 20160054 		beq	.L540
 2132 1d0c 190A0035 		cbnz	w25, .L434
 2133 1d10 3F800071 		cmp	w1, 32
 2134 1d14 202D0054 		beq	.L466
 2135 1d18 41030039 		strb	w1, [x26]
 2136 1d1c 80074039 		ldrb	w0, [x28, 1]
 2137 1d20 01781A12 		and	w1, w0, -33
 2138 1d24 81260034 		cbz	w1, .L541
 2139 1d28 40070039 		strb	w0, [x26, 1]
 2140 1d2c 800B4039 		ldrb	w0, [x28, 2]
 2141 1d30 01781A12 		and	w1, w0, -33
 2142 1d34 E1260034 		cbz	w1, .L542
 2143 1d38 400B0039 		strb	w0, [x26, 2]
 2144 1d3c 800F4039 		ldrb	w0, [x28, 3]
 2145 1d40 01781A12 		and	w1, w0, -33
 2146 1d44 41270034 		cbz	w1, .L543
 2147 1d48 400F0039 		strb	w0, [x26, 3]
 2148 1d4c 80134039 		ldrb	w0, [x28, 4]
 2149 1d50 01781A12 		and	w1, w0, -33
 2150 1d54 A1270034 		cbz	w1, .L544
 2151 1d58 40130039 		strb	w0, [x26, 4]
 2152 1d5c 80174039 		ldrb	w0, [x28, 5]
 2153 1d60 01781A12 		and	w1, w0, -33
 2154 1d64 01280034 		cbz	w1, .L545
 2155 1d68 40170039 		strb	w0, [x26, 5]
 2156 1d6c 801B4039 		ldrb	w0, [x28, 6]
 2157 1d70 01781A12 		and	w1, w0, -33
 2158 1d74 61280034 		cbz	w1, .L546
AARCH64 GAS  C:\Users\A01169~1\AppData\Local\Temp\cclmDoLY.s 			page 39


 2159 1d78 401B0039 		strb	w0, [x26, 6]
 2160 1d7c 811F4039 		ldrb	w1, [x28, 7]
 2161 1d80 20781A12 		and	w0, w1, -33
 2162 1d84 C0280034 		cbz	w0, .L547
 2163 1d88 40230091 		add	x0, x26, 8
 2164 1d8c 8A0180D2 		mov	x10, 12
 2165 1d90 260180D2 		mov	x6, 9
 2166 1d94 690180D2 		mov	x9, 11
 2167 1d98 470180D2 		mov	x7, 10
 2168 1d9c 19018052 		mov	w25, 8
 2169 1da0 411F0039 		strb	w1, [x26, 7]
 2170              	.L435:
 2171 1da4 14050035 		cbnz	w20, .L471
 2172 1da8 C1058052 		mov	w1, 46
 2173 1dac 01000039 		strb	w1, [x0]
 2174 1db0 4003068B 		add	x0, x26, x6
 2175 1db4 812F4039 		ldrb	w1, [x28, 11]
 2176 1db8 3F400071 		cmp	w1, 16
 2177 1dbc 41070054 		bne	.L548
 2178              		.p2align 3
 2179              	.L447:
 2180 1dc0 1F000039 		strb	wzr, [x0]
 2181 1dc4 802F4039 		ldrb	w0, [x28, 11]
 2182 1dc8 1F200071 		cmp	w0, 8
 2183 1dcc C0000054 		beq	.L539
 2184 1dd0 0001669E 		fmov	x0, d8
 2185 1dd4 E1031AAA 		mov	x1, x26
 2186 1dd8 00000094 		bl	WildcardMatch
 2187 1ddc 1F1C0072 		tst	w0, 255
 2188 1de0 81270054 		bne	.L449
 2189              	.L539:
 2190 1de4 600F40B9 		ldr	w0, [x27, 12]
 2191 1de8 19008052 		mov	w25, 0
 2192              	.L427:
 2193 1dec 00800011 		add	w0, w0, 32
 2194 1df0 600F00B9 		str	w0, [x27, 12]
 2195 1df4 1FFC0771 		cmp	w0, 511
 2196 1df8 88070054 		bhi	.L549
 2197 1dfc E103002A 		uxtw	x1, w0
 2198 1e00 21400091 		add	x1, x1, 16
 2199 1e04 7C03018B 		add	x28, x27, x1
 2200 1e08 616B6138 		ldrb	w1, [x27, x1]
 2201 1e0c 21F7FF35 		cbnz	w1, .L425
 2202              	.L460:
 2203 1e10 E13740F9 		ldr	x1, [sp, 104]
 2204 1e14 20008052 		mov	w0, 1
 2205 1e18 1C0080D2 		mov	x28, 0
 2206 1e1c 200000B9 		str	w0, [x1]
 2207              	.L423:
 2208 1e20 E0031CAA 		mov	x0, x28
 2209 1e24 E82F40FD 		ldr	d8, [sp, 88]
 2210 1e28 F55B41A9 		ldp	x21, x22, [sp, 16]
 2211 1e2c F76342A9 		ldp	x23, x24, [sp, 32]
 2212 1e30 F96B43A9 		ldp	x25, x26, [sp, 48]
 2213 1e34 FB7344A9 		ldp	x27, x28, [sp, 64]
 2214 1e38 FE2B40F9 		ldr	x30, [sp, 80]
 2215 1e3c F353C9A8 		ldp	x19, x20, [sp], 144
AARCH64 GAS  C:\Users\A01169~1\AppData\Local\Temp\cclmDoLY.s 			page 40


 2216 1e40 C0035FD6 		ret
 2217              		.p2align 2
 2218              	.L471:
 2219 1e44 19008052 		mov	w25, 0
 2220 1e48 DEFFFF17 		b	.L447
 2221              		.p2align 2
 2222              	.L434:
 2223 1e4c E01F8052 		mov	w0, 255
 2224 1e50 06008052 		mov	w6, 0
 2225 1e54 0700194B 		sub	w7, w0, w25
 2226 1e58 000080D2 		mov	x0, 0
 2227 1e5c 1F2003D5 		.p2align 3
 2228              	.L444:
 2229 1e60 E100000B 		add	w1, w7, w0
 2230 1e64 414B6138 		ldrb	w1, [x26, w1, uxtw]
 2231 1e68 416B2038 		strb	w1, [x26, x0]
 2232 1e6c 00040091 		add	x0, x0, 1
 2233 1e70 3FB80071 		cmp	w1, 46
 2234 1e74 C610971A 		csel	w6, w6, w23, ne
 2235 1e78 3F03006B 		cmp	w25, w0
 2236 1e7c 28FFFF54 		bhi	.L444
 2237 1e80 DF000071 		cmp	w6, 0
 2238 1e84 4043398B 		add	x0, x26, x25, uxtw
 2239 1e88 800A407A 		ccmp	w20, 0, 0, eq
 2240 1e8c C1FDFF54 		bne	.L471
 2241 1e90 20070011 		add	w0, w25, 1
 2242 1e94 C1058052 		mov	w1, 46
 2243 1e98 4003008B 		add	x0, x26, x0
 2244 1e9c 414B3938 		strb	w1, [x26, w25, uxtw]
 2245 1ea0 C8FFFF17 		b	.L447
 2246              		.p2align 2
 2247              	.L548:
 2248 1ea4 81234039 		ldrb	w1, [x28, 8]
 2249 1ea8 24781A12 		and	w4, w1, -33
 2250 1eac C4FCFF34 		cbz	w4, .L471
 2251 1eb0 01000039 		strb	w1, [x0]
 2252 1eb4 4003078B 		add	x0, x26, x7
 2253 1eb8 81274039 		ldrb	w1, [x28, 9]
 2254 1ebc 24781A12 		and	w4, w1, -33
 2255 1ec0 24FCFF34 		cbz	w4, .L471
 2256 1ec4 416B2738 		strb	w1, [x26, x7]
 2257 1ec8 4003098B 		add	x0, x26, x9
 2258 1ecc 812B4039 		ldrb	w1, [x28, 10]
 2259 1ed0 24781A12 		and	w4, w1, -33
 2260 1ed4 84FBFF34 		cbz	w4, .L471
 2261 1ed8 40030A8B 		add	x0, x26, x10
 2262 1edc 19008052 		mov	w25, 0
 2263 1ee0 416B2938 		strb	w1, [x26, x9]
 2264 1ee4 B7FFFF17 		b	.L447
 2265              		.p2align 2
 2266              	.L549:
 2267 1ee8 00000090 		adrp	x0, .LANCHOR0
 2268 1eec 00000091 		add	x0, x0, :lo12:.LANCHOR0
 2269 1ef0 7C0B40B9 		ldr	w28, [x27, 8]
 2270 1ef4 025C40B9 		ldr	w2, [x0, 92]
 2271              	.L459:
 2272 1ef8 9C070011 		add	w28, w28, 1
AARCH64 GAS  C:\Users\A01169~1\AppData\Local\Temp\cclmDoLY.s 			page 41


 2273 1efc 7C0B00B9 		str	w28, [x27, 8]
 2274 1f00 9F03026B 		cmp	w28, w2
 2275 1f04 E2EDFF54 		bcs	.L462
 2276 1f08 00000090 		adrp	x0, .LANCHOR0
 2277 1f0c 00000091 		add	x0, x0, :lo12:.LANCHOR0
 2278 1f10 17200091 		add	x23, x0, 8
 2279 1f14 004040B9 		ldr	w0, [x0, 64]
 2280 1f18 7F0F00B9 		str	wzr, [x27, 12]
 2281 1f1c E0200034 		cbz	w0, .L456
 2282 1f20 750740B9 		ldr	w21, [x27, 4]
 2283 1f24 37F8FF97 		bl	sdWaitForData
 2284 1f28 80200035 		cbnz	w0, .L456
 2285 1f2c 00000090 		adrp	x0, RPi_IO_Base_Addr
 2286 1f30 16000091 		add	x22, x0, :lo12:RPi_IO_Base_Addr
 2287 1f34 E63A40B9 		ldr	w6, [x23, 56]
 2288 1f38 8103150B 		add	w1, w28, w21
 2289 1f3c 020040B9 		ldr	w2, [x0, #:lo12:RPi_IO_Base_Addr]
 2290 1f40 07408052 		mov	w7, 512
 2291 1f44 DF0C0071 		cmp	w6, 3
 2292 1f48 20581753 		lsl	w0, w1, 9
 2293 1f4c 42004C11 		add	w2, w2, 3145728
 2294 1f50 0100811A 		csel	w1, w0, w1, eq
 2295 1f54 42100011 		add	w2, w2, 4
 2296 1f58 E03B40F9 		ldr	x0, [sp, 112]
 2297 1f5c 460040B9 		ldr	w6, [x2]
 2298 1f60 C63C0012 		and	w6, w6, 65535
 2299 1f64 C6001032 		orr	w6, w6, 65536
 2300 1f68 460000B9 		str	w6, [x2]
 2301 1f6c 460040B9 		ldr	w6, [x2]
 2302 1f70 E6240033 		bfi	w6, w7, 0, 10
 2303 1f74 460000B9 		str	w6, [x2]
 2304 1f78 BEF9FF97 		bl	sdSendCommandP
 2305 1f7c E01D0035 		cbnz	w0, .L456
 2306 1f80 00048052 		mov	w0, 32
 2307 1f84 6BF8FF97 		bl	sdWaitForInterrupt
 2308 1f88 201E0035 		cbnz	w0, .L550
 2309 1f8c 61430091 		add	x1, x27, 16
 2310 1f90 66430891 		add	x6, x27, 528
 2311 1f94 02048052 		mov	w2, 32
 2312 1f98 0206A072 		movk	w2, 0x30, lsl 16
 2313 1f9c 1F2003D5 		.p2align 3
 2314              	.L457:
 2315 1fa0 C00240B9 		ldr	w0, [x22]
 2316 1fa4 0000020B 		add	w0, w0, w2
 2317 1fa8 000040B9 		ldr	w0, [x0]
 2318 1fac 204400B8 		str	w0, [x1], 4
 2319 1fb0 DF0001EB 		cmp	x6, x1
 2320 1fb4 61FFFF54 		bne	.L457
 2321 1fb8 00000090 		adrp	x0, .LANCHOR0
 2322 1fbc 00000091 		add	x0, x0, :lo12:.LANCHOR0
 2323 1fc0 7C0B40B9 		ldr	w28, [x27, 8]
 2324 1fc4 025C40B9 		ldr	w2, [x0, 92]
 2325 1fc8 3EFFFF17 		b	.L462
 2326              		.p2align 2
 2327              	.L540:
 2328 1fcc F50313AA 		mov	x21, x19
 2329 1fd0 96070091 		add	x22, x28, 1
AARCH64 GAS  C:\Users\A01169~1\AppData\Local\Temp\cclmDoLY.s 			page 42


 2330 1fd4 18008052 		mov	w24, 0
 2331 1fd8 FF4300F9 		str	xzr, [sp, 128]
 2332 1fdc FF8B00B9 		str	wzr, [sp, 136]
 2333 1fe0 FF1B0179 		strh	wzr, [sp, 140]
 2334 1fe4 1F2003D5 		.p2align 3
 2335              	.L430:
 2336 1fe8 C0064039 		ldrb	w0, [x22, 1]
 2337 1fec EA0315AA 		mov	x10, x21
 2338 1ff0 C9024039 		ldrb	w9, [x22]
 2339 1ff4 2021002A 		orr	w0, w9, w0, lsl 8
 2340 1ff8 E00B0035 		cbnz	w0, .L551
 2341              	.L429:
 2342 1ffc 5F010039 		strb	wzr, [x10]
 2343 2000 580B0034 		cbz	w24, .L433
 2344 2004 E01F8052 		mov	w0, 255
 2345 2008 0000194B 		sub	w0, w0, w25
 2346 200c 0000184B 		sub	w0, w0, w24
 2347 2010 E2034239 		ldrb	w2, [sp, 128]
 2348 2014 1F070071 		cmp	w24, 1
 2349 2018 424B2038 		strb	w2, [x26, w0, uxtw]
 2350 201c 600A0054 		beq	.L433
 2351 2020 00208052 		mov	w0, 256
 2352 2024 0000194B 		sub	w0, w0, w25
 2353 2028 0000184B 		sub	w0, w0, w24
 2354 202c E2074239 		ldrb	w2, [sp, 129]
 2355 2030 1F0B0071 		cmp	w24, 2
 2356 2034 424B2038 		strb	w2, [x26, w0, uxtw]
 2357 2038 80090054 		beq	.L433
 2358 203c 20208052 		mov	w0, 257
 2359 2040 0000194B 		sub	w0, w0, w25
 2360 2044 0000184B 		sub	w0, w0, w24
 2361 2048 E20B4239 		ldrb	w2, [sp, 130]
 2362 204c 1F0F0071 		cmp	w24, 3
 2363 2050 424B2038 		strb	w2, [x26, w0, uxtw]
 2364 2054 A0080054 		beq	.L433
 2365 2058 40208052 		mov	w0, 258
 2366 205c 0000194B 		sub	w0, w0, w25
 2367 2060 0000184B 		sub	w0, w0, w24
 2368 2064 E20F4239 		ldrb	w2, [sp, 131]
 2369 2068 1F130071 		cmp	w24, 4
 2370 206c 424B2038 		strb	w2, [x26, w0, uxtw]
 2371 2070 C0070054 		beq	.L433
 2372 2074 60208052 		mov	w0, 259
 2373 2078 0000194B 		sub	w0, w0, w25
 2374 207c 0000184B 		sub	w0, w0, w24
 2375 2080 E2134239 		ldrb	w2, [sp, 132]
 2376 2084 1F170071 		cmp	w24, 5
 2377 2088 424B2038 		strb	w2, [x26, w0, uxtw]
 2378 208c E0060054 		beq	.L433
 2379 2090 80208052 		mov	w0, 260
 2380 2094 0000194B 		sub	w0, w0, w25
 2381 2098 0000184B 		sub	w0, w0, w24
 2382 209c E2174239 		ldrb	w2, [sp, 133]
 2383 20a0 1F1B0071 		cmp	w24, 6
 2384 20a4 424B2038 		strb	w2, [x26, w0, uxtw]
 2385 20a8 00060054 		beq	.L433
 2386 20ac A0208052 		mov	w0, 261
AARCH64 GAS  C:\Users\A01169~1\AppData\Local\Temp\cclmDoLY.s 			page 43


 2387 20b0 0000194B 		sub	w0, w0, w25
 2388 20b4 0000184B 		sub	w0, w0, w24
 2389 20b8 E21B4239 		ldrb	w2, [sp, 134]
 2390 20bc 1F1F0071 		cmp	w24, 7
 2391 20c0 424B2038 		strb	w2, [x26, w0, uxtw]
 2392 20c4 20050054 		beq	.L433
 2393 20c8 C0208052 		mov	w0, 262
 2394 20cc 0000194B 		sub	w0, w0, w25
 2395 20d0 0000184B 		sub	w0, w0, w24
 2396 20d4 E21F4239 		ldrb	w2, [sp, 135]
 2397 20d8 1F230071 		cmp	w24, 8
 2398 20dc 424B2038 		strb	w2, [x26, w0, uxtw]
 2399 20e0 40040054 		beq	.L433
 2400 20e4 E0208052 		mov	w0, 263
 2401 20e8 0000194B 		sub	w0, w0, w25
 2402 20ec 0000184B 		sub	w0, w0, w24
 2403 20f0 E2234239 		ldrb	w2, [sp, 136]
 2404 20f4 1F270071 		cmp	w24, 9
 2405 20f8 424B2038 		strb	w2, [x26, w0, uxtw]
 2406 20fc 60030054 		beq	.L433
 2407 2100 00218052 		mov	w0, 264
 2408 2104 0000194B 		sub	w0, w0, w25
 2409 2108 0000184B 		sub	w0, w0, w24
 2410 210c E2274239 		ldrb	w2, [sp, 137]
 2411 2110 1F2B0071 		cmp	w24, 10
 2412 2114 424B2038 		strb	w2, [x26, w0, uxtw]
 2413 2118 80020054 		beq	.L433
 2414 211c 20218052 		mov	w0, 265
 2415 2120 0000194B 		sub	w0, w0, w25
 2416 2124 0000184B 		sub	w0, w0, w24
 2417 2128 E22B4239 		ldrb	w2, [sp, 138]
 2418 212c 1F2F0071 		cmp	w24, 11
 2419 2130 424B2038 		strb	w2, [x26, w0, uxtw]
 2420 2134 A0010054 		beq	.L433
 2421 2138 40218052 		mov	w0, 266
 2422 213c 0000194B 		sub	w0, w0, w25
 2423 2140 0000184B 		sub	w0, w0, w24
 2424 2144 E22F4239 		ldrb	w2, [sp, 139]
 2425 2148 1F370071 		cmp	w24, 13
 2426 214c 424B2038 		strb	w2, [x26, w0, uxtw]
 2427 2150 C1000054 		bne	.L433
 2428 2154 60218052 		mov	w0, 267
 2429 2158 0000194B 		sub	w0, w0, w25
 2430 215c 0000184B 		sub	w0, w0, w24
 2431 2160 E2334239 		ldrb	w2, [sp, 140]
 2432 2164 424B2038 		strb	w2, [x26, w0, uxtw]
 2433              	.L433:
 2434 2168 3903180B 		add	w25, w25, w24
 2435 216c 600F40B9 		ldr	w0, [x27, 12]
 2436 2170 1FFFFF17 		b	.L427
 2437              		.p2align 2
 2438              	.L551:
 2439 2174 00000094 		bl	wctob
 2440 2178 A0160038 		strb	w0, [x21], 1
 2441 217c 01070011 		add	w1, w24, 1
 2442 2180 D60A0091 		add	x22, x22, 2
 2443 2184 381C0012 		and	w24, w1, 255
AARCH64 GAS  C:\Users\A01169~1\AppData\Local\Temp\cclmDoLY.s 			page 44


 2444 2188 1F170071 		cmp	w24, 5
 2445 218c E1F2FF54 		bne	.L430
 2446 2190 16008052 		mov	w22, 0
 2447 2194 02000014 		b	.L431
 2448              		.p2align 2
 2449              	.L463:
 2450 2198 F803062A 		mov	w24, w6
 2451              	.L431:
 2452 219c 86C7368B 		add	x6, x28, x22, sxtw 1
 2453 21a0 151F4092 		and	x21, x24, 255
 2454 21a4 6A02158B 		add	x10, x19, x21
 2455 21a8 CB384039 		ldrb	w11, [x6, 14]
 2456 21ac C03C4039 		ldrb	w0, [x6, 15]
 2457 21b0 6021002A 		orr	w0, w11, w0, lsl 8
 2458 21b4 40F2FF34 		cbz	w0, .L429
 2459 21b8 00000094 		bl	wctob
 2460 21bc 606A3538 		strb	w0, [x19, x21]
 2461 21c0 D6060011 		add	w22, w22, 1
 2462 21c4 06070011 		add	w6, w24, 1
 2463 21c8 DF1A0071 		cmp	w22, 6
 2464 21cc C61C0012 		and	w6, w6, 255
 2465 21d0 41FEFF54 		bne	.L463
 2466 21d4 89734039 		ldrb	w9, [x28, 28]
 2467 21d8 C71C4092 		and	x7, x6, 255
 2468 21dc 80774039 		ldrb	w0, [x28, 29]
 2469 21e0 6A02078B 		add	x10, x19, x7
 2470 21e4 2021002A 		orr	w0, w9, w0, lsl 8
 2471 21e8 A00C0035 		cbnz	w0, .L552
 2472              	.L465:
 2473 21ec F803062A 		mov	w24, w6
 2474 21f0 83FFFF17 		b	.L429
 2475              	.L541:
 2476 21f4 40070091 		add	x0, x26, 1
 2477 21f8 AA0080D2 		mov	x10, 5
 2478 21fc 460080D2 		mov	x6, 2
 2479 2200 890080D2 		mov	x9, 4
 2480 2204 670080D2 		mov	x7, 3
 2481 2208 39008052 		mov	w25, 1
 2482 220c E6FEFF17 		b	.L435
 2483              	.L542:
 2484 2210 400B0091 		add	x0, x26, 2
 2485 2214 CA0080D2 		mov	x10, 6
 2486 2218 660080D2 		mov	x6, 3
 2487 221c A90080D2 		mov	x9, 5
 2488 2220 870080D2 		mov	x7, 4
 2489 2224 59008052 		mov	w25, 2
 2490 2228 DFFEFF17 		b	.L435
 2491              	.L543:
 2492 222c 400F0091 		add	x0, x26, 3
 2493 2230 EA0080D2 		mov	x10, 7
 2494 2234 860080D2 		mov	x6, 4
 2495 2238 C90080D2 		mov	x9, 6
 2496 223c A70080D2 		mov	x7, 5
 2497 2240 79008052 		mov	w25, 3
 2498 2244 D8FEFF17 		b	.L435
 2499              	.L544:
 2500 2248 40130091 		add	x0, x26, 4
AARCH64 GAS  C:\Users\A01169~1\AppData\Local\Temp\cclmDoLY.s 			page 45


 2501 224c 0A0180D2 		mov	x10, 8
 2502 2250 A60080D2 		mov	x6, 5
 2503 2254 E90080D2 		mov	x9, 7
 2504 2258 C70080D2 		mov	x7, 6
 2505 225c 99008052 		mov	w25, 4
 2506 2260 D1FEFF17 		b	.L435
 2507              	.L545:
 2508 2264 40170091 		add	x0, x26, 5
 2509 2268 2A0180D2 		mov	x10, 9
 2510 226c C60080D2 		mov	x6, 6
 2511 2270 090180D2 		mov	x9, 8
 2512 2274 E70080D2 		mov	x7, 7
 2513 2278 B9008052 		mov	w25, 5
 2514 227c CAFEFF17 		b	.L435
 2515              	.L546:
 2516 2280 401B0091 		add	x0, x26, 6
 2517 2284 4A0180D2 		mov	x10, 10
 2518 2288 E60080D2 		mov	x6, 7
 2519 228c 290180D2 		mov	x9, 9
 2520 2290 070180D2 		mov	x7, 8
 2521 2294 D9008052 		mov	w25, 6
 2522 2298 C3FEFF17 		b	.L435
 2523              	.L547:
 2524 229c 401F0091 		add	x0, x26, 7
 2525 22a0 6A0180D2 		mov	x10, 11
 2526 22a4 060180D2 		mov	x6, 8
 2527 22a8 490180D2 		mov	x9, 10
 2528 22ac 270180D2 		mov	x7, 9
 2529 22b0 F9008052 		mov	w25, 7
 2530 22b4 BCFEFF17 		b	.L435
 2531              	.L466:
 2532 22b8 E0031AAA 		mov	x0, x26
 2533 22bc 8A0080D2 		mov	x10, 4
 2534 22c0 260080D2 		mov	x6, 1
 2535 22c4 690080D2 		mov	x9, 3
 2536 22c8 470080D2 		mov	x7, 2
 2537 22cc B6FEFF17 		b	.L435
 2538              	.L449:
 2539 22d0 59000034 		cbz	w25, .L450
 2540 22d4 5F4B3938 		strb	wzr, [x26, w25, uxtw]
 2541              	.L450:
 2542 22d8 600F40B9 		ldr	w0, [x27, 12]
 2543 22dc 00800011 		add	w0, w0, 32
 2544 22e0 600F00B9 		str	w0, [x27, 12]
 2545 22e4 E03740F9 		ldr	x0, [sp, 104]
 2546 22e8 1F0000B9 		str	wzr, [x0]
 2547 22ec CDFEFF17 		b	.L423
 2548              	.L458:
 2549 22f0 600340B9 		ldr	w0, [x27]
 2550 22f4 02008052 		mov	w2, 0
 2551 22f8 01008052 		mov	w1, 0
 2552 22fc 00000094 		bl	getSetNextCluster
 2553 2300 06080051 		sub	w6, w0, #2
 2554 2304 01000090 		adrp	x1, .LANCHOR0
 2555 2308 21000091 		add	x1, x1, :lo12:.LANCHOR0
 2556 230c 38200091 		add	x24, x1, 8
 2557 2310 02008052 		mov	w2, 0
AARCH64 GAS  C:\Users\A01169~1\AppData\Local\Temp\cclmDoLY.s 			page 46


 2558 2314 61430091 		add	x1, x27, 16
 2559 2318 075740B9 		ldr	w7, [x24, 84]
 2560 231c 600300B9 		str	w0, [x27]
 2561 2320 005F40B9 		ldr	w0, [x24, 92]
 2562 2324 7F0F00B9 		str	wzr, [x27, 12]
 2563 2328 C000071B 		madd	w0, w6, w7, w0
 2564 232c 60FF0029 		stp	w0, wzr, [x27, 4]
 2565 2330 E8FAFF97 		bl	sdTransferBlocks.constprop.7
 2566 2334 A0CAFF34 		cbz	w0, .L424
 2567              	.L456:
 2568 2338 E13740F9 		ldr	x1, [sp, 104]
 2569 233c 60008052 		mov	w0, 3
 2570 2340 1C0080D2 		mov	x28, 0
 2571 2344 200000B9 		str	w0, [x1]
 2572 2348 B6FEFF17 		b	.L423
 2573              	.L550:
 2574 234c 00000090 		adrp	x0, .LANCHOR0
 2575 2350 010040F9 		ldr	x1, [x0, #:lo12:.LANCHOR0]
 2576 2354 21FFFFB4 		cbz	x1, .L456
 2577 2358 00000090 		adrp	x0, .LC8
 2578 235c 00000091 		add	x0, x0, :lo12:.LC8
 2579 2360 20003FD6 		blr	x1
 2580 2364 F5FFFF17 		b	.L456
 2581              	.L461:
 2582 2368 E13740F9 		ldr	x1, [sp, 104]
 2583 236c 40008052 		mov	w0, 2
 2584 2370 1C0080D2 		mov	x28, 0
 2585 2374 200000B9 		str	w0, [x1]
 2586 2378 AAFEFF17 		b	.L423
 2587              		.p2align 2
 2588              	.L552:
 2589 237c E73F00F9 		str	x7, [sp, 120]
 2590 2380 00000094 		bl	wctob
 2591 2384 E73F40F9 		ldr	x7, [sp, 120]
 2592 2388 060B0011 		add	w6, w24, 2
 2593 238c C61C0012 		and	w6, w6, 255
 2594 2390 606A2738 		strb	w0, [x19, x7]
 2595 2394 C71C4092 		and	x7, x6, 255
 2596 2398 6A02078B 		add	x10, x19, x7
 2597 239c 897B4039 		ldrb	w9, [x28, 30]
 2598 23a0 807F4039 		ldrb	w0, [x28, 31]
 2599 23a4 2021002A 		orr	w0, w9, w0, lsl 8
 2600 23a8 20F2FF34 		cbz	w0, .L465
 2601 23ac E73F00F9 		str	x7, [sp, 120]
 2602 23b0 00000094 		bl	wctob
 2603 23b4 E73F40F9 		ldr	x7, [sp, 120]
 2604 23b8 010F0011 		add	w1, w24, 3
 2605 23bc 381C0012 		and	w24, w1, 255
 2606 23c0 6A02388B 		add	x10, x19, x24, uxtb
 2607 23c4 606A2738 		strb	w0, [x19, x7]
 2608 23c8 0DFFFF17 		b	.L429
 2609              		.size	LocateFATEntry, .-LocateFATEntry
 2610              		.align	2
 2611 23cc 1F2003D5 		.p2align 4,,15
 2612              		.global	sdFindFirstFile
 2613              		.type	sdFindFirstFile, %function
 2614              	sdFindFirstFile:
AARCH64 GAS  C:\Users\A01169~1\AppData\Local\Temp\cclmDoLY.s 			page 47


 2615 23d0 F353A7A9 		stp	x19, x20, [sp, -400]!
 2616 23d4 1F0000F1 		cmp	x0, 0
 2617 23d8 241840FA 		ccmp	x1, 0, 4, ne
 2618 23dc FE2B00F9 		str	x30, [sp, 80]
 2619 23e0 FF8F00B9 		str	wzr, [sp, 140]
 2620 23e4 A1000054 		bne	.L554
 2621              	.L568:
 2622 23e8 00008052 		mov	w0, 0
 2623              	.L553:
 2624 23ec FE2B40F9 		ldr	x30, [sp, 80]
 2625 23f0 F353D9A8 		ldp	x19, x20, [sp], 400
 2626 23f4 C0035FD6 		ret
 2627              		.p2align 2
 2628              	.L554:
 2629 23f8 F55B01A9 		stp	x21, x22, [sp, 16]
 2630 23fc F4430291 		add	x20, sp, 144
 2631 2400 E20314AA 		mov	x2, x20
 2632 2404 F76302A9 		stp	x23, x24, [sp, 32]
 2633 2408 F96B03A9 		stp	x25, x26, [sp, 48]
 2634 240c FB7304A9 		stp	x27, x28, [sp, 64]
 2635 2410 FB0301AA 		mov	x27, x1
 2636 2414 01004039 		ldrb	w1, [x0]
 2637 2418 A1000034 		cbz	w1, .L556
 2638 241c 1F2003D5 		.p2align 3
 2639              	.L557:
 2640 2420 41140038 		strb	w1, [x2], 1
 2641 2424 011C4038 		ldrb	w1, [x0, 1]!
 2642 2428 C1FFFF35 		cbnz	w1, .L557
 2643              	.L556:
 2644 242c 00000090 		adrp	x0, .LANCHOR0
 2645 2430 1A000091 		add	x26, x0, :lo12:.LANCHOR0
 2646 2434 5F000039 		strb	wzr, [x2]
 2647 2438 418740B9 		ldr	w1, [x26, 132]
 2648 243c E2434239 		ldrb	w2, [sp, 144]
 2649 2440 5F700171 		cmp	w2, 92
 2650 2444 9416949A 		cinc	x20, x20, eq
 2651 2448 41170034 		cbz	w1, .L603
 2652 244c 419743B9 		ldr	w1, [x26, 916]
 2653 2450 22008052 		mov	w2, 1
 2654 2454 E26F00B9 		str	w2, [sp, 108]
 2655 2458 C1000034 		cbz	w1, .L559
 2656 245c 40A746B9 		ldr	w0, [x26, 1700]
 2657 2460 1F000071 		cmp	w0, 0
 2658 2464 E0079F1A 		cset	w0, ne
 2659 2468 00080011 		add	w0, w0, 2
 2660 246c E06F00B9 		str	w0, [sp, 108]
 2661              	.L559:
 2662 2470 E06F40B9 		ldr	w0, [sp, 108]
 2663 2474 19628052 		mov	w25, 784
 2664 2478 197C399B 		smull	x25, w0, w25
 2665 247c 37430091 		add	x23, x25, 16
 2666              	.L560:
 2667 2480 E16F80B9 		ldrsw	x1, [sp, 108]
 2668 2484 006280D2 		mov	x0, 784
 2669 2488 441B4B29 		ldp	w4, w6, [x26, 88]
 2670 248c E13B00F9 		str	x1, [sp, 112]
 2671 2490 43030291 		add	x3, x26, 128
AARCH64 GAS  C:\Users\A01169~1\AppData\Local\Temp\cclmDoLY.s 			page 48


 2672 2494 454340B9 		ldr	w5, [x26, 64]
 2673 2498 207C009B 		mul	x0, x1, x0
 2674 249c 416740B9 		ldr	w1, [x26, 100]
 2675 24a0 95080051 		sub	w21, w4, #2
 2676 24a4 7700178B 		add	x23, x3, x23
 2677 24a8 6200008B 		add	x2, x3, x0
 2678 24ac B506061B 		madd	w21, w21, w6, w1
 2679 24b0 646820B8 		str	w4, [x3, x0]
 2680 24b4 550400B9 		str	w21, [x2, 4]
 2681 24b8 5F7C0129 		stp	wzr, wzr, [x2, 8]
 2682 24bc A50F0034 		cbz	w5, .L565
 2683 24c0 D0F6FF97 		bl	sdWaitForData
 2684 24c4 600F0035 		cbnz	w0, .L565
 2685 24c8 18000090 		adrp	x24, RPi_IO_Base_Addr
 2686 24cc 020340B9 		ldr	w2, [x24, #:lo12:RPi_IO_Base_Addr]
 2687 24d0 404340B9 		ldr	w0, [x26, 64]
 2688 24d4 04408052 		mov	w4, 512
 2689 24d8 42004C11 		add	w2, w2, 3145728
 2690 24dc A15A1753 		lsl	w1, w21, 9
 2691 24e0 42100011 		add	w2, w2, 4
 2692 24e4 1F0C0071 		cmp	w0, 3
 2693 24e8 00000090 		adrp	x0, .LANCHOR1
 2694 24ec 00000091 		add	x0, x0, :lo12:.LANCHOR1
 2695 24f0 E03F00F9 		str	x0, [sp, 120]
 2696 24f4 2100951A 		csel	w1, w1, w21, eq
 2697 24f8 430040B9 		ldr	w3, [x2]
 2698 24fc 00400591 		add	x0, x0, 336
 2699 2500 633C0012 		and	w3, w3, 65535
 2700 2504 63001032 		orr	w3, w3, 65536
 2701 2508 430000B9 		str	w3, [x2]
 2702 250c 430040B9 		ldr	w3, [x2]
 2703 2510 83240033 		bfi	w3, w4, 0, 10
 2704 2514 430000B9 		str	w3, [x2]
 2705 2518 56F8FF97 		bl	sdSendCommandP
 2706 251c A00C0035 		cbnz	w0, .L565
 2707 2520 00048052 		mov	w0, 32
 2708 2524 03F7FF97 		bl	sdWaitForInterrupt
 2709 2528 C0100035 		cbnz	w0, .L610
 2710 252c 010340B9 		ldr	w1, [x24, #:lo12:RPi_IO_Base_Addr]
 2711 2530 F6020891 		add	x22, x23, 512
 2712 2534 E00317AA 		mov	x0, x23
 2713 2538 21004C11 		add	w1, w1, 3145728
 2714 253c 21800011 		add	w1, w1, 32
 2715              		.p2align 3
 2716              	.L566:
 2717 2540 220040B9 		ldr	w2, [x1]
 2718 2544 024400B8 		str	w2, [x0], 4
 2719 2548 DF0200EB 		cmp	x22, x0
 2720 254c A1FFFF54 		bne	.L566
 2721 2550 E13B40F9 		ldr	x1, [sp, 112]
 2722 2554 55030291 		add	x21, x26, 128
 2723 2558 006280D2 		mov	x0, 784
 2724 255c B902198B 		add	x25, x21, x25
 2725 2560 7CE30191 		add	x28, x27, 120
 2726 2564 3554009B 		madd	x21, x1, x0, x21
 2727 2568 810B8052 		mov	w1, 92
 2728 256c E00314AA 		mov	x0, x20
AARCH64 GAS  C:\Users\A01169~1\AppData\Local\Temp\cclmDoLY.s 			page 49


 2729 2570 00000094 		bl	strchr
 2730 2574 F30300AA 		mov	x19, x0
 2731 2578 800800B4 		cbz	x0, .L567
 2732 257c 1F2003D5 		.p2align 3
 2733              	.L612:
 2734 2580 1F000039 		strb	wzr, [x0]
 2735 2584 E4330291 		add	x4, sp, 140
 2736 2588 E00314AA 		mov	x0, x20
 2737 258c E3031CAA 		mov	x3, x28
 2738 2590 22008052 		mov	w2, 1
 2739 2594 E10319AA 		mov	x1, x25
 2740 2598 AEFDFF97 		bl	LocateFATEntry
 2741 259c A00A00B4 		cbz	x0, .L609
 2742 25a0 14504039 		ldrb	w20, [x0, 20]
 2743 25a4 42230091 		add	x2, x26, 8
 2744 25a8 01544039 		ldrb	w1, [x0, 21]
 2745 25ac 03684039 		ldrb	w3, [x0, 26]
 2746 25b0 006C4039 		ldrb	w0, [x0, 27]
 2747 25b4 8122012A 		orr	w1, w20, w1, lsl 8
 2748 25b8 445F40B9 		ldr	w4, [x26, 92]
 2749 25bc 546740B9 		ldr	w20, [x26, 100]
 2750 25c0 6020002A 		orr	w0, w3, w0, lsl 8
 2751 25c4 434340B9 		ldr	w3, [x26, 64]
 2752 25c8 0040012A 		orr	w0, w0, w1, lsl 16
 2753 25cc A00200B9 		str	w0, [x21]
 2754 25d0 00080051 		sub	w0, w0, #2
 2755 25d4 BF7E0129 		stp	wzr, wzr, [x21, 8]
 2756 25d8 E23300F9 		str	x2, [sp, 96]
 2757 25dc 1450041B 		madd	w20, w0, w4, w20
 2758 25e0 B40600B9 		str	w20, [x21, 4]
 2759 25e4 63080034 		cbz	w3, .L609
 2760 25e8 86F6FF97 		bl	sdWaitForData
 2761 25ec 20080035 		cbnz	w0, .L609
 2762 25f0 E23340F9 		ldr	x2, [sp, 96]
 2763 25f4 04408052 		mov	w4, 512
 2764 25f8 000340B9 		ldr	w0, [x24, #:lo12:RPi_IO_Base_Addr]
 2765 25fc 815A1753 		lsl	w1, w20, 9
 2766 2600 433840B9 		ldr	w3, [x2, 56]
 2767 2604 02004C11 		add	w2, w0, 3145728
 2768 2608 42100011 		add	w2, w2, 4
 2769 260c 7F0C0071 		cmp	w3, 3
 2770 2610 E03F40F9 		ldr	x0, [sp, 120]
 2771 2614 2100941A 		csel	w1, w1, w20, eq
 2772 2618 430040B9 		ldr	w3, [x2]
 2773 261c 00400591 		add	x0, x0, 336
 2774 2620 633C0012 		and	w3, w3, 65535
 2775 2624 63001032 		orr	w3, w3, 65536
 2776 2628 430000B9 		str	w3, [x2]
 2777 262c 430040B9 		ldr	w3, [x2]
 2778 2630 83240033 		bfi	w3, w4, 0, 10
 2779 2634 430000B9 		str	w3, [x2]
 2780 2638 0EF8FF97 		bl	sdSendCommandP
 2781 263c A0050035 		cbnz	w0, .L609
 2782 2640 00048052 		mov	w0, 32
 2783 2644 BBF6FF97 		bl	sdWaitForInterrupt
 2784 2648 C0040035 		cbnz	w0, .L611
 2785 264c 000340B9 		ldr	w0, [x24, #:lo12:RPi_IO_Base_Addr]
AARCH64 GAS  C:\Users\A01169~1\AppData\Local\Temp\cclmDoLY.s 			page 50


 2786 2650 E10317AA 		mov	x1, x23
 2787 2654 00004C11 		add	w0, w0, 3145728
 2788 2658 00800011 		add	w0, w0, 32
 2789 265c 1F2003D5 		.p2align 3
 2790              	.L571:
 2791 2660 020040B9 		ldr	w2, [x0]
 2792 2664 224400B8 		str	w2, [x1], 4
 2793 2668 3F0016EB 		cmp	x1, x22
 2794 266c A1FFFF54 		bne	.L571
 2795 2670 74060091 		add	x20, x19, 1
 2796 2674 810B8052 		mov	w1, 92
 2797 2678 E00314AA 		mov	x0, x20
 2798 267c 00000094 		bl	strchr
 2799 2680 F30300AA 		mov	x19, x0
 2800 2684 E0F7FFB5 		cbnz	x0, .L612
 2801              	.L567:
 2802 2688 E10319AA 		mov	x1, x25
 2803 268c E4330291 		add	x4, sp, 140
 2804 2690 E3031CAA 		mov	x3, x28
 2805 2694 02008052 		mov	w2, 0
 2806 2698 E00314AA 		mov	x0, x20
 2807 269c 6DFDFF97 		bl	LocateFATEntry
 2808 26a0 E18F40B9 		ldr	w1, [sp, 140]
 2809 26a4 3F000071 		cmp	w1, 0
 2810 26a8 040840FA 		ccmp	x0, 0, 4, eq
 2811 26ac 81050054 		bne	.L613
 2812              	.L565:
 2813 26b0 E23B40F9 		ldr	x2, [sp, 112]
 2814 26b4 016280D2 		mov	x1, 784
 2815 26b8 F55B41A9 		ldp	x21, x22, [sp, 16]
 2816 26bc 00008052 		mov	w0, 0
 2817 26c0 5A68019B 		madd	x26, x2, x1, x26
 2818 26c4 F76342A9 		ldp	x23, x24, [sp, 32]
 2819 26c8 FB7344A9 		ldp	x27, x28, [sp, 64]
 2820 26cc 5F8700B9 		str	wzr, [x26, 132]
 2821 26d0 F96B43A9 		ldp	x25, x26, [sp, 48]
 2822 26d4 FE2B40F9 		ldr	x30, [sp, 80]
 2823 26d8 F353D9A8 		ldp	x19, x20, [sp], 400
 2824 26dc C0035FD6 		ret
 2825              		.p2align 2
 2826              	.L611:
 2827 26e0 00000090 		adrp	x0, .LANCHOR0
 2828 26e4 010040F9 		ldr	x1, [x0, #:lo12:.LANCHOR0]
 2829 26e8 E10000B5 		cbnz	x1, .L614
 2830 26ec 1F2003D5 		.p2align 3
 2831              	.L609:
 2832 26f0 F55B41A9 		ldp	x21, x22, [sp, 16]
 2833 26f4 F76342A9 		ldp	x23, x24, [sp, 32]
 2834 26f8 F96B43A9 		ldp	x25, x26, [sp, 48]
 2835 26fc FB7344A9 		ldp	x27, x28, [sp, 64]
 2836 2700 3AFFFF17 		b	.L568
 2837              		.p2align 2
 2838              	.L614:
 2839 2704 00000090 		adrp	x0, .LC8
 2840 2708 00000091 		add	x0, x0, :lo12:.LC8
 2841 270c 20003FD6 		blr	x1
 2842 2710 00008052 		mov	w0, 0
AARCH64 GAS  C:\Users\A01169~1\AppData\Local\Temp\cclmDoLY.s 			page 51


 2843 2714 F55B41A9 		ldp	x21, x22, [sp, 16]
 2844 2718 F76342A9 		ldp	x23, x24, [sp, 32]
 2845 271c F96B43A9 		ldp	x25, x26, [sp, 48]
 2846 2720 FB7344A9 		ldp	x27, x28, [sp, 64]
 2847 2724 FE2B40F9 		ldr	x30, [sp, 80]
 2848 2728 F353D9A8 		ldp	x19, x20, [sp], 400
 2849 272c C0035FD6 		ret
 2850              		.p2align 2
 2851              	.L603:
 2852 2730 170280D2 		mov	x23, 16
 2853 2734 190080D2 		mov	x25, 0
 2854 2738 FF6F00B9 		str	wzr, [sp, 108]
 2855 273c 51FFFF17 		b	.L560
 2856              		.p2align 2
 2857              	.L610:
 2858 2740 00000090 		adrp	x0, .LANCHOR0
 2859 2744 010040F9 		ldr	x1, [x0, #:lo12:.LANCHOR0]
 2860 2748 41FBFFB4 		cbz	x1, .L565
 2861 274c 00000090 		adrp	x0, .LC8
 2862 2750 00000091 		add	x0, x0, :lo12:.LC8
 2863 2754 20003FD6 		blr	x1
 2864 2758 D6FFFF17 		b	.L565
 2865              	.L613:
 2866 275c 82024039 		ldrb	w2, [x20]
 2867 2760 82010034 		cbz	w2, .L575
 2868 2764 E46F40B9 		ldr	w4, [sp, 108]
 2869 2768 5A030291 		add	x26, x26, 128
 2870 276c 03628052 		mov	w3, 784
 2871 2770 940600D1 		sub	x20, x20, #1
 2872 2774 210080D2 		mov	x1, 1
 2873 2778 8368239B 		smaddl	x3, w4, w3, x26
 2874 277c 633C0891 		add	x3, x3, 527
 2875              		.p2align 3
 2876              	.L573:
 2877 2780 62682138 		strb	w2, [x3, x1]
 2878 2784 21040091 		add	x1, x1, 1
 2879 2788 826A6138 		ldrb	w2, [x20, x1]
 2880 278c A2FFFF35 		cbnz	w2, .L573
 2881              	.L575:
 2882 2790 E1031BAA 		mov	x1, x27
 2883 2794 67F7FF97 		bl	SetFindDataFromFATEntry.part.0
 2884 2798 E06F40B9 		ldr	w0, [sp, 108]
 2885 279c F55B41A9 		ldp	x21, x22, [sp, 16]
 2886 27a0 00040011 		add	w0, w0, 1
 2887 27a4 F76342A9 		ldp	x23, x24, [sp, 32]
 2888 27a8 F96B43A9 		ldp	x25, x26, [sp, 48]
 2889 27ac FB7344A9 		ldp	x27, x28, [sp, 64]
 2890 27b0 0FFFFF17 		b	.L553
 2891              		.size	sdFindFirstFile, .-sdFindFirstFile
 2892              		.align	2
 2893 27b4 1F2003D5 		.p2align 4,,15
 2893      1F2003D5 
 2893      1F2003D5 
 2894              		.global	sdFindNextFile
 2895              		.type	sdFindNextFile, %function
 2896              	sdFindNextFile:
 2897 27c0 F353BCA9 		stp	x19, x20, [sp, -64]!
AARCH64 GAS  C:\Users\A01169~1\AppData\Local\Temp\cclmDoLY.s 			page 52


 2898 27c4 02040051 		sub	w2, w0, #1
 2899 27c8 5F0C0071 		cmp	w2, 3
 2900 27cc F55B01A9 		stp	x21, x22, [sp, 16]
 2901 27d0 15008052 		mov	w21, 0
 2902 27d4 FE1300F9 		str	x30, [sp, 32]
 2903 27d8 FF3F00B9 		str	wzr, [sp, 60]
 2904 27dc 48010054 		bhi	.L615
 2905 27e0 05000090 		adrp	x5, .LANCHOR0
 2906 27e4 A5000091 		add	x5, x5, :lo12:.LANCHOR0
 2907 27e8 A5000291 		add	x5, x5, 128
 2908 27ec F303022A 		uxtw	x19, w2
 2909 27f0 066280D2 		mov	x6, 784
 2910 27f4 15008052 		mov	w21, 0
 2911 27f8 7316069B 		madd	x19, x19, x6, x5
 2912 27fc 630640B9 		ldr	w3, [x19, 4]
 2913 2800 C3000035 		cbnz	w3, .L624
 2914              	.L615:
 2915 2804 E003152A 		mov	w0, w21
 2916 2808 F55B41A9 		ldp	x21, x22, [sp, 16]
 2917 280c FE1340F9 		ldr	x30, [sp, 32]
 2918 2810 F353C4A8 		ldp	x19, x20, [sp], 64
 2919 2814 C0035FD6 		ret
 2920              		.p2align 2
 2921              	.L624:
 2922 2818 467CA69B 		umull	x6, w2, w6
 2923 281c F403002A 		mov	w20, w0
 2924 2820 23E00191 		add	x3, x1, 120
 2925 2824 F60301AA 		mov	x22, x1
 2926 2828 C0400891 		add	x0, x6, 528
 2927 282c A100068B 		add	x1, x5, x6
 2928 2830 E4F30091 		add	x4, sp, 60
 2929 2834 02008052 		mov	w2, 0
 2930 2838 A000008B 		add	x0, x5, x0
 2931 283c 05FDFF97 		bl	LocateFATEntry
 2932 2840 E13F40B9 		ldr	w1, [sp, 60]
 2933 2844 3F000071 		cmp	w1, 0
 2934 2848 040840FA 		ccmp	x0, 0, 4, eq
 2935 284c E1000054 		bne	.L625
 2936 2850 7F0600B9 		str	wzr, [x19, 4]
 2937 2854 E003152A 		mov	w0, w21
 2938 2858 F55B41A9 		ldp	x21, x22, [sp, 16]
 2939 285c FE1340F9 		ldr	x30, [sp, 32]
 2940 2860 F353C4A8 		ldp	x19, x20, [sp], 64
 2941 2864 C0035FD6 		ret
 2942              		.p2align 2
 2943              	.L625:
 2944 2868 F503142A 		mov	w21, w20
 2945 286c D6FCFFB4 		cbz	x22, .L615
 2946 2870 E10316AA 		mov	x1, x22
 2947 2874 2FF7FF97 		bl	SetFindDataFromFATEntry.part.0
 2948 2878 E3FFFF17 		b	.L615
 2949              		.size	sdFindNextFile, .-sdFindNextFile
 2950              		.align	2
 2951 287c 1F2003D5 		.p2align 4,,15
 2952              		.global	sdFindClose
 2953              		.type	sdFindClose, %function
 2954              	sdFindClose:
AARCH64 GAS  C:\Users\A01169~1\AppData\Local\Temp\cclmDoLY.s 			page 53


 2955 2880 00040051 		sub	w0, w0, #1
 2956 2884 1F0C0071 		cmp	w0, 3
 2957 2888 68010054 		bhi	.L628
 2958 288c 02000090 		adrp	x2, .LANCHOR0
 2959 2890 42000091 		add	x2, x2, :lo12:.LANCHOR0
 2960 2894 E103002A 		uxtw	x1, w0
 2961 2898 42000291 		add	x2, x2, 128
 2962 289c 036280D2 		mov	x3, 784
 2963 28a0 00008052 		mov	w0, 0
 2964 28a4 2108039B 		madd	x1, x1, x3, x2
 2965 28a8 220440B9 		ldr	w2, [x1, 4]
 2966 28ac 82000035 		cbnz	w2, .L631
 2967 28b0 C0035FD6 		ret
 2968              		.p2align 2
 2969              	.L628:
 2970 28b4 00008052 		mov	w0, 0
 2971 28b8 C0035FD6 		ret
 2972              		.p2align 2
 2973              	.L631:
 2974 28bc 20008052 		mov	w0, 1
 2975 28c0 3F0400B9 		str	wzr, [x1, 4]
 2976 28c4 C0035FD6 		ret
 2977              		.size	sdFindClose, .-sdFindClose
 2978              		.align	2
 2979 28c8 1F2003D5 		.p2align 4,,15
 2979      1F2003D5 
 2980              		.global	sdCreateFile
 2981              		.type	sdCreateFile, %function
 2982              	sdCreateFile:
 2983 28d0 FF430AD1 		sub	sp, sp, #656
 2984 28d4 F35300A9 		stp	x19, x20, [sp]
 2985 28d8 FE2B00F9 		str	x30, [sp, 80]
 2986 28dc FF8F00B9 		str	wzr, [sp, 140]
 2987 28e0 001700B4 		cbz	x0, .L641
 2988 28e4 F55B01A9 		stp	x21, x22, [sp, 16]
 2989 28e8 F4430691 		add	x20, sp, 400
 2990 28ec E20314AA 		mov	x2, x20
 2991 28f0 F76302A9 		stp	x23, x24, [sp, 32]
 2992 28f4 F96B03A9 		stp	x25, x26, [sp, 48]
 2993 28f8 FB7304A9 		stp	x27, x28, [sp, 64]
 2994 28fc 01004039 		ldrb	w1, [x0]
 2995 2900 A1000034 		cbz	w1, .L635
 2996 2904 1F2003D5 		.p2align 3
 2997              	.L636:
 2998 2908 41140038 		strb	w1, [x2], 1
 2999 290c 011C4038 		ldrb	w1, [x0, 1]!
 3000 2910 C1FFFF35 		cbnz	w1, .L636
 3001              	.L635:
 3002 2914 18000090 		adrp	x24, intFileIORecord
 3003 2918 18030091 		add	x24, x24, :lo12:intFileIORecord
 3004 291c 5F000039 		strb	wzr, [x2]
 3005 2920 000740B9 		ldr	w0, [x24, 4]
 3006 2924 E1434639 		ldrb	w1, [sp, 400]
 3007 2928 3F700171 		cmp	w1, 92
 3008 292c 9416949A 		cinc	x20, x20, eq
 3009 2930 60170034 		cbz	w0, .L677
 3010 2934 002343B9 		ldr	w0, [x24, 800]
AARCH64 GAS  C:\Users\A01169~1\AppData\Local\Temp\cclmDoLY.s 			page 54


 3011 2938 A0170034 		cbz	w0, .L653
 3012 293c 003F46B9 		ldr	w0, [x24, 1596]
 3013 2940 80160034 		cbz	w0, .L654
 3014 2944 005B49B9 		ldr	w0, [x24, 2392]
 3015 2948 80170034 		cbz	w0, .L655
 3016 294c 00774CB9 		ldr	w0, [x24, 3188]
 3017 2950 A0170034 		cbz	w0, .L656
 3018 2954 00934FB9 		ldr	w0, [x24, 3984]
 3019 2958 C01C0034 		cbz	w0, .L657
 3020 295c 00AF52B9 		ldr	w0, [x24, 4780]
 3021 2960 1F000071 		cmp	w0, 0
 3022 2964 E0079F1A 		cset	w0, ne
 3023 2968 00180011 		add	w0, w0, 6
 3024 296c E06F00B9 		str	w0, [sp, 108]
 3025              	.L638:
 3026 2970 E06F40B9 		ldr	w0, [sp, 108]
 3027 2974 9A638052 		mov	w26, 796
 3028 2978 1A7C3A9B 		smull	x26, w0, w26
 3029 297c 57430091 		add	x23, x26, 16
 3030              	.L639:
 3031 2980 00000090 		adrp	x0, .LANCHOR0
 3032 2984 1C000091 		add	x28, x0, :lo12:.LANCHOR0
 3033 2988 E16F80B9 		ldrsw	x1, [sp, 108]
 3034 298c 806380D2 		mov	x0, 796
 3035 2990 E13B00F9 		str	x1, [sp, 112]
 3036 2994 1703178B 		add	x23, x24, x23
 3037 2998 82174B29 		ldp	w2, w5, [x28, 88]
 3038 299c 207C009B 		mul	x0, x1, x0
 3039 29a0 846740B9 		ldr	w4, [x28, 100]
 3040 29a4 55080051 		sub	w21, w2, #2
 3041 29a8 834340B9 		ldr	w3, [x28, 64]
 3042 29ac 0103008B 		add	x1, x24, x0
 3043 29b0 B512051B 		madd	w21, w21, w5, w4
 3044 29b4 026B20B8 		str	w2, [x24, x0]
 3045 29b8 35FC0029 		stp	w21, wzr, [x1, 4]
 3046 29bc 3F0C00B9 		str	wzr, [x1, 12]
 3047 29c0 830F0034 		cbz	w3, .L689
 3048 29c4 8FF5FF97 		bl	sdWaitForData
 3049 29c8 400F0035 		cbnz	w0, .L689
 3050 29cc 19000090 		adrp	x25, RPi_IO_Base_Addr
 3051 29d0 220340B9 		ldr	w2, [x25, #:lo12:RPi_IO_Base_Addr]
 3052 29d4 804340B9 		ldr	w0, [x28, 64]
 3053 29d8 04408052 		mov	w4, 512
 3054 29dc 42004C11 		add	w2, w2, 3145728
 3055 29e0 A15A1753 		lsl	w1, w21, 9
 3056 29e4 42100011 		add	w2, w2, 4
 3057 29e8 1F0C0071 		cmp	w0, 3
 3058 29ec 00000090 		adrp	x0, .LANCHOR1
 3059 29f0 00000091 		add	x0, x0, :lo12:.LANCHOR1
 3060 29f4 E03F00F9 		str	x0, [sp, 120]
 3061 29f8 2100951A 		csel	w1, w1, w21, eq
 3062 29fc 430040B9 		ldr	w3, [x2]
 3063 2a00 00400591 		add	x0, x0, 336
 3064 2a04 633C0012 		and	w3, w3, 65535
 3065 2a08 63001032 		orr	w3, w3, 65536
 3066 2a0c 430000B9 		str	w3, [x2]
 3067 2a10 430040B9 		ldr	w3, [x2]
AARCH64 GAS  C:\Users\A01169~1\AppData\Local\Temp\cclmDoLY.s 			page 55


 3068 2a14 83240033 		bfi	w3, w4, 0, 10
 3069 2a18 430000B9 		str	w3, [x2]
 3070 2a1c 15F7FF97 		bl	sdSendCommandP
 3071 2a20 800C0035 		cbnz	w0, .L689
 3072 2a24 00048052 		mov	w0, 32
 3073 2a28 C2F5FF97 		bl	sdWaitForInterrupt
 3074 2a2c 400D0035 		cbnz	w0, .L692
 3075 2a30 210340B9 		ldr	w1, [x25, #:lo12:RPi_IO_Base_Addr]
 3076 2a34 F5020891 		add	x21, x23, 512
 3077 2a38 E00317AA 		mov	x0, x23
 3078 2a3c 21004C11 		add	w1, w1, 3145728
 3079 2a40 21800011 		add	w1, w1, 32
 3080 2a44 1F2003D5 		.p2align 3
 3081              	.L644:
 3082 2a48 220040B9 		ldr	w2, [x1]
 3083 2a4c 024400B8 		str	w2, [x0], 4
 3084 2a50 1F0015EB 		cmp	x0, x21
 3085 2a54 A1FFFF54 		bne	.L644
 3086 2a58 E03B40F9 		ldr	x0, [sp, 112]
 3087 2a5c 966380D2 		mov	x22, 796
 3088 2a60 1B048052 		mov	w27, 32
 3089 2a64 1B06A072 		movk	w27, 0x30, lsl 16
 3090 2a68 810B8052 		mov	w1, 92
 3091 2a6c 1A031A8B 		add	x26, x24, x26
 3092 2a70 1660169B 		madd	x22, x0, x22, x24
 3093 2a74 E00314AA 		mov	x0, x20
 3094 2a78 00000094 		bl	strchr
 3095 2a7c F30300AA 		mov	x19, x0
 3096 2a80 400800B4 		cbz	x0, .L645
 3097 2a84 1F2003D5 		.p2align 3
 3098              	.L693:
 3099 2a88 1F000039 		strb	wzr, [x0]
 3100 2a8c E4330291 		add	x4, sp, 140
 3101 2a90 E00314AA 		mov	x0, x20
 3102 2a94 E3430291 		add	x3, sp, 144
 3103 2a98 22008052 		mov	w2, 1
 3104 2a9c E1031AAA 		mov	x1, x26
 3105 2aa0 6CFCFF97 		bl	LocateFATEntry
 3106 2aa4 600800B4 		cbz	x0, .L689
 3107 2aa8 14504039 		ldrb	w20, [x0, 20]
 3108 2aac 82230091 		add	x2, x28, 8
 3109 2ab0 01544039 		ldrb	w1, [x0, 21]
 3110 2ab4 03684039 		ldrb	w3, [x0, 26]
 3111 2ab8 006C4039 		ldrb	w0, [x0, 27]
 3112 2abc 8122012A 		orr	w1, w20, w1, lsl 8
 3113 2ac0 845F40B9 		ldr	w4, [x28, 92]
 3114 2ac4 946740B9 		ldr	w20, [x28, 100]
 3115 2ac8 6020002A 		orr	w0, w3, w0, lsl 8
 3116 2acc 834340B9 		ldr	w3, [x28, 64]
 3117 2ad0 0040012A 		orr	w0, w0, w1, lsl 16
 3118 2ad4 C00200B9 		str	w0, [x22]
 3119 2ad8 00080051 		sub	w0, w0, #2
 3120 2adc DF7E0129 		stp	wzr, wzr, [x22, 8]
 3121 2ae0 E23300F9 		str	x2, [sp, 96]
 3122 2ae4 1450041B 		madd	w20, w0, w4, w20
 3123 2ae8 D40600B9 		str	w20, [x22, 4]
 3124 2aec 23060034 		cbz	w3, .L689
AARCH64 GAS  C:\Users\A01169~1\AppData\Local\Temp\cclmDoLY.s 			page 56


 3125 2af0 44F5FF97 		bl	sdWaitForData
 3126 2af4 E0050035 		cbnz	w0, .L689
 3127 2af8 E23340F9 		ldr	x2, [sp, 96]
 3128 2afc 04408052 		mov	w4, 512
 3129 2b00 200340B9 		ldr	w0, [x25, #:lo12:RPi_IO_Base_Addr]
 3130 2b04 815A1753 		lsl	w1, w20, 9
 3131 2b08 433840B9 		ldr	w3, [x2, 56]
 3132 2b0c 02004C11 		add	w2, w0, 3145728
 3133 2b10 42100011 		add	w2, w2, 4
 3134 2b14 7F0C0071 		cmp	w3, 3
 3135 2b18 E03F40F9 		ldr	x0, [sp, 120]
 3136 2b1c 2100941A 		csel	w1, w1, w20, eq
 3137 2b20 430040B9 		ldr	w3, [x2]
 3138 2b24 00400591 		add	x0, x0, 336
 3139 2b28 633C0012 		and	w3, w3, 65535
 3140 2b2c 63001032 		orr	w3, w3, 65536
 3141 2b30 430000B9 		str	w3, [x2]
 3142 2b34 430040B9 		ldr	w3, [x2]
 3143 2b38 83240033 		bfi	w3, w4, 0, 10
 3144 2b3c 430000B9 		str	w3, [x2]
 3145 2b40 CCF6FF97 		bl	sdSendCommandP
 3146 2b44 60030035 		cbnz	w0, .L689
 3147 2b48 00048052 		mov	w0, 32
 3148 2b4c 79F5FF97 		bl	sdWaitForInterrupt
 3149 2b50 20040035 		cbnz	w0, .L692
 3150 2b54 200340B9 		ldr	w0, [x25, #:lo12:RPi_IO_Base_Addr]
 3151 2b58 E10317AA 		mov	x1, x23
 3152 2b5c 00001B0B 		add	w0, w0, w27
 3153              		.p2align 3
 3154              	.L648:
 3155 2b60 020040B9 		ldr	w2, [x0]
 3156 2b64 224400B8 		str	w2, [x1], 4
 3157 2b68 3F0015EB 		cmp	x1, x21
 3158 2b6c A1FFFF54 		bne	.L648
 3159 2b70 74060091 		add	x20, x19, 1
 3160 2b74 810B8052 		mov	w1, 92
 3161 2b78 E00314AA 		mov	x0, x20
 3162 2b7c 00000094 		bl	strchr
 3163 2b80 F30300AA 		mov	x19, x0
 3164 2b84 20F8FFB5 		cbnz	x0, .L693
 3165              	.L645:
 3166 2b88 E1031AAA 		mov	x1, x26
 3167 2b8c E4330291 		add	x4, sp, 140
 3168 2b90 E3430291 		add	x3, sp, 144
 3169 2b94 E00314AA 		mov	x0, x20
 3170 2b98 02008052 		mov	w2, 0
 3171 2b9c 2DFCFF97 		bl	LocateFATEntry
 3172 2ba0 E18F40B9 		ldr	w1, [sp, 140]
 3173 2ba4 3F000071 		cmp	w1, 0
 3174 2ba8 040840FA 		ccmp	x0, 0, 4, eq
 3175 2bac 21050054 		bne	.L694
 3176              		.p2align 3
 3177              	.L689:
 3178 2bb0 F55B41A9 		ldp	x21, x22, [sp, 16]
 3179 2bb4 F76342A9 		ldp	x23, x24, [sp, 32]
 3180 2bb8 F96B43A9 		ldp	x25, x26, [sp, 48]
 3181 2bbc FB7344A9 		ldp	x27, x28, [sp, 64]
AARCH64 GAS  C:\Users\A01169~1\AppData\Local\Temp\cclmDoLY.s 			page 57


 3182              	.L641:
 3183 2bc0 00008052 		mov	w0, 0
 3184              	.L632:
 3185 2bc4 F35340A9 		ldp	x19, x20, [sp]
 3186 2bc8 FE2B40F9 		ldr	x30, [sp, 80]
 3187 2bcc FF430A91 		add	sp, sp, 656
 3188 2bd0 C0035FD6 		ret
 3189              		.p2align 2
 3190              	.L692:
 3191 2bd4 00000090 		adrp	x0, .LANCHOR0
 3192 2bd8 010040F9 		ldr	x1, [x0, #:lo12:.LANCHOR0]
 3193 2bdc A1FEFFB4 		cbz	x1, .L689
 3194 2be0 00000090 		adrp	x0, .LC8
 3195 2be4 00000091 		add	x0, x0, :lo12:.LC8
 3196 2be8 20003FD6 		blr	x1
 3197 2bec 00008052 		mov	w0, 0
 3198 2bf0 F35340A9 		ldp	x19, x20, [sp]
 3199 2bf4 F55B41A9 		ldp	x21, x22, [sp, 16]
 3200 2bf8 F76342A9 		ldp	x23, x24, [sp, 32]
 3201 2bfc F96B43A9 		ldp	x25, x26, [sp, 48]
 3202 2c00 FB7344A9 		ldp	x27, x28, [sp, 64]
 3203 2c04 FE2B40F9 		ldr	x30, [sp, 80]
 3204 2c08 FF430A91 		add	sp, sp, 656
 3205 2c0c C0035FD6 		ret
 3206              		.p2align 2
 3207              	.L654:
 3208 2c10 40008052 		mov	w0, 2
 3209 2c14 E06F00B9 		str	w0, [sp, 108]
 3210 2c18 56FFFF17 		b	.L638
 3211              		.p2align 2
 3212              	.L677:
 3213 2c1c 1A0080D2 		mov	x26, 0
 3214 2c20 170280D2 		mov	x23, 16
 3215 2c24 FF6F00B9 		str	wzr, [sp, 108]
 3216 2c28 56FFFF17 		b	.L639
 3217              		.p2align 2
 3218              	.L653:
 3219 2c2c 20008052 		mov	w0, 1
 3220 2c30 E06F00B9 		str	w0, [sp, 108]
 3221 2c34 4FFFFF17 		b	.L638
 3222              		.p2align 2
 3223              	.L655:
 3224 2c38 60008052 		mov	w0, 3
 3225 2c3c E06F00B9 		str	w0, [sp, 108]
 3226 2c40 4CFFFF17 		b	.L638
 3227              	.L656:
 3228 2c44 80008052 		mov	w0, 4
 3229 2c48 E06F00B9 		str	w0, [sp, 108]
 3230 2c4c 49FFFF17 		b	.L638
 3231              	.L694:
 3232 2c50 E13B40F9 		ldr	x1, [sp, 112]
 3233 2c54 866380D2 		mov	x6, 796
 3234 2c58 02504039 		ldrb	w2, [x0, 20]
 3235 2c5c 03544039 		ldrb	w3, [x0, 21]
 3236 2c60 07684039 		ldrb	w7, [x0, 26]
 3237 2c64 267C069B 		mul	x6, x1, x6
 3238 2c68 056C4039 		ldrb	w5, [x0, 27]
AARCH64 GAS  C:\Users\A01169~1\AppData\Local\Temp\cclmDoLY.s 			page 58


 3239 2c6c E10317AA 		mov	x1, x23
 3240 2c70 0403068B 		add	x4, x24, x6
 3241 2c74 4320032A 		orr	w3, w2, w3, lsl 8
 3242 2c78 885F40B9 		ldr	w8, [x28, 92]
 3243 2c7c 02008052 		mov	w2, 0
 3244 2c80 E520052A 		orr	w5, w7, w5, lsl 8
 3245 2c84 876740B9 		ldr	w7, [x28, 100]
 3246 2c88 A340032A 		orr	w3, w5, w3, lsl 16
 3247 2c8c 831003B9 		str	w3, [x4, 784]
 3248 2c90 65080051 		sub	w5, w3, #2
 3249 2c94 9F1403B9 		str	wzr, [x4, 788]
 3250 2c98 0A704039 		ldrb	w10, [x0, 28]
 3251 2c9c 09744039 		ldrb	w9, [x0, 29]
 3252 2ca0 A51C081B 		madd	w5, w5, w8, w7
 3253 2ca4 08784039 		ldrb	w8, [x0, 30]
 3254 2ca8 077C4039 		ldrb	w7, [x0, 31]
 3255 2cac E003052A 		mov	w0, w5
 3256 2cb0 492109AA 		orr	x9, x10, x9, lsl 8
 3257 2cb4 036B26B8 		str	w3, [x24, x6]
 3258 2cb8 234108AA 		orr	x3, x9, x8, lsl 16
 3259 2cbc 85FC0029 		stp	w5, wzr, [x4, 4]
 3260 2cc0 636007AA 		orr	x3, x3, x7, lsl 24
 3261 2cc4 9F0C00B9 		str	wzr, [x4, 12]
 3262 2cc8 831803B9 		str	w3, [x4, 792]
 3263 2ccc 81F8FF97 		bl	sdTransferBlocks.constprop.7
 3264 2cd0 00F7FF35 		cbnz	w0, .L689
 3265 2cd4 E06F40B9 		ldr	w0, [sp, 108]
 3266 2cd8 F55B41A9 		ldp	x21, x22, [sp, 16]
 3267 2cdc 00040011 		add	w0, w0, 1
 3268 2ce0 F76342A9 		ldp	x23, x24, [sp, 32]
 3269 2ce4 F96B43A9 		ldp	x25, x26, [sp, 48]
 3270 2ce8 FB7344A9 		ldp	x27, x28, [sp, 64]
 3271 2cec B6FFFF17 		b	.L632
 3272              	.L657:
 3273 2cf0 A0008052 		mov	w0, 5
 3274 2cf4 E06F00B9 		str	w0, [sp, 108]
 3275 2cf8 1EFFFF17 		b	.L638
 3276              		.size	sdCreateFile, .-sdCreateFile
 3277              		.align	2
 3278 2cfc 1F2003D5 		.p2align 4,,15
 3279              		.global	sdReadFile
 3280              		.type	sdReadFile, %function
 3281              	sdReadFile:
 3282 2d00 00040051 		sub	w0, w0, #1
 3283 2d04 1F1C0071 		cmp	w0, 7
 3284 2d08 C8090054 		bhi	.L743
 3285 2d0c F353B8A9 		stp	x19, x20, [sp, -128]!
 3286 2d10 14000090 		adrp	x20, intFileIORecord
 3287 2d14 94020091 		add	x20, x20, :lo12:intFileIORecord
 3288 2d18 F303002A 		uxtw	x19, w0
 3289 2d1c 856380D2 		mov	x5, 796
 3290 2d20 7352059B 		madd	x19, x19, x5, x20
 3291 2d24 640640B9 		ldr	w4, [x19, 4]
 3292 2d28 FE2B00F9 		str	x30, [sp, 80]
 3293 2d2c 24080034 		cbz	w4, .L696
 3294 2d30 F55B01A9 		stp	x21, x22, [sp, 16]
 3295 2d34 F50301AA 		mov	x21, x1
AARCH64 GAS  C:\Users\A01169~1\AppData\Local\Temp\cclmDoLY.s 			page 59


 3296 2d38 010280D2 		mov	x1, 16
 3297 2d3c F76302A9 		stp	x23, x24, [sp, 32]
 3298 2d40 17000090 		adrp	x23, .LANCHOR1
 3299 2d44 F7020091 		add	x23, x23, :lo12:.LANCHOR1
 3300 2d48 0004A59B 		umaddl	x0, w0, w5, x1
 3301 2d4c F803022A 		mov	w24, w2
 3302 2d50 E1420591 		add	x1, x23, 336
 3303 2d54 96FE9F52 		mov	w22, 65524
 3304 2d58 F6FFA172 		movk	w22, 0xfff, lsl 16
 3305 2d5c 9402008B 		add	x20, x20, x0
 3306 2d60 F96B03A9 		stp	x25, x26, [sp, 48]
 3307 2d64 19008052 		mov	w25, 0
 3308 2d68 FB7304A9 		stp	x27, x28, [sp, 64]
 3309 2d6c E13700F9 		str	x1, [sp, 104]
 3310 2d70 E33F00F9 		str	x3, [sp, 120]
 3311 2d74 1F2003D5 		.p2align 3
 3312              	.L697:
 3313 2d78 600240B9 		ldr	w0, [x19]
 3314 2d7c 00040051 		sub	w0, w0, #1
 3315 2d80 1F00166B 		cmp	w0, w22
 3316 2d84 E8040054 		bhi	.L756
 3317 2d88 3F03186B 		cmp	w25, w24
 3318 2d8c E2050054 		bcs	.L713
 3319 2d90 611643B9 		ldr	w1, [x19, 788]
 3320 2d94 601A43B9 		ldr	w0, [x19, 792]
 3321 2d98 3F00006B 		cmp	w1, w0
 3322 2d9c E2130054 		bcs	.L716
 3323 2da0 600E40B9 		ldr	w0, [x19, 12]
 3324 2da4 A142398B 		add	x1, x21, x25, uxtw
 3325 2da8 1FFC0771 		cmp	w0, 511
 3326 2dac 09010054 		bls	.L700
 3327 2db0 2B000014 		b	.L704
 3328              		.p2align 2
 3329              	.L762:
 3330 2db4 631A43B9 		ldr	w3, [x19, 792]
 3331 2db8 1F00036B 		cmp	w0, w3
 3332 2dbc E2120054 		bcs	.L716
 3333 2dc0 600E40B9 		ldr	w0, [x19, 12]
 3334 2dc4 1FFC0771 		cmp	w0, 511
 3335 2dc8 A8040054 		bhi	.L704
 3336              	.L700:
 3337 2dcc 6342208B 		add	x3, x19, x0, uxtw
 3338 2dd0 00040011 		add	w0, w0, 1
 3339 2dd4 600E00B9 		str	w0, [x19, 12]
 3340 2dd8 39070011 		add	w25, w25, 1
 3341 2ddc 1F03196B 		cmp	w24, w25
 3342 2de0 21040091 		add	x1, x1, 1
 3343 2de4 60404039 		ldrb	w0, [x3, 16]
 3344 2de8 20F01F38 		strb	w0, [x1, -1]
 3345 2dec 601643B9 		ldr	w0, [x19, 788]
 3346 2df0 00040011 		add	w0, w0, 1
 3347 2df4 601603B9 		str	w0, [x19, 788]
 3348 2df8 E1FDFF54 		bne	.L762
 3349              	.L698:
 3350 2dfc E13F40F9 		ldr	x1, [sp, 120]
 3351 2e00 20008052 		mov	w0, 1
 3352 2e04 211100B4 		cbz	x1, .L746
AARCH64 GAS  C:\Users\A01169~1\AppData\Local\Temp\cclmDoLY.s 			page 60


 3353              	.L757:
 3354 2e08 F55B41A9 		ldp	x21, x22, [sp, 16]
 3355 2e0c F76342A9 		ldp	x23, x24, [sp, 32]
 3356 2e10 FB7344A9 		ldp	x27, x28, [sp, 64]
 3357 2e14 390000B9 		str	w25, [x1]
 3358 2e18 F96B43A9 		ldp	x25, x26, [sp, 48]
 3359 2e1c 06000014 		b	.L730
 3360              		.p2align 2
 3361              	.L756:
 3362 2e20 F55B41A9 		ldp	x21, x22, [sp, 16]
 3363 2e24 F76342A9 		ldp	x23, x24, [sp, 32]
 3364 2e28 F96B43A9 		ldp	x25, x26, [sp, 48]
 3365 2e2c FB7344A9 		ldp	x27, x28, [sp, 64]
 3366              	.L696:
 3367 2e30 00008052 		mov	w0, 0
 3368              	.L730:
 3369 2e34 FE2B40F9 		ldr	x30, [sp, 80]
 3370 2e38 F353C8A8 		ldp	x19, x20, [sp], 128
 3371 2e3c C0035FD6 		ret
 3372              		.p2align 2
 3373              	.L743:
 3374 2e40 00008052 		mov	w0, 0
 3375 2e44 C0035FD6 		ret
 3376              	.L713:
 3377 2e48 A0FDFF54 		beq	.L698
 3378 2e4c 611643B9 		ldr	w1, [x19, 788]
 3379 2e50 601A43B9 		ldr	w0, [x19, 792]
 3380 2e54 3F00006B 		cmp	w1, w0
 3381 2e58 020E0054 		bcs	.L716
 3382              	.L704:
 3383 2e5c 1A000090 		adrp	x26, .LANCHOR0
 3384 2e60 43030091 		add	x3, x26, :lo12:.LANCHOR0
 3385 2e64 77200091 		add	x23, x3, 8
 3386 2e68 610A40B9 		ldr	w1, [x19, 8]
 3387 2e6c E05640B9 		ldr	w0, [x23, 84]
 3388 2e70 3C040011 		add	w28, w1, 1
 3389 2e74 7C0A00B9 		str	w28, [x19, 8]
 3390 2e78 9F03006B 		cmp	w28, w0
 3391 2e7c 42050054 		bcs	.L705
 3392 2e80 E03A40B9 		ldr	w0, [x23, 56]
 3393 2e84 7F0E00B9 		str	wzr, [x19, 12]
 3394 2e88 C0FCFF34 		cbz	w0, .L756
 3395 2e8c 600640B9 		ldr	w0, [x19, 4]
 3396 2e90 E07700B9 		str	w0, [sp, 116]
 3397 2e94 5BF4FF97 		bl	sdWaitForData
 3398 2e98 40FCFF35 		cbnz	w0, .L756
 3399 2e9c 1B000090 		adrp	x27, RPi_IO_Base_Addr
 3400 2ea0 620340B9 		ldr	w2, [x27, #:lo12:RPi_IO_Base_Addr]
 3401 2ea4 E17740B9 		ldr	w1, [sp, 116]
 3402 2ea8 05408052 		mov	w5, 512
 3403 2eac 42004C11 		add	w2, w2, 3145728
 3404 2eb0 E03A40B9 		ldr	w0, [x23, 56]
 3405 2eb4 42100011 		add	w2, w2, 4
 3406 2eb8 8103010B 		add	w1, w28, w1
 3407 2ebc 1F0C0071 		cmp	w0, 3
 3408 2ec0 20581753 		lsl	w0, w1, 9
 3409 2ec4 430040B9 		ldr	w3, [x2]
AARCH64 GAS  C:\Users\A01169~1\AppData\Local\Temp\cclmDoLY.s 			page 61


 3410 2ec8 0100811A 		csel	w1, w0, w1, eq
 3411 2ecc E03740F9 		ldr	x0, [sp, 104]
 3412 2ed0 633C0012 		and	w3, w3, 65535
 3413 2ed4 63001032 		orr	w3, w3, 65536
 3414 2ed8 430000B9 		str	w3, [x2]
 3415 2edc 430040B9 		ldr	w3, [x2]
 3416 2ee0 A3240033 		bfi	w3, w5, 0, 10
 3417 2ee4 430000B9 		str	w3, [x2]
 3418 2ee8 E2F5FF97 		bl	sdSendCommandP
 3419 2eec A0F9FF35 		cbnz	w0, .L756
 3420 2ef0 00048052 		mov	w0, 32
 3421 2ef4 8FF4FF97 		bl	sdWaitForInterrupt
 3422 2ef8 60070035 		cbnz	w0, .L761
 3423 2efc 620340B9 		ldr	w2, [x27, #:lo12:RPi_IO_Base_Addr]
 3424 2f00 E00314AA 		mov	x0, x20
 3425 2f04 83020891 		add	x3, x20, 512
 3426 2f08 42004C11 		add	w2, w2, 3145728
 3427 2f0c 42800011 		add	w2, w2, 32
 3428              		.p2align 3
 3429              	.L708:
 3430 2f10 410040B9 		ldr	w1, [x2]
 3431 2f14 014400B8 		str	w1, [x0], 4
 3432 2f18 7F0000EB 		cmp	x3, x0
 3433 2f1c A1FFFF54 		bne	.L708
 3434 2f20 96FFFF17 		b	.L697
 3435              		.p2align 2
 3436              	.L705:
 3437 2f24 600240B9 		ldr	w0, [x19]
 3438 2f28 02008052 		mov	w2, 0
 3439 2f2c 01008052 		mov	w1, 0
 3440 2f30 00000094 		bl	getSetNextCluster
 3441 2f34 1C080051 		sub	w28, w0, #2
 3442 2f38 E55640B9 		ldr	w5, [x23, 84]
 3443 2f3c E25E40B9 		ldr	w2, [x23, 92]
 3444 2f40 E13A40B9 		ldr	w1, [x23, 56]
 3445 2f44 7F7E0129 		stp	wzr, wzr, [x19, 8]
 3446 2f48 9C0B051B 		madd	w28, w28, w5, w2
 3447 2f4c 60720029 		stp	w0, w28, [x19]
 3448 2f50 81F6FF34 		cbz	w1, .L756
 3449 2f54 2BF4FF97 		bl	sdWaitForData
 3450 2f58 40F6FF35 		cbnz	w0, .L756
 3451 2f5c 1B000090 		adrp	x27, RPi_IO_Base_Addr
 3452 2f60 620340B9 		ldr	w2, [x27, #:lo12:RPi_IO_Base_Addr]
 3453 2f64 E03A40B9 		ldr	w0, [x23, 56]
 3454 2f68 05408052 		mov	w5, 512
 3455 2f6c 42004C11 		add	w2, w2, 3145728
 3456 2f70 E1031C2A 		mov	w1, w28
 3457 2f74 42100011 		add	w2, w2, 4
 3458 2f78 1F0C0071 		cmp	w0, 3
 3459 2f7c 430040B9 		ldr	w3, [x2]
 3460 2f80 41000054 		bne	.L759
 3461 2f84 815B1753 		lsl	w1, w28, 9
 3462              	.L759:
 3463 2f88 633C0012 		and	w3, w3, 65535
 3464 2f8c 63001032 		orr	w3, w3, 65536
 3465 2f90 E03740F9 		ldr	x0, [sp, 104]
 3466 2f94 430000B9 		str	w3, [x2]
AARCH64 GAS  C:\Users\A01169~1\AppData\Local\Temp\cclmDoLY.s 			page 62


 3467 2f98 430040B9 		ldr	w3, [x2]
 3468 2f9c A3240033 		bfi	w3, w5, 0, 10
 3469 2fa0 430000B9 		str	w3, [x2]
 3470 2fa4 B3F5FF97 		bl	sdSendCommandP
 3471 2fa8 C0F3FF35 		cbnz	w0, .L756
 3472 2fac 00048052 		mov	w0, 32
 3473 2fb0 60F4FF97 		bl	sdWaitForInterrupt
 3474 2fb4 80010035 		cbnz	w0, .L761
 3475 2fb8 630340B9 		ldr	w3, [x27, #:lo12:RPi_IO_Base_Addr]
 3476 2fbc E00314AA 		mov	x0, x20
 3477 2fc0 82020891 		add	x2, x20, 512
 3478 2fc4 63004C11 		add	w3, w3, 3145728
 3479 2fc8 63800011 		add	w3, w3, 32
 3480 2fcc 1F2003D5 		.p2align 3
 3481              	.L711:
 3482 2fd0 610040B9 		ldr	w1, [x3]
 3483 2fd4 014400B8 		str	w1, [x0], 4
 3484 2fd8 5F0000EB 		cmp	x2, x0
 3485 2fdc A1FFFF54 		bne	.L711
 3486 2fe0 66FFFF17 		b	.L697
 3487              		.p2align 2
 3488              	.L761:
 3489 2fe4 410340F9 		ldr	x1, [x26, #:lo12:.LANCHOR0]
 3490 2fe8 C1F1FFB4 		cbz	x1, .L756
 3491 2fec 00000090 		adrp	x0, .LC8
 3492 2ff0 00000091 		add	x0, x0, :lo12:.LC8
 3493 2ff4 20003FD6 		blr	x1
 3494 2ff8 00008052 		mov	w0, 0
 3495 2ffc F55B41A9 		ldp	x21, x22, [sp, 16]
 3496 3000 F76342A9 		ldp	x23, x24, [sp, 32]
 3497 3004 F96B43A9 		ldp	x25, x26, [sp, 48]
 3498 3008 FB7344A9 		ldp	x27, x28, [sp, 64]
 3499 300c FE2B40F9 		ldr	x30, [sp, 80]
 3500 3010 F353C8A8 		ldp	x19, x20, [sp], 128
 3501 3014 C0035FD6 		ret
 3502              		.p2align 2
 3503              	.L716:
 3504 3018 E13F40F9 		ldr	x1, [sp, 120]
 3505 301c 21F0FFB4 		cbz	x1, .L756
 3506 3020 00008052 		mov	w0, 0
 3507 3024 79FFFF17 		b	.L757
 3508              	.L746:
 3509 3028 F55B41A9 		ldp	x21, x22, [sp, 16]
 3510 302c F76342A9 		ldp	x23, x24, [sp, 32]
 3511 3030 F96B43A9 		ldp	x25, x26, [sp, 48]
 3512 3034 FB7344A9 		ldp	x27, x28, [sp, 64]
 3513 3038 7FFFFF17 		b	.L730
 3514              		.size	sdReadFile, .-sdReadFile
 3515              		.align	2
 3516 303c 1F2003D5 		.p2align 4,,15
 3517              		.global	sdCloseHandle
 3518              		.type	sdCloseHandle, %function
 3519              	sdCloseHandle:
 3520 3040 00040051 		sub	w0, w0, #1
 3521 3044 1F1C0071 		cmp	w0, 7
 3522 3048 48010054 		bhi	.L765
 3523 304c E103002A 		uxtw	x1, w0
AARCH64 GAS  C:\Users\A01169~1\AppData\Local\Temp\cclmDoLY.s 			page 63


 3524 3050 02000090 		adrp	x2, intFileIORecord
 3525 3054 42000091 		add	x2, x2, :lo12:intFileIORecord
 3526 3058 836380D2 		mov	x3, 796
 3527 305c 00008052 		mov	w0, 0
 3528 3060 2108039B 		madd	x1, x1, x3, x2
 3529 3064 220440B9 		ldr	w2, [x1, 4]
 3530 3068 82000035 		cbnz	w2, .L768
 3531 306c C0035FD6 		ret
 3532              		.p2align 2
 3533              	.L765:
 3534 3070 00008052 		mov	w0, 0
 3535 3074 C0035FD6 		ret
 3536              		.p2align 2
 3537              	.L768:
 3538 3078 20008052 		mov	w0, 1
 3539 307c 3F0400B9 		str	wzr, [x1, 4]
 3540 3080 C0035FD6 		ret
 3541              		.size	sdCloseHandle, .-sdCloseHandle
 3542              		.align	2
 3543 3084 1F2003D5 		.p2align 4,,15
 3543      1F2003D5 
 3543      1F2003D5 
 3544              		.global	sdSetFilePointer
 3545              		.type	sdSetFilePointer, %function
 3546              	sdSetFilePointer:
 3547 3090 F353B8A9 		stp	x19, x20, [sp, -128]!
 3548 3094 14040051 		sub	w20, w0, #1
 3549 3098 9F1E0071 		cmp	w20, 7
 3550 309c FE2B00F9 		str	x30, [sp, 80]
 3551 30a0 E23F00F9 		str	x2, [sp, 120]
 3552 30a4 68140054 		bhi	.L772
 3553 30a8 E003142A 		uxtw	x0, w20
 3554 30ac F303012A 		mov	w19, w1
 3555 30b0 E10300AA 		mov	x1, x0
 3556 30b4 F76302A9 		stp	x23, x24, [sp, 32]
 3557 30b8 18000090 		adrp	x24, intFileIORecord
 3558 30bc 18030091 		add	x24, x24, :lo12:intFileIORecord
 3559 30c0 806380D2 		mov	x0, 796
 3560 30c4 E13300F9 		str	x1, [sp, 96]
 3561 30c8 2060009B 		madd	x0, x1, x0, x24
 3562 30cc 010440B9 		ldr	w1, [x0, 4]
 3563 30d0 81130034 		cbz	w1, .L822
 3564 30d4 7F040071 		cmp	w3, 1
 3565 30d8 011843B9 		ldr	w1, [x0, 792]
 3566 30dc 401C0054 		beq	.L773
 3567 30e0 7F080071 		cmp	w3, 2
 3568 30e4 6002010B 		add	w0, w19, w1
 3569 30e8 1300931A 		csel	w19, w0, w19, eq
 3570              	.L775:
 3571 30ec 7F02016B 		cmp	w19, w1
 3572 30f0 88120054 		bhi	.L822
 3573 30f4 E23340F9 		ldr	x2, [sp, 96]
 3574 30f8 816380D2 		mov	x1, 796
 3575 30fc E003132A 		mov	w0, w19
 3576 3100 437C019B 		mul	x3, x2, x1
 3577 3104 0203038B 		add	x2, x24, x3
 3578 3108 441443B9 		ldr	w4, [x2, 788]
AARCH64 GAS  C:\Users\A01169~1\AppData\Local\Temp\cclmDoLY.s 			page 64


 3579 310c 9F00136B 		cmp	w4, w19
 3580 3110 001B0054 		beq	.L823
 3581 3114 F96B03A9 		stp	x25, x26, [sp, 48]
 3582 3118 00000090 		adrp	x0, .LANCHOR0
 3583 311c 19000091 		add	x25, x0, :lo12:.LANCHOR0
 3584 3120 000280D2 		mov	x0, 16
 3585 3124 F55B01A9 		stp	x21, x22, [sp, 16]
 3586 3128 561043B9 		ldr	w22, [x2, 784]
 3587 312c 9402A19B 		umaddl	x20, w20, w1, x0
 3588 3130 216740B9 		ldr	w1, [x25, 100]
 3589 3134 166B23B8 		str	w22, [x24, x3]
 3590 3138 D60A0051 		sub	w22, w22, #2
 3591 313c 235F40B9 		ldr	w3, [x25, 92]
 3592 3140 1403148B 		add	x20, x24, x20
 3593 3144 204340B9 		ldr	w0, [x25, 64]
 3594 3148 5F0C00B9 		str	wzr, [x2, 12]
 3595 314c 5F1403B9 		str	wzr, [x2, 788]
 3596 3150 D606031B 		madd	w22, w22, w3, w1
 3597 3154 56FC0029 		stp	w22, wzr, [x2, 4]
 3598 3158 400E0034 		cbz	w0, .L825
 3599 315c A9F3FF97 		bl	sdWaitForData
 3600 3160 000E0035 		cbnz	w0, .L825
 3601 3164 15000090 		adrp	x21, RPi_IO_Base_Addr
 3602 3168 A20240B9 		ldr	w2, [x21, #:lo12:RPi_IO_Base_Addr]
 3603 316c 204340B9 		ldr	w0, [x25, 64]
 3604 3170 04408052 		mov	w4, 512
 3605 3174 42004C11 		add	w2, w2, 3145728
 3606 3178 FB7304A9 		stp	x27, x28, [sp, 64]
 3607 317c 42100011 		add	w2, w2, 4
 3608 3180 1F0C0071 		cmp	w0, 3
 3609 3184 00000090 		adrp	x0, .LANCHOR1
 3610 3188 00000091 		add	x0, x0, :lo12:.LANCHOR1
 3611 318c E03B00F9 		str	x0, [sp, 112]
 3612 3190 430040B9 		ldr	w3, [x2]
 3613 3194 C15A1753 		lsl	w1, w22, 9
 3614 3198 2100961A 		csel	w1, w1, w22, eq
 3615 319c 00400591 		add	x0, x0, 336
 3616 31a0 633C0012 		and	w3, w3, 65535
 3617 31a4 63001032 		orr	w3, w3, 65536
 3618 31a8 430000B9 		str	w3, [x2]
 3619 31ac 430040B9 		ldr	w3, [x2]
 3620 31b0 83240033 		bfi	w3, w4, 0, 10
 3621 31b4 430000B9 		str	w3, [x2]
 3622 31b8 2EF5FF97 		bl	sdSendCommandP
 3623 31bc 600C0035 		cbnz	w0, .L835
 3624 31c0 00048052 		mov	w0, 32
 3625 31c4 DBF3FF97 		bl	sdWaitForInterrupt
 3626 31c8 20130035 		cbnz	w0, .L840
 3627 31cc A20240B9 		ldr	w2, [x21, #:lo12:RPi_IO_Base_Addr]
 3628 31d0 96020891 		add	x22, x20, 512
 3629 31d4 E00314AA 		mov	x0, x20
 3630 31d8 42004C11 		add	w2, w2, 3145728
 3631 31dc 42800011 		add	w2, w2, 32
 3632              		.p2align 3
 3633              	.L778:
 3634 31e0 410040B9 		ldr	w1, [x2]
 3635 31e4 014400B8 		str	w1, [x0], 4
AARCH64 GAS  C:\Users\A01169~1\AppData\Local\Temp\cclmDoLY.s 			page 65


 3636 31e8 1F0016EB 		cmp	x0, x22
 3637 31ec A1FFFF54 		bne	.L778
 3638 31f0 7F020871 		cmp	w19, 512
 3639 31f4 69070054 		bls	.L779
 3640 31f8 E03340F9 		ldr	x0, [sp, 96]
 3641 31fc 836380D2 		mov	x3, 796
 3642 3200 B5020091 		add	x21, x21, :lo12:RPi_IO_Base_Addr
 3643 3204 17048052 		mov	w23, 32
 3644 3208 1706A072 		movk	w23, 0x30, lsl 16
 3645 320c 1B60039B 		madd	x27, x0, x3, x24
 3646              		.p2align 3
 3647              	.L784:
 3648 3210 3A230091 		add	x26, x25, 8
 3649 3214 610B40B9 		ldr	w1, [x27, 8]
 3650 3218 405740B9 		ldr	w0, [x26, 84]
 3651 321c 3C040011 		add	w28, w1, 1
 3652 3220 7C0B00B9 		str	w28, [x27, 8]
 3653 3224 9F03006B 		cmp	w28, w0
 3654 3228 A2090054 		bcs	.L780
 3655 322c 403B40B9 		ldr	w0, [x26, 56]
 3656 3230 7F0F00B9 		str	wzr, [x27, 12]
 3657 3234 A0080034 		cbz	w0, .L835
 3658 3238 600740B9 		ldr	w0, [x27, 4]
 3659 323c E06F00B9 		str	w0, [sp, 108]
 3660 3240 70F3FF97 		bl	sdWaitForData
 3661 3244 20080035 		cbnz	w0, .L835
 3662 3248 A20240B9 		ldr	w2, [x21]
 3663 324c 03408052 		mov	w3, 512
 3664 3250 E06F40B9 		ldr	w0, [sp, 108]
 3665 3254 42004C11 		add	w2, w2, 3145728
 3666 3258 453B40B9 		ldr	w5, [x26, 56]
 3667 325c 42100011 		add	w2, w2, 4
 3668 3260 8103000B 		add	w1, w28, w0
 3669 3264 BF0C0071 		cmp	w5, 3
 3670 3268 24581753 		lsl	w4, w1, 9
 3671 326c 8100811A 		csel	w1, w4, w1, eq
 3672 3270 440040B9 		ldr	w4, [x2]
 3673 3274 E03B40F9 		ldr	x0, [sp, 112]
 3674 3278 843C0012 		and	w4, w4, 65535
 3675 327c 84001032 		orr	w4, w4, 65536
 3676 3280 440000B9 		str	w4, [x2]
 3677 3284 00400591 		add	x0, x0, 336
 3678 3288 440040B9 		ldr	w4, [x2]
 3679 328c 64240033 		bfi	w4, w3, 0, 10
 3680 3290 440000B9 		str	w4, [x2]
 3681 3294 F7F4FF97 		bl	sdSendCommandP
 3682 3298 80050035 		cbnz	w0, .L835
 3683 329c 00048052 		mov	w0, 32
 3684 32a0 A4F3FF97 		bl	sdWaitForInterrupt
 3685 32a4 400C0035 		cbnz	w0, .L840
 3686 32a8 A00240B9 		ldr	w0, [x21]
 3687 32ac E10314AA 		mov	x1, x20
 3688 32b0 0000170B 		add	w0, w0, w23
 3689 32b4 1F2003D5 		.p2align 3
 3690              	.L783:
 3691 32b8 020040B9 		ldr	w2, [x0]
 3692 32bc 224400B8 		str	w2, [x1], 4
AARCH64 GAS  C:\Users\A01169~1\AppData\Local\Temp\cclmDoLY.s 			page 66


 3693 32c0 DF0201EB 		cmp	x22, x1
 3694 32c4 A1FFFF54 		bne	.L783
 3695 32c8 601743B9 		ldr	w0, [x27, 788]
 3696 32cc 73020851 		sub	w19, w19, #512
 3697 32d0 7F020871 		cmp	w19, 512
 3698 32d4 00000811 		add	w0, w0, 512
 3699 32d8 601703B9 		str	w0, [x27, 788]
 3700 32dc A8F9FF54 		bhi	.L784
 3701              	.L779:
 3702 32e0 E13340F9 		ldr	x1, [sp, 96]
 3703 32e4 806380D2 		mov	x0, 796
 3704 32e8 3860009B 		madd	x24, x1, x0, x24
 3705 32ec E13F40F9 		ldr	x1, [sp, 120]
 3706 32f0 001743B9 		ldr	w0, [x24, 788]
 3707 32f4 130F00B9 		str	w19, [x24, 12]
 3708 32f8 6002000B 		add	w0, w19, w0
 3709 32fc 001703B9 		str	w0, [x24, 788]
 3710 3300 010C00B4 		cbz	x1, .L836
 3711 3304 F55B41A9 		ldp	x21, x22, [sp, 16]
 3712 3308 F96B43A9 		ldp	x25, x26, [sp, 48]
 3713 330c FB7344A9 		ldp	x27, x28, [sp, 64]
 3714 3310 3F0000B9 		str	wzr, [x1]
 3715 3314 001743B9 		ldr	w0, [x24, 788]
 3716 3318 F76342A9 		ldp	x23, x24, [sp, 32]
 3717 331c 06000014 		b	.L769
 3718              		.p2align 2
 3719              	.L825:
 3720 3320 F55B41A9 		ldp	x21, x22, [sp, 16]
 3721 3324 F76342A9 		ldp	x23, x24, [sp, 32]
 3722 3328 F96B43A9 		ldp	x25, x26, [sp, 48]
 3723 332c 1F2003D5 		.p2align 3
 3724              	.L772:
 3725 3330 00008012 		mov	w0, -1
 3726              	.L769:
 3727 3334 FE2B40F9 		ldr	x30, [sp, 80]
 3728 3338 F353C8A8 		ldp	x19, x20, [sp], 128
 3729 333c C0035FD6 		ret
 3730              		.p2align 2
 3731              	.L822:
 3732 3340 F76342A9 		ldp	x23, x24, [sp, 32]
 3733 3344 FBFFFF17 		b	.L772
 3734              		.p2align 2
 3735              	.L835:
 3736 3348 F55B41A9 		ldp	x21, x22, [sp, 16]
 3737 334c F76342A9 		ldp	x23, x24, [sp, 32]
 3738 3350 F96B43A9 		ldp	x25, x26, [sp, 48]
 3739 3354 FB7344A9 		ldp	x27, x28, [sp, 64]
 3740 3358 F6FFFF17 		b	.L772
 3741              		.p2align 2
 3742              	.L780:
 3743 335c 600340B9 		ldr	w0, [x27]
 3744 3360 02008052 		mov	w2, 0
 3745 3364 01008052 		mov	w1, 0
 3746 3368 00000094 		bl	getSetNextCluster
 3747 336c 1C080051 		sub	w28, w0, #2
 3748 3370 455740B9 		ldr	w5, [x26, 84]
 3749 3374 415F40B9 		ldr	w1, [x26, 92]
AARCH64 GAS  C:\Users\A01169~1\AppData\Local\Temp\cclmDoLY.s 			page 67


 3750 3378 423B40B9 		ldr	w2, [x26, 56]
 3751 337c 7F7F0129 		stp	wzr, wzr, [x27, 8]
 3752 3380 9C07051B 		madd	w28, w28, w5, w1
 3753 3384 60730029 		stp	w0, w28, [x27]
 3754 3388 02FEFF34 		cbz	w2, .L835
 3755 338c 1DF3FF97 		bl	sdWaitForData
 3756 3390 C0FDFF35 		cbnz	w0, .L835
 3757 3394 A20240B9 		ldr	w2, [x21]
 3758 3398 E1031C2A 		mov	w1, w28
 3759 339c 403B40B9 		ldr	w0, [x26, 56]
 3760 33a0 42004C11 		add	w2, w2, 3145728
 3761 33a4 42100011 		add	w2, w2, 4
 3762 33a8 1F0C0071 		cmp	w0, 3
 3763 33ac 440040B9 		ldr	w4, [x2]
 3764 33b0 41000054 		bne	.L837
 3765 33b4 815B1753 		lsl	w1, w28, 9
 3766              	.L837:
 3767 33b8 843C0012 		and	w4, w4, 65535
 3768 33bc 03408052 		mov	w3, 512
 3769 33c0 84001032 		orr	w4, w4, 65536
 3770 33c4 E03B40F9 		ldr	x0, [sp, 112]
 3771 33c8 440000B9 		str	w4, [x2]
 3772 33cc 440040B9 		ldr	w4, [x2]
 3773 33d0 00400591 		add	x0, x0, 336
 3774 33d4 64240033 		bfi	w4, w3, 0, 10
 3775 33d8 440000B9 		str	w4, [x2]
 3776 33dc A5F4FF97 		bl	sdSendCommandP
 3777 33e0 40FBFF35 		cbnz	w0, .L835
 3778 33e4 00048052 		mov	w0, 32
 3779 33e8 52F3FF97 		bl	sdWaitForInterrupt
 3780 33ec 00020035 		cbnz	w0, .L840
 3781 33f0 A00240B9 		ldr	w0, [x21]
 3782 33f4 E10314AA 		mov	x1, x20
 3783 33f8 0000170B 		add	w0, w0, w23
 3784 33fc 1F2003D5 		.p2align 3
 3785              	.L787:
 3786 3400 020040B9 		ldr	w2, [x0]
 3787 3404 224400B8 		str	w2, [x1], 4
 3788 3408 3F0016EB 		cmp	x1, x22
 3789 340c A1FFFF54 		bne	.L787
 3790 3410 601743B9 		ldr	w0, [x27, 788]
 3791 3414 73020851 		sub	w19, w19, #512
 3792 3418 7F020871 		cmp	w19, 512
 3793 341c 00000811 		add	w0, w0, 512
 3794 3420 601703B9 		str	w0, [x27, 788]
 3795 3424 68EFFF54 		bhi	.L784
 3796 3428 AEFFFF17 		b	.L779
 3797              		.p2align 2
 3798              	.L840:
 3799 342c 00000090 		adrp	x0, .LANCHOR0
 3800 3430 010040F9 		ldr	x1, [x0, #:lo12:.LANCHOR0]
 3801 3434 A1F8FFB4 		cbz	x1, .L835
 3802 3438 00000090 		adrp	x0, .LC8
 3803 343c 00000091 		add	x0, x0, :lo12:.LC8
 3804 3440 20003FD6 		blr	x1
 3805 3444 00008012 		mov	w0, -1
 3806 3448 F55B41A9 		ldp	x21, x22, [sp, 16]
AARCH64 GAS  C:\Users\A01169~1\AppData\Local\Temp\cclmDoLY.s 			page 68


 3807 344c F76342A9 		ldp	x23, x24, [sp, 32]
 3808 3450 F96B43A9 		ldp	x25, x26, [sp, 48]
 3809 3454 FB7344A9 		ldp	x27, x28, [sp, 64]
 3810 3458 FE2B40F9 		ldr	x30, [sp, 80]
 3811 345c F353C8A8 		ldp	x19, x20, [sp], 128
 3812 3460 C0035FD6 		ret
 3813              		.p2align 2
 3814              	.L773:
 3815 3464 001443B9 		ldr	w0, [x0, 788]
 3816 3468 7302000B 		add	w19, w19, w0
 3817 346c 20FFFF17 		b	.L775
 3818              		.p2align 2
 3819              	.L823:
 3820 3470 F76342A9 		ldp	x23, x24, [sp, 32]
 3821 3474 FE2B40F9 		ldr	x30, [sp, 80]
 3822 3478 F353C8A8 		ldp	x19, x20, [sp], 128
 3823 347c C0035FD6 		ret
 3824              		.p2align 2
 3825              	.L836:
 3826 3480 F55B41A9 		ldp	x21, x22, [sp, 16]
 3827 3484 F76342A9 		ldp	x23, x24, [sp, 32]
 3828 3488 F96B43A9 		ldp	x25, x26, [sp, 48]
 3829 348c FB7344A9 		ldp	x27, x28, [sp, 64]
 3830 3490 A9FFFF17 		b	.L769
 3831              		.size	sdSetFilePointer, .-sdSetFilePointer
 3832              		.align	2
 3833 3494 1F2003D5 		.p2align 4,,15
 3833      1F2003D5 
 3833      1F2003D5 
 3834              		.global	sdGetFileSize
 3835              		.type	sdGetFileSize, %function
 3836              	sdGetFileSize:
 3837 34a0 00040051 		sub	w0, w0, #1
 3838 34a4 1F1C0071 		cmp	w0, 7
 3839 34a8 08010054 		bhi	.L844
 3840 34ac 01000090 		adrp	x1, intFileIORecord
 3841 34b0 21000091 		add	x1, x1, :lo12:intFileIORecord
 3842 34b4 826380D2 		mov	x2, 796
 3843 34b8 0104029B 		madd	x1, x0, x2, x1
 3844 34bc 200440B9 		ldr	w0, [x1, 4]
 3845 34c0 80000035 		cbnz	w0, .L848
 3846 34c4 C0035FD6 		ret
 3847              		.p2align 2
 3848              	.L844:
 3849 34c8 00008052 		mov	w0, 0
 3850 34cc C0035FD6 		ret
 3851              		.p2align 2
 3852              	.L848:
 3853 34d0 201843B9 		ldr	w0, [x1, 792]
 3854 34d4 C0035FD6 		ret
 3855              		.size	sdGetFileSize, .-sdGetFileSize
 3856              		.align	2
 3857 34d8 1F2003D5 		.p2align 4,,15
 3857      1F2003D5 
 3858              		.global	sdInitCard
 3859              		.type	sdInitCard, %function
 3860              	sdInitCard:
AARCH64 GAS  C:\Users\A01169~1\AppData\Local\Temp\cclmDoLY.s 			page 69


 3861 34e0 FF0303D1 		sub	sp, sp, #192
 3862 34e4 F55B06A9 		stp	x21, x22, [sp, 96]
 3863 34e8 15000090 		adrp	x21, .LANCHOR0
 3864 34ec A10200F9 		str	x1, [x21, #:lo12:.LANCHOR0]
 3865 34f0 F35305A9 		stp	x19, x20, [sp, 80]
 3866 34f4 F76307A9 		stp	x23, x24, [sp, 112]
 3867 34f8 F70300AA 		mov	x23, x0
 3868 34fc 581C0012 		and	w24, w2, 255
 3869 3500 FE5300F9 		str	x30, [sp, 160]
 3870 3504 0BF6FF97 		bl	sdResetCard
 3871 3508 F303002A 		mov	w19, w0
 3872 350c 00010034 		cbz	w0, .L931
 3873              	.L849:
 3874 3510 E003132A 		mov	w0, w19
 3875 3514 F35345A9 		ldp	x19, x20, [sp, 80]
 3876 3518 F55B46A9 		ldp	x21, x22, [sp, 96]
 3877 351c F76347A9 		ldp	x23, x24, [sp, 112]
 3878 3520 FE5340F9 		ldr	x30, [sp, 160]
 3879 3524 FF030391 		add	sp, sp, 192
 3880 3528 C0035FD6 		ret
 3881              		.p2align 2
 3882              	.L931:
 3883 352c 14000090 		adrp	x20, .LANCHOR1
 3884 3530 94020091 		add	x20, x20, :lo12:.LANCHOR1
 3885 3534 80420291 		add	x0, x20, 144
 3886 3538 41358052 		mov	w1, 426
 3887 353c B6020091 		add	x22, x21, :lo12:.LANCHOR0
 3888 3540 4CF4FF97 		bl	sdSendCommandP
 3889 3544 F303002A 		mov	w19, w0
 3890 3548 80150035 		cbnz	w0, .L851
 3891 354c 00009052 		mov	w0, 32768
 3892 3550 E01FAA72 		movk	w0, 0x50ff, lsl 16
 3893 3554 83F5FF97 		bl	sdAppSendOpCond
 3894 3558 F303002A 		mov	w19, w0
 3895 355c A0FDFF35 		cbnz	w0, .L849
 3896 3560 C32E4139 		ldrb	w3, [x22, 75]
 3897 3564 62008052 		mov	w2, 3
 3898 3568 80008052 		mov	w0, 4
 3899 356c 7F007AF2 		tst	x3, 64
 3900 3570 0010821A 		csel	w0, w0, w2, ne
 3901 3574 C04200B9 		str	w0, [x22, 64]
 3902              	.L853:
 3903 3578 80B24039 		ldrb	w0, [x20, 44]
 3904 357c 01008052 		mov	w1, 0
 3905 3580 40000036 		tbz	x0, 0, .L857
 3906 3584 C14640B9 		ldr	w1, [x22, 68]
 3907              	.L857:
 3908 3588 80620091 		add	x0, x20, 24
 3909 358c 39F4FF97 		bl	sdSendCommandP
 3910 3590 F303002A 		mov	w19, w0
 3911 3594 E0FBFF35 		cbnz	w0, .L849
 3912 3598 80124139 		ldrb	w0, [x20, 68]
 3913 359c 01008052 		mov	w1, 0
 3914 35a0 40000036 		tbz	x0, 0, .L858
 3915 35a4 C14640B9 		ldr	w1, [x22, 68]
 3916              	.L858:
 3917 35a8 80C20091 		add	x0, x20, 48
AARCH64 GAS  C:\Users\A01169~1\AppData\Local\Temp\cclmDoLY.s 			page 70


 3918 35ac 31F4FF97 		bl	sdSendCommandP
 3919 35b0 F303002A 		mov	w19, w0
 3920 35b4 E0FAFF35 		cbnz	w0, .L849
 3921 35b8 80F24239 		ldrb	w0, [x20, 188]
 3922 35bc 01008052 		mov	w1, 0
 3923 35c0 40000036 		tbz	x0, 0, .L859
 3924 35c4 C14640B9 		ldr	w1, [x22, 68]
 3925              	.L859:
 3926 35c8 80A20291 		add	x0, x20, 168
 3927 35cc 29F4FF97 		bl	sdSendCommandP
 3928 35d0 F303002A 		mov	w19, w0
 3929 35d4 E0F9FF35 		cbnz	w0, .L849
 3930 35d8 00088F52 		mov	w0, 30784
 3931 35dc A02FA072 		movk	w0, 0x17d, lsl 16
 3932 35e0 40F3FF97 		bl	sdSetClock
 3933 35e4 F303002A 		mov	w19, w0
 3934 35e8 40F9FF35 		cbnz	w0, .L849
 3935 35ec 80324239 		ldrb	w0, [x20, 140]
 3936 35f0 01008052 		mov	w1, 0
 3937 35f4 40000036 		tbz	x0, 0, .L860
 3938 35f8 C14640B9 		ldr	w1, [x22, 68]
 3939              	.L860:
 3940 35fc 80E20191 		add	x0, x20, 120
 3941 3600 1CF4FF97 		bl	sdSendCommandP
 3942 3604 F303002A 		mov	w19, w0
 3943 3608 40F8FF35 		cbnz	w0, .L849
 3944 360c 7DF2FF97 		bl	sdWaitForData
 3945 3610 A0150035 		cbnz	w0, .L873
 3946 3614 F96B08A9 		stp	x25, x26, [sp, 128]
 3947 3618 1A000090 		adrp	x26, RPi_IO_Base_Addr
 3948 361c 400340B9 		ldr	w0, [x26, #:lo12:RPi_IO_Base_Addr]
 3949 3620 02018052 		mov	w2, 8
 3950 3624 D9220091 		add	x25, x22, 8
 3951 3628 00004C11 		add	w0, w0, 3145728
 3952 362c 00100011 		add	w0, w0, 4
 3953 3630 010040B9 		ldr	w1, [x0]
 3954 3634 213C0012 		and	w1, w1, 65535
 3955 3638 21001032 		orr	w1, w1, 65536
 3956 363c 010000B9 		str	w1, [x0]
 3957 3640 010040B9 		ldr	w1, [x0]
 3958 3644 41240033 		bfi	w1, w2, 0, 10
 3959 3648 010000B9 		str	w1, [x0]
 3960 364c 213F40B9 		ldr	w1, [x25, 60]
 3961 3650 E1130035 		cbnz	w1, .L862
 3962 3654 80E20A91 		add	x0, x20, 696
 3963 3658 06F4FF97 		bl	sdSendCommandP
 3964              	.L863:
 3965 365c 80924E39 		ldrb	w0, [x20, 932]
 3966 3660 01008052 		mov	w1, 0
 3967 3664 40000036 		tbz	x0, 0, .L865
 3968 3668 C14640B9 		ldr	w1, [x22, 68]
 3969              	.L865:
 3970 366c 80420E91 		add	x0, x20, 912
 3971 3670 00F4FF97 		bl	sdSendCommandP
 3972 3674 F303002A 		mov	w19, w0
 3973 3678 40160035 		cbnz	w0, .L924
 3974 367c C14640B9 		ldr	w1, [x22, 68]
AARCH64 GAS  C:\Users\A01169~1\AppData\Local\Temp\cclmDoLY.s 			page 71


 3975 3680 61000034 		cbz	w1, .L866
 3976 3684 C04E40B9 		ldr	w0, [x22, 76]
 3977 3688 60192836 		tbz	x0, 5, .L880
 3978              	.L866:
 3979 368c 00048052 		mov	w0, 32
 3980 3690 A8F2FF97 		bl	sdWaitForInterrupt
 3981 3694 F303002A 		mov	w19, w0
 3982 3698 80160035 		cbnz	w0, .L932
 3983 369c 13000090 		adrp	x19, RPi_IO_Base_Addr
 3984 36a0 73020091 		add	x19, x19, :lo12:RPi_IO_Base_Addr
 3985 36a4 02D49052 		mov	w2, 34464
 3986 36a8 2200A072 		movk	w2, 0x1, lsl 16
 3987 36ac 19008052 		mov	w25, 0
 3988 36b0 FB7309A9 		stp	x27, x28, [sp, 144]
 3989 36b4 9B048052 		mov	w27, 36
 3990 36b8 1B06A072 		movk	w27, 0x30, lsl 16
 3991 36bc 1C048052 		mov	w28, 32
 3992 36c0 1C06A072 		movk	w28, 0x30, lsl 16
 3993 36c4 1F2003D5 		.p2align 3
 3994              	.L867:
 3995 36c8 600240B9 		ldr	w0, [x19]
 3996 36cc 01001B0B 		add	w1, w0, w27
 3997 36d0 00001C0B 		add	w0, w0, w28
 3998 36d4 210040B9 		ldr	w1, [x1]
 3999 36d8 810B4836 		tbz	x1, 9, .L868
 4000 36dc 000040B9 		ldr	w0, [x0]
 4001 36e0 C1220091 		add	x1, x22, 8
 4002 36e4 F90A0035 		cbnz	w25, .L869
 4003 36e8 202400B9 		str	w0, [x1, 36]
 4004              	.L870:
 4005 36ec 39070011 		add	w25, w25, 1
 4006 36f0 3F0B0071 		cmp	w25, 2
 4007 36f4 A1FEFF54 		bne	.L867
 4008 36f8 D5220091 		add	x21, x22, 8
 4009 36fc A02640B9 		ldr	w0, [x21, 36]
 4010 3700 002C48D3 		ubfx	x0, x0, 8, 4
 4011 3704 1F100071 		cmp	w0, 4
 4012 3708 200F0054 		beq	.L933
 4013              	.L874:
 4014 370c 80E20491 		add	x0, x20, 312
 4015 3710 01408052 		mov	w1, 512
 4016 3714 D7F3FF97 		bl	sdSendCommandP
 4017 3718 F303002A 		mov	w19, w0
 4018 371c 80060035 		cbnz	w0, .L930
 4019 3720 C11240B9 		ldr	w1, [x22, 16]
 4020 3724 C01640B9 		ldr	w0, [x22, 20]
 4021 3728 213C0012 		and	w1, w1, 65535
 4022 372c 007C1053 		lsr	w0, w0, 16
 4023 3730 D70500B4 		cbz	x23, .L881
 4024 3734 D14240B9 		ldr	w17, [x22, 64]
 4025 3738 02000090 		adrp	x2, .LANCHOR2
 4026 373c 42000091 		add	x2, x2, :lo12:.LANCHOR2
 4027 3740 C32A4039 		ldrb	w3, [x22, 10]
 4028 3744 C4264039 		ldrb	w4, [x22, 9]
 4029 3748 0A40012A 		orr	w10, w0, w1, lsl 16
 4030 374c C5224039 		ldrb	w5, [x22, 8]
 4031 3750 00000090 		adrp	x0, .LC16
AARCH64 GAS  C:\Users\A01169~1\AppData\Local\Temp\cclmDoLY.s 			page 72


 4032 3754 00000091 		add	x0, x0, :lo12:.LC16
 4033 3758 C63E4039 		ldrb	w6, [x22, 15]
 4034 375c C73A4039 		ldrb	w7, [x22, 14]
 4035 3760 631C0012 		and	w3, w3, 255
 4036 3764 D0364039 		ldrb	w16, [x22, 13]
 4037 3768 841C0012 		and	w4, w4, 255
 4038 376c CF324039 		ldrb	w15, [x22, 12]
 4039 3770 A51C0012 		and	w5, w5, 255
 4040 3774 CE4E4039 		ldrb	w14, [x22, 19]
 4041 3778 101E0012 		and	w16, w16, 255
 4042 377c CD1240B9 		ldr	w13, [x22, 16]
 4043 3780 EF1D0012 		and	w15, w15, 255
 4044 3784 CC1240B9 		ldr	w12, [x22, 16]
 4045 3788 CE1D0012 		and	w14, w14, 255
 4046 378c CB1640B9 		ldr	w11, [x22, 20]
 4047 3790 C61C0012 		and	w6, w6, 255
 4048 3794 C91640B9 		ldr	w9, [x22, 20]
 4049 3798 AD5D54D3 		ubfx	x13, x13, 20, 4
 4050 379c C88E4079 		ldrh	w8, [x22, 70]
 4051 37a0 8C4D50D3 		ubfx	x12, x12, 16, 4
 4052 37a4 417871F8 		ldr	x1, [x2, x17, lsl 3]
 4053 37a8 292D44D3 		ubfx	x9, x9, 4, 8
 4054 37ac C21E40F9 		ldr	x2, [x22, 56]
 4055 37b0 6B0D0012 		and	w11, w11, 15
 4056 37b4 29411F11 		add	w9, w9, 2000
 4057 37b8 F00300B9 		str	w16, [sp]
 4058 37bc EF0B00B9 		str	w15, [sp, 8]
 4059 37c0 E71C0012 		and	w7, w7, 255
 4060 37c4 EE1300B9 		str	w14, [sp, 16]
 4061 37c8 42CC54D3 		ubfx	x2, x2, 20, 32
 4062 37cc ED1B00B9 		str	w13, [sp, 24]
 4063 37d0 EC2300B9 		str	w12, [sp, 32]
 4064 37d4 EB2B00B9 		str	w11, [sp, 40]
 4065 37d8 E93300B9 		str	w9, [sp, 48]
 4066 37dc EA3B00B9 		str	w10, [sp, 56]
 4067 37e0 E84300B9 		str	w8, [sp, 64]
 4068 37e4 E0023FD6 		blr	x23
 4069              	.L881:
 4070 37e8 180B0035 		cbnz	w24, .L934
 4071              	.L930:
 4072 37ec F96B48A9 		ldp	x25, x26, [sp, 128]
 4073 37f0 FB7349A9 		ldp	x27, x28, [sp, 144]
 4074 37f4 47FFFF17 		b	.L849
 4075              		.p2align 2
 4076              	.L851:
 4077 37f8 1F0C0071 		cmp	w0, 3
 4078 37fc A0E8FF54 		beq	.L849
 4079 3800 00000090 		adrp	x0, RPi_IO_Base_Addr
 4080 3804 000040B9 		ldr	w0, [x0, #:lo12:RPi_IO_Base_Addr]
 4081 3808 00004C11 		add	w0, w0, 3145728
 4082 380c 00900011 		add	w0, w0, 36
 4083 3810 000040B9 		ldr	w0, [x0]
 4084 3814 80000036 		tbz	x0, 0, .L856
 4085 3818 46F5FF97 		bl	sdResetCard
 4086 381c F303002A 		mov	w19, w0
 4087 3820 80E7FF35 		cbnz	w0, .L849
 4088              	.L856:
AARCH64 GAS  C:\Users\A01169~1\AppData\Local\Temp\cclmDoLY.s 			page 73


 4089 3824 E0231132 		mov	w0, 16744448
 4090 3828 CEF4FF97 		bl	sdAppSendOpCond
 4091 382c F303002A 		mov	w19, w0
 4092 3830 00E7FF35 		cbnz	w0, .L849
 4093 3834 40008052 		mov	w0, 2
 4094 3838 C04200B9 		str	w0, [x22, 64]
 4095 383c 4FFFFF17 		b	.L853
 4096              	.L869:
 4097 3840 202800B9 		str	w0, [x1, 40]
 4098 3844 AAFFFF17 		b	.L870
 4099              	.L868:
 4100 3848 200080D2 		mov	x0, 1
 4101 384c E2BF00B9 		str	w2, [sp, 188]
 4102 3850 00000094 		bl	timer_wait
 4103 3854 E2BF40B9 		ldr	w2, [sp, 188]
 4104 3858 42040071 		subs	w2, w2, #1
 4105 385c 61F3FF54 		bne	.L867
 4106 3860 A40240F9 		ldr	x4, [x21, #:lo12:.LANCHOR0]
 4107 3864 C40200B4 		cbz	x4, .L925
 4108 3868 610240B9 		ldr	w1, [x19]
 4109 386c E2870C32 		mov	w2, 3145776
 4110 3870 00000090 		adrp	x0, .LC14
 4111 3874 00000091 		add	x0, x0, :lo12:.LC14
 4112 3878 23004C11 		add	w3, w1, 3145728
 4113 387c 3B001B0B 		add	w27, w1, w27
 4114 3880 2200020B 		add	w2, w1, w2
 4115 3884 63400011 		add	w3, w3, 16
 4116 3888 53008052 		mov	w19, 2
 4117 388c 610340B9 		ldr	w1, [x27]
 4118 3890 420040B9 		ldr	w2, [x2]
 4119 3894 630040B9 		ldr	w3, [x3]
 4120 3898 80003FD6 		blr	x4
 4121 389c A20240F9 		ldr	x2, [x21, #:lo12:.LANCHOR0]
 4122 38a0 E103192A 		mov	w1, w25
 4123 38a4 00000090 		adrp	x0, .LC15
 4124 38a8 00000091 		add	x0, x0, :lo12:.LC15
 4125 38ac 40003FD6 		blr	x2
 4126 38b0 F96B48A9 		ldp	x25, x26, [sp, 128]
 4127 38b4 FB7349A9 		ldp	x27, x28, [sp, 144]
 4128 38b8 16FFFF17 		b	.L849
 4129              	.L925:
 4130 38bc F96B48A9 		ldp	x25, x26, [sp, 128]
 4131 38c0 FB7349A9 		ldp	x27, x28, [sp, 144]
 4132              	.L873:
 4133 38c4 53008052 		mov	w19, 2
 4134 38c8 12FFFF17 		b	.L849
 4135              	.L862:
 4136 38cc 80420B91 		add	x0, x20, 720
 4137 38d0 68F3FF97 		bl	sdSendCommandP
 4138 38d4 80050035 		cbnz	w0, .L935
 4139 38d8 204740B9 		ldr	w0, [x25, 68]
 4140 38dc 00EC2F37 		tbnz	x0, 5, .L863
 4141              	.L878:
 4142 38e0 33008052 		mov	w19, 1
 4143 38e4 F96B48A9 		ldp	x25, x26, [sp, 128]
 4144 38e8 0AFFFF17 		b	.L849
 4145              	.L933:
AARCH64 GAS  C:\Users\A01169~1\AppData\Local\Temp\cclmDoLY.s 			page 74


 4146 38ec B93E40B9 		ldr	w25, [x21, 60]
 4147 38f0 19050035 		cbnz	w25, .L875
 4148 38f4 01008052 		mov	w1, 0
 4149 38f8 80E20A91 		add	x0, x20, 696
 4150 38fc 5DF3FF97 		bl	sdSendCommandP
 4151              	.L876:
 4152 3900 21031F32 		orr	w1, w25, 2
 4153 3904 80020C91 		add	x0, x20, 768
 4154 3908 5AF3FF97 		bl	sdSendCommandP
 4155 390c F303002A 		mov	w19, w0
 4156 3910 E0F6FF35 		cbnz	w0, .L930
 4157 3914 C14640B9 		ldr	w1, [x22, 68]
 4158 3918 61000034 		cbz	w1, .L879
 4159 391c C04E40B9 		ldr	w0, [x22, 76]
 4160 3920 80042836 		tbz	x0, 5, .L928
 4161              	.L879:
 4162 3924 400340B9 		ldr	w0, [x26, #:lo12:RPi_IO_Base_Addr]
 4163 3928 00004C11 		add	w0, w0, 3145728
 4164 392c 00A00011 		add	w0, w0, 40
 4165 3930 010040B9 		ldr	w1, [x0]
 4166 3934 21001F32 		orr	w1, w1, 2
 4167 3938 010000B9 		str	w1, [x0]
 4168 393c 74FFFF17 		b	.L874
 4169              	.L924:
 4170 3940 F96B48A9 		ldp	x25, x26, [sp, 128]
 4171 3944 F3FEFF17 		b	.L849
 4172              	.L934:
 4173 3948 E00317AA 		mov	x0, x23
 4174 394c F1F5FF97 		bl	LoadDrivePartition
 4175 3950 1F1C0072 		tst	w0, 255
 4176 3954 93018052 		mov	w19, 12
 4177 3958 F313931A 		csel	w19, wzr, w19, ne
 4178 395c F96B48A9 		ldp	x25, x26, [sp, 128]
 4179 3960 FB7349A9 		ldp	x27, x28, [sp, 144]
 4180 3964 EBFEFF17 		b	.L849
 4181              	.L932:
 4182 3968 A10240F9 		ldr	x1, [x21, #:lo12:.LANCHOR0]
 4183 396c A1FEFFB4 		cbz	x1, .L924
 4184 3970 00000090 		adrp	x0, .LC8
 4185 3974 00000091 		add	x0, x0, :lo12:.LC8
 4186 3978 20003FD6 		blr	x1
 4187 397c F96B48A9 		ldp	x25, x26, [sp, 128]
 4188 3980 E4FEFF17 		b	.L849
 4189              	.L935:
 4190 3984 F303002A 		mov	w19, w0
 4191 3988 F96B48A9 		ldp	x25, x26, [sp, 128]
 4192 398c E1FEFF17 		b	.L849
 4193              	.L875:
 4194 3990 E103192A 		mov	w1, w25
 4195 3994 80420B91 		add	x0, x20, 720
 4196 3998 36F3FF97 		bl	sdSendCommandP
 4197 399c 20010035 		cbnz	w0, .L936
 4198 39a0 A04640B9 		ldr	w0, [x21, 68]
 4199 39a4 E0FA2F37 		tbnz	x0, 5, .L876
 4200 39a8 FB7349A9 		ldp	x27, x28, [sp, 144]
 4201 39ac CDFFFF17 		b	.L878
 4202              	.L928:
AARCH64 GAS  C:\Users\A01169~1\AppData\Local\Temp\cclmDoLY.s 			page 75


 4203 39b0 FB7349A9 		ldp	x27, x28, [sp, 144]
 4204              	.L880:
 4205 39b4 33018052 		mov	w19, 9
 4206 39b8 F96B48A9 		ldp	x25, x26, [sp, 128]
 4207 39bc D5FEFF17 		b	.L849
 4208              	.L936:
 4209 39c0 F303002A 		mov	w19, w0
 4210 39c4 F96B48A9 		ldp	x25, x26, [sp, 128]
 4211 39c8 FB7349A9 		ldp	x27, x28, [sp, 144]
 4212 39cc D1FEFF17 		b	.L849
 4213              		.size	sdInitCard, .-sdInitCard
 4214              		.align	2
 4215              		.p2align 4,,15
 4216              		.global	sdCardCSD
 4217              		.type	sdCardCSD, %function
 4218              	sdCardCSD:
 4219 39d0 01000090 		adrp	x1, .LANCHOR0
 4220 39d4 21000091 		add	x1, x1, :lo12:.LANCHOR0
 4221 39d8 20600091 		add	x0, x1, 24
 4222 39dc 214040B9 		ldr	w1, [x1, 64]
 4223 39e0 3F000071 		cmp	w1, 0
 4224 39e4 00109F9A 		csel	x0, x0, xzr, ne
 4225 39e8 C0035FD6 		ret
 4226              		.size	sdCardCSD, .-sdCardCSD
 4227              		.global	LOG_ERROR
 4228              		.section	.rodata
 4229              		.align	3
 4230              		.set	.LANCHOR2,. + 0
 4231              		.type	SD_TYPE_NAME, %object
 4232              		.size	SD_TYPE_NAME, 40
 4233              	SD_TYPE_NAME:
 4234 0000 00000000 		.xword	.LC17
 4234      00000000 
 4235 0008 00000000 		.xword	.LC18
 4235      00000000 
 4236 0010 00000000 		.xword	.LC19
 4236      00000000 
 4237 0018 00000000 		.xword	.LC20
 4237      00000000 
 4238 0020 00000000 		.xword	.LC21
 4238      00000000 
 4239              		.data
 4240              		.align	3
 4241              		.set	.LANCHOR1,. + 0
 4242              		.type	sdCommandTable, %object
 4243              		.size	sdCommandTable, 936
 4244              	sdCommandTable:
 4245 0000 474F5F49 		.string	"GO_IDLE_STATE"
 4245      444C455F 
 4245      53544154 
 4245      4500
 4246 000e 0000     		.zero	2
 4247 0010 0000     		.zero	2
 4248 0012 00       		.byte	0
 4249 0013 00       		.byte	0
 4250 0014 00       		.byte	0
 4251 0015 00       		.zero	1
AARCH64 GAS  C:\Users\A01169~1\AppData\Local\Temp\cclmDoLY.s 			page 76


 4252 0016 0000     		.hword	0
 4253 0018 414C4C5F 		.string	"ALL_SEND_CID"
 4253      53454E44 
 4253      5F434944 
 4253      00
 4254 0025 000000   		.zero	3
 4255 0028 0000     		.zero	2
 4256 002a 01       		.byte	1
 4257 002b 02       		.byte	2
 4258 002c 00       		.byte	0
 4259 002d 00       		.zero	1
 4260 002e 0000     		.hword	0
 4261 0030 53454E44 		.string	"SEND_REL_ADDR"
 4261      5F52454C 
 4261      5F414444 
 4261      5200
 4262 003e 0000     		.zero	2
 4263 0040 0000     		.zero	2
 4264 0042 02       		.byte	2
 4265 0043 03       		.byte	3
 4266 0044 00       		.byte	0
 4267 0045 00       		.zero	1
 4268 0046 0000     		.hword	0
 4269 0048 5345545F 		.string	"SET_DSR"
 4269      44535200 
 4270 0050 00000000 		.zero	8
 4270      00000000 
 4271 0058 0000     		.zero	2
 4272 005a 00       		.byte	0
 4273 005b 04       		.byte	4
 4274 005c 00       		.byte	0
 4275 005d 00       		.zero	1
 4276 005e 0000     		.hword	0
 4277 0060 53574954 		.string	"SWITCH_FUNC"
 4277      43485F46 
 4277      554E4300 
 4278 006c 00000000 		.zero	4
 4279 0070 0000     		.zero	2
 4280 0072 02       		.byte	2
 4281 0073 06       		.byte	6
 4282 0074 00       		.byte	0
 4283 0075 00       		.zero	1
 4284 0076 0000     		.hword	0
 4285 0078 43415244 		.string	"CARD_SELECT"
 4285      5F53454C 
 4285      45435400 
 4286 0084 00000000 		.zero	4
 4287 0088 0000     		.zero	2
 4288 008a 03       		.byte	3
 4289 008b 07       		.byte	7
 4290 008c 01       		.byte	1
 4291 008d 00       		.zero	1
 4292 008e 0000     		.hword	0
 4293 0090 53454E44 		.string	"SEND_IF_COND"
 4293      5F49465F 
 4293      434F4E44 
 4293      00
AARCH64 GAS  C:\Users\A01169~1\AppData\Local\Temp\cclmDoLY.s 			page 77


 4294 009d 000000   		.zero	3
 4295 00a0 0000     		.zero	2
 4296 00a2 02       		.byte	2
 4297 00a3 08       		.byte	8
 4298 00a4 00       		.byte	0
 4299 00a5 00       		.zero	1
 4300 00a6 6400     		.hword	100
 4301 00a8 53454E44 		.string	"SEND_CSD"
 4301      5F435344 
 4301      00
 4302 00b1 00000000 		.zero	7
 4302      000000
 4303 00b8 0000     		.zero	2
 4304 00ba 01       		.byte	1
 4305 00bb 09       		.byte	9
 4306 00bc 01       		.byte	1
 4307 00bd 00       		.zero	1
 4308 00be 0000     		.hword	0
 4309 00c0 53454E44 		.string	"SEND_CID"
 4309      5F434944 
 4309      00
 4310 00c9 00000000 		.zero	7
 4310      000000
 4311 00d0 0000     		.zero	2
 4312 00d2 01       		.byte	1
 4313 00d3 0A       		.byte	10
 4314 00d4 01       		.byte	1
 4315 00d5 00       		.zero	1
 4316 00d6 0000     		.hword	0
 4317 00d8 564F4C54 		.string	"VOLT_SWITCH"
 4317      5F535749 
 4317      54434800 
 4318 00e4 00000000 		.zero	4
 4319 00e8 0000     		.zero	2
 4320 00ea 02       		.byte	2
 4321 00eb 0B       		.byte	11
 4322 00ec 00       		.byte	0
 4323 00ed 00       		.zero	1
 4324 00ee 0000     		.hword	0
 4325 00f0 53544F50 		.string	"STOP_TRANS"
 4325      5F545241 
 4325      4E5300
 4326 00fb 00000000 		.zero	5
 4326      00
 4327 0100 0000     		.zero	2
 4328 0102 03       		.byte	3
 4329 0103 0C       		.byte	12
 4330 0104 00       		.byte	0
 4331 0105 00       		.zero	1
 4332 0106 0000     		.hword	0
 4333 0108 53454E44 		.string	"SEND_STATUS"
 4333      5F535441 
 4333      54555300 
 4334 0114 00000000 		.zero	4
 4335 0118 0000     		.zero	2
 4336 011a 02       		.byte	2
 4337 011b 0D       		.byte	13
AARCH64 GAS  C:\Users\A01169~1\AppData\Local\Temp\cclmDoLY.s 			page 78


 4338 011c 01       		.byte	1
 4339 011d 00       		.zero	1
 4340 011e 0000     		.hword	0
 4341 0120 474F5F49 		.string	"GO_INACTIVE"
 4341      4E414354 
 4341      49564500 
 4342 012c 00000000 		.zero	4
 4343 0130 0000     		.zero	2
 4344 0132 00       		.byte	0
 4345 0133 0F       		.byte	15
 4346 0134 01       		.byte	1
 4347 0135 00       		.zero	1
 4348 0136 0000     		.hword	0
 4349 0138 5345545F 		.string	"SET_BLOCKLEN"
 4349      424C4F43 
 4349      4B4C454E 
 4349      00
 4350 0145 000000   		.zero	3
 4351 0148 0000     		.zero	2
 4352 014a 02       		.byte	2
 4353 014b 10       		.byte	16
 4354 014c 00       		.byte	0
 4355 014d 00       		.zero	1
 4356 014e 0000     		.hword	0
 4357 0150 52454144 		.string	"READ_SINGLE"
 4357      5F53494E 
 4357      474C4500 
 4358 015c 00000000 		.zero	4
 4359 0160 10       		.byte	16
 4360 0161 00       		.zero	1
 4361 0162 22       		.byte	34
 4362 0163 11       		.byte	17
 4363 0164 00       		.byte	0
 4364 0165 00       		.zero	1
 4365 0166 0000     		.hword	0
 4366 0168 52454144 		.string	"READ_MULTI"
 4366      5F4D554C 
 4366      544900
 4367 0173 00000000 		.zero	5
 4367      00
 4368 0178 32       		.byte	50
 4369 0179 00       		.zero	1
 4370 017a 22       		.byte	34
 4371 017b 12       		.byte	18
 4372 017c 00       		.byte	0
 4373 017d 00       		.zero	1
 4374 017e 0000     		.hword	0
 4375 0180 53454E44 		.string	"SEND_TUNING"
 4375      5F54554E 
 4375      494E4700 
 4376 018c 00000000 		.zero	4
 4377 0190 0000     		.zero	2
 4378 0192 02       		.byte	2
 4379 0193 13       		.byte	19
 4380 0194 00       		.byte	0
 4381 0195 00       		.zero	1
 4382 0196 0000     		.hword	0
AARCH64 GAS  C:\Users\A01169~1\AppData\Local\Temp\cclmDoLY.s 			page 79


 4383 0198 53504545 		.string	"SPEED_CLASS"
 4383      445F434C 
 4383      41535300 
 4384 01a4 00000000 		.zero	4
 4385 01a8 0000     		.zero	2
 4386 01aa 03       		.byte	3
 4387 01ab 14       		.byte	20
 4388 01ac 00       		.byte	0
 4389 01ad 00       		.zero	1
 4390 01ae 0000     		.hword	0
 4391 01b0 5345545F 		.string	"SET_BLOCKCNT"
 4391      424C4F43 
 4391      4B434E54 
 4391      00
 4392 01bd 000000   		.zero	3
 4393 01c0 0000     		.zero	2
 4394 01c2 02       		.byte	2
 4395 01c3 17       		.byte	23
 4396 01c4 00       		.byte	0
 4397 01c5 00       		.zero	1
 4398 01c6 0000     		.hword	0
 4399 01c8 57524954 		.string	"WRITE_SINGLE"
 4399      455F5349 
 4399      4E474C45 
 4399      00
 4400 01d5 000000   		.zero	3
 4401 01d8 0000     		.zero	2
 4402 01da 22       		.byte	34
 4403 01db 18       		.byte	24
 4404 01dc 00       		.byte	0
 4405 01dd 00       		.zero	1
 4406 01de 0000     		.hword	0
 4407 01e0 57524954 		.string	"WRITE_MULTI"
 4407      455F4D55 
 4407      4C544900 
 4408 01ec 00000000 		.zero	4
 4409 01f0 22       		.byte	34
 4410 01f1 00       		.zero	1
 4411 01f2 22       		.byte	34
 4412 01f3 19       		.byte	25
 4413 01f4 00       		.byte	0
 4414 01f5 00       		.zero	1
 4415 01f6 0000     		.hword	0
 4416 01f8 50524F47 		.string	"PROGRAM_CSD"
 4416      52414D5F 
 4416      43534400 
 4417 0204 00000000 		.zero	4
 4418 0208 0000     		.zero	2
 4419 020a 02       		.byte	2
 4420 020b 1B       		.byte	27
 4421 020c 00       		.byte	0
 4422 020d 00       		.zero	1
 4423 020e 0000     		.hword	0
 4424 0210 5345545F 		.string	"SET_WRITE_PR"
 4424      57524954 
 4424      455F5052 
 4424      00
AARCH64 GAS  C:\Users\A01169~1\AppData\Local\Temp\cclmDoLY.s 			page 80


 4425 021d 000000   		.zero	3
 4426 0220 0000     		.zero	2
 4427 0222 03       		.byte	3
 4428 0223 1C       		.byte	28
 4429 0224 00       		.byte	0
 4430 0225 00       		.zero	1
 4431 0226 0000     		.hword	0
 4432 0228 434C525F 		.string	"CLR_WRITE_PR"
 4432      57524954 
 4432      455F5052 
 4432      00
 4433 0235 000000   		.zero	3
 4434 0238 0000     		.zero	2
 4435 023a 03       		.byte	3
 4436 023b 1D       		.byte	29
 4437 023c 00       		.byte	0
 4438 023d 00       		.zero	1
 4439 023e 0000     		.hword	0
 4440 0240 534E445F 		.string	"SND_WRITE_PR"
 4440      57524954 
 4440      455F5052 
 4440      00
 4441 024d 000000   		.zero	3
 4442 0250 0000     		.zero	2
 4443 0252 02       		.byte	2
 4444 0253 1E       		.byte	30
 4445 0254 00       		.byte	0
 4446 0255 00       		.zero	1
 4447 0256 0000     		.hword	0
 4448 0258 45524153 		.string	"ERASE_WR_ST"
 4448      455F5752 
 4448      5F535400 
 4449 0264 00000000 		.zero	4
 4450 0268 0000     		.zero	2
 4451 026a 02       		.byte	2
 4452 026b 20       		.byte	32
 4453 026c 00       		.byte	0
 4454 026d 00       		.zero	1
 4455 026e 0000     		.hword	0
 4456 0270 45524153 		.string	"ERASE_WR_END"
 4456      455F5752 
 4456      5F454E44 
 4456      00
 4457 027d 000000   		.zero	3
 4458 0280 0000     		.zero	2
 4459 0282 02       		.byte	2
 4460 0283 21       		.byte	33
 4461 0284 00       		.byte	0
 4462 0285 00       		.zero	1
 4463 0286 0000     		.hword	0
 4464 0288 45524153 		.string	"ERASE"
 4464      4500
 4465 028e 00000000 		.zero	10
 4465      00000000 
 4465      0000
 4466 0298 0000     		.zero	2
 4467 029a 03       		.byte	3
AARCH64 GAS  C:\Users\A01169~1\AppData\Local\Temp\cclmDoLY.s 			page 81


 4468 029b 26       		.byte	38
 4469 029c 00       		.byte	0
 4470 029d 00       		.zero	1
 4471 029e 0000     		.hword	0
 4472 02a0 4C4F434B 		.string	"LOCK_UNLOCK"
 4472      5F554E4C 
 4472      4F434B00 
 4473 02ac 00000000 		.zero	4
 4474 02b0 0000     		.zero	2
 4475 02b2 02       		.byte	2
 4476 02b3 2A       		.byte	42
 4477 02b4 00       		.byte	0
 4478 02b5 00       		.zero	1
 4479 02b6 0000     		.hword	0
 4480 02b8 4150505F 		.string	"APP_CMD"
 4480      434D4400 
 4481 02c0 00000000 		.zero	8
 4481      00000000 
 4482 02c8 0000     		.zero	2
 4483 02ca 00       		.byte	0
 4484 02cb 37       		.byte	55
 4485 02cc 00       		.byte	0
 4486 02cd 00       		.zero	1
 4487 02ce 6400     		.hword	100
 4488 02d0 4150505F 		.string	"APP_CMD"
 4488      434D4400 
 4489 02d8 00000000 		.zero	8
 4489      00000000 
 4490 02e0 0000     		.zero	2
 4491 02e2 02       		.byte	2
 4492 02e3 37       		.byte	55
 4493 02e4 01       		.byte	1
 4494 02e5 00       		.zero	1
 4495 02e6 0000     		.hword	0
 4496 02e8 47454E5F 		.string	"GEN_CMD"
 4496      434D4400 
 4497 02f0 00000000 		.zero	8
 4497      00000000 
 4498 02f8 0000     		.zero	2
 4499 02fa 02       		.byte	2
 4500 02fb 38       		.byte	56
 4501 02fc 00       		.byte	0
 4502 02fd 00       		.zero	1
 4503 02fe 0000     		.hword	0
 4504 0300 5345545F 		.string	"SET_BUS_WIDTH"
 4504      4255535F 
 4504      57494454 
 4504      4800
 4505 030e 0000     		.zero	2
 4506 0310 0000     		.zero	2
 4507 0312 02       		.byte	2
 4508 0313 06       		.byte	6
 4509 0314 00       		.byte	0
 4510 0315 00       		.zero	1
 4511 0316 0000     		.hword	0
 4512 0318 53445F53 		.string	"SD_STATUS"
 4512      54415455 
AARCH64 GAS  C:\Users\A01169~1\AppData\Local\Temp\cclmDoLY.s 			page 82


 4512      5300
 4513 0322 00000000 		.zero	6
 4513      0000
 4514 0328 0000     		.zero	2
 4515 032a 02       		.byte	2
 4516 032b 0D       		.byte	13
 4517 032c 01       		.byte	1
 4518 032d 00       		.zero	1
 4519 032e 0000     		.hword	0
 4520 0330 53454E44 		.string	"SEND_NUM_WRBL"
 4520      5F4E554D 
 4520      5F575242 
 4520      4C00
 4521 033e 0000     		.zero	2
 4522 0340 0000     		.zero	2
 4523 0342 02       		.byte	2
 4524 0343 16       		.byte	22
 4525 0344 00       		.byte	0
 4526 0345 00       		.zero	1
 4527 0346 0000     		.hword	0
 4528 0348 53454E44 		.string	"SEND_NUM_ERS"
 4528      5F4E554D 
 4528      5F455253 
 4528      00
 4529 0355 000000   		.zero	3
 4530 0358 0000     		.zero	2
 4531 035a 02       		.byte	2
 4532 035b 17       		.byte	23
 4533 035c 00       		.byte	0
 4534 035d 00       		.zero	1
 4535 035e 0000     		.hword	0
 4536 0360 53445F53 		.string	"SD_SENDOPCOND"
 4536      454E444F 
 4536      50434F4E 
 4536      4400
 4537 036e 0000     		.zero	2
 4538 0370 0000     		.zero	2
 4539 0372 02       		.byte	2
 4540 0373 29       		.byte	41
 4541 0374 00       		.byte	0
 4542 0375 00       		.zero	1
 4543 0376 E803     		.hword	1000
 4544 0378 5345545F 		.string	"SET_CLR_DET"
 4544      434C525F 
 4544      44455400 
 4545 0384 00000000 		.zero	4
 4546 0388 0000     		.zero	2
 4547 038a 02       		.byte	2
 4548 038b 2A       		.byte	42
 4549 038c 00       		.byte	0
 4550 038d 00       		.zero	1
 4551 038e 0000     		.hword	0
 4552 0390 53454E44 		.string	"SEND_SCR"
 4552      5F534352 
 4552      00
 4553 0399 00000000 		.zero	7
 4553      000000
AARCH64 GAS  C:\Users\A01169~1\AppData\Local\Temp\cclmDoLY.s 			page 83


 4554 03a0 10       		.byte	16
 4555 03a1 00       		.zero	1
 4556 03a2 22       		.byte	34
 4557 03a3 33       		.byte	51
 4558 03a4 00       		.byte	0
 4559 03a5 00       		.zero	1
 4560 03a6 0000     		.hword	0
 4561              		.bss
 4562              		.align	3
 4563              		.set	.LANCHOR0,. + 0
 4564              		.type	LOG_ERROR, %object
 4565              		.size	LOG_ERROR, 8
 4566              	LOG_ERROR:
 4567 0000 00000000 		.zero	8
 4567      00000000 
 4568              		.type	sdCard, %object
 4569              		.size	sdCard, 120
 4570              	sdCard:
 4571 0008 00000000 		.zero	120
 4571      00000000 
 4571      00000000 
 4571      00000000 
 4571      00000000 
 4572              		.type	intSearchRecord, %object
 4573              		.size	intSearchRecord, 3136
 4574              	intSearchRecord:
 4575 0080 00000000 		.zero	3136
 4575      00000000 
 4575      00000000 
 4575      00000000 
 4575      00000000 
 4576              		.type	intFileIORecord, %object
 4577              		.size	intFileIORecord, 6368
 4578              	intFileIORecord:
 4579 0cc0 00000000 		.zero	6368
 4579      00000000 
 4579      00000000 
 4579      00000000 
 4579      00000000 
 4580              		.section	.rodata.str1.8,"aMS",@progbits,1
 4581              		.align	3
 4582              	.LC0:
 4583 0000 454D4D43 		.string	"EMMC: Wait for data aborted: %08x %08x %08x\n"
 4583      3A205761 
 4583      69742066 
 4583      6F722064 
 4583      61746120 
 4584 002d 000000   		.zero	3
 4585              	.LC1:
 4586 0030 454D4D43 		.string	"EMMC: Wait for interrupt %08x timeout: %08x %08x %08x\n"
 4586      3A205761 
 4586      69742066 
 4586      6F722069 
 4586      6E746572 
 4587 0067 00       		.zero	1
 4588              	.LC2:
 4589 0068 454D4D43 		.string	"EMMC: Error waiting for interrupt: %08x %08x %08x\n"
AARCH64 GAS  C:\Users\A01169~1\AppData\Local\Temp\cclmDoLY.s 			page 84


 4589      3A204572 
 4589      726F7220 
 4589      77616974 
 4589      696E6720 
 4590 009b 00000000 		.zero	5
 4590      00
 4591              	.LC3:
 4592 00a0 454D4D43 		.string	"EMMC: Set clock: timeout waiting for inhibit flags. Status %08x.\n"
 4592      3A205365 
 4592      7420636C 
 4592      6F636B3A 
 4592      2074696D 
 4593 00e2 00000000 		.zero	6
 4593      0000
 4594              	.LC4:
 4595 00e8 454D4D43 		.string	"EMMC: ERROR: failed to get stable clock.\n"
 4595      3A204552 
 4595      524F523A 
 4595      20666169 
 4595      6C656420 
 4596 0112 00000000 		.zero	6
 4596      0000
 4597              	.LC5:
 4598 0118 454D4D43 		.string	"EMMC: Wait for command aborted: %08x %08x %08x\n"
 4598      3A205761 
 4598      69742066 
 4598      6F722063 
 4598      6F6D6D61 
 4599              	.LC6:
 4600 0148 454D4D43 		.string	"EMMC: ACMD41 returned non-timeout error %d\n"
 4600      3A204143 
 4600      4D443431 
 4600      20726574 
 4600      75726E65 
 4601 0174 00000000 		.zero	4
 4602              	.LC7:
 4603 0178 454D4D43 		.string	"EMMC: ERROR: failed to reset.\n"
 4603      3A204552 
 4603      524F523A 
 4603      20666169 
 4603      6C656420 
 4604 0197 00       		.zero	1
 4605              	.LC8:
 4606 0198 454D4D43 		.string	"EMMC: Timeout waiting for ready to read\n"
 4606      3A205469 
 4606      6D656F75 
 4606      74207761 
 4606      6974696E 
 4607 01c1 00000000 		.zero	7
 4607      000000
 4608              	.LC9:
 4609 01c8 454D4D43 		.string	"EMMC: Timeout waiting for data done\n"
 4609      3A205469 
 4609      6D656F75 
 4609      74207761 
 4609      6974696E 
 4610 01ed 000000   		.zero	3
AARCH64 GAS  C:\Users\A01169~1\AppData\Local\Temp\cclmDoLY.s 			page 85


 4611              	.LC10:
 4612 01f0 46415433 		.string	"FAT32 Volume Label: %s, ID: %08x\n"
 4612      3220566F 
 4612      6C756D65 
 4612      204C6162 
 4612      656C3A20 
 4613 0212 00000000 		.zero	6
 4613      0000
 4614              	.LC11:
 4615 0218 46415431 		.string	"FAT12/16 Volume Label: %s, Volume ID %08x\n"
 4615      322F3136 
 4615      20566F6C 
 4615      756D6520 
 4615      4C616265 
 4616 0243 00000000 		.zero	5
 4616      00
 4617              	.LC12:
 4618 0248 46697273 		.string	"First Sector: %lu, Data Sectors: %lu, TotalClusters: %lu, RootCluster: %lu\n"
 4618      74205365 
 4618      63746F72 
 4618      3A20256C 
 4618      752C2044 
 4619 0294 00000000 		.zero	4
 4620              	.LC13:
 4621 0298 454D4D43 		.string	"EMMC: Timeout waiting for erase: %08x %08x\n"
 4621      3A205469 
 4621      6D656F75 
 4621      74207761 
 4621      6974696E 
 4622 02c4 00000000 		.zero	4
 4623              	.LC14:
 4624 02c8 454D4D43 		.string	"EMMC: SEND_SCR ERR: %08x %08x %08x\n"
 4624      3A205345 
 4624      4E445F53 
 4624      43522045 
 4624      52523A20 
 4625 02ec 00000000 		.zero	4
 4626              	.LC15:
 4627 02f0 454D4D43 		.string	"EMMC: Reading SCR, only read %d words\n"
 4627      3A205265 
 4627      6164696E 
 4627      67205343 
 4627      522C206F 
 4628 0317 00       		.zero	1
 4629              	.LC16:
 4630 0318 454D4D43 		.string	"EMMC: SD Card %s %dMb mfr %d '%c%c:%c%c%c%c%c' r%d.%d %d/%d, #%08x RCA %04x\n"
 4630      3A205344 
 4630      20436172 
 4630      64202573 
 4630      2025644D 
 4631 0365 000000   		.zero	3
 4632              	.LC17:
 4633 0368 556E6B6E 		.string	"Unknown"
 4633      6F776E00 
 4634              	.LC18:
 4635 0370 4D4D4300 		.string	"MMC"
 4636 0374 00000000 		.zero	4
AARCH64 GAS  C:\Users\A01169~1\AppData\Local\Temp\cclmDoLY.s 			page 86


 4637              	.LC19:
 4638 0378 54797065 		.string	"Type 1"
 4638      203100
 4639 037f 00       		.zero	1
 4640              	.LC20:
 4641 0380 54797065 		.string	"Type 2 SC"
 4641      20322053 
 4641      4300
 4642 038a 00000000 		.zero	6
 4642      0000
 4643              	.LC21:
 4644 0390 54797065 		.string	"Type 2 HC"
 4644      20322048 
 4644      4300
 4645              		.ident	"GCC: (GNU Toolchain for the A-profile Architecture 8.2-2019.01 (arm-rel-8.28)) 8.2.1 20180
AARCH64 GAS  C:\Users\A01169~1\AppData\Local\Temp\cclmDoLY.s 			page 87


DEFINED SYMBOLS
                            *ABS*:0000000000000000 SDCard.c
C:\Users\A01169~1\AppData\Local\Temp\cclmDoLY.s:4      .text:0000000000000000 $x
C:\Users\A01169~1\AppData\Local\Temp\cclmDoLY.s:7      .text:0000000000000000 sdWaitForData
C:\Users\A01169~1\AppData\Local\Temp\cclmDoLY.s:96     .text:0000000000000130 sdWaitForInterrupt
C:\Users\A01169~1\AppData\Local\Temp\cclmDoLY.s:220    .text:00000000000002e0 sdSetClock
C:\Users\A01169~1\AppData\Local\Temp\cclmDoLY.s:395    .text:0000000000000530 SetFindDataFromFATEntry.part.0
C:\Users\A01169~1\AppData\Local\Temp\cclmDoLY.s:479    .text:0000000000000670 sdSendCommandP
C:\Users\A01169~1\AppData\Local\Temp\cclmDoLY.s:824    .text:0000000000000b60 sdAppSendOpCond
C:\Users\A01169~1\AppData\Local\Temp\cclmDoLY.s:968    .text:0000000000000d30 sdResetCard
C:\Users\A01169~1\AppData\Local\Temp\cclmDoLY.s:1086   .text:0000000000000ed0 sdTransferBlocks.constprop.7
C:\Users\A01169~1\AppData\Local\Temp\cclmDoLY.s:1250   .text:0000000000001110 LoadDrivePartition
C:\Users\A01169~1\AppData\Local\Temp\cclmDoLY.s:1416   .text:0000000000001360 sdTransferBlocks
C:\Users\A01169~1\AppData\Local\Temp\cclmDoLY.s:1668   .text:00000000000016d0 sdClearBlocks
C:\Users\A01169~1\AppData\Local\Temp\cclmDoLY.s:1781   .text:0000000000001850 getSetNextCluster
C:\Users\A01169~1\AppData\Local\Temp\cclmDoLY.s:1948   .text:0000000000001aa0 WildcardMatch
C:\Users\A01169~1\AppData\Local\Temp\cclmDoLY.s:2081   .text:0000000000001c50 LocateFATEntry
C:\Users\A01169~1\AppData\Local\Temp\cclmDoLY.s:2614   .text:00000000000023d0 sdFindFirstFile
C:\Users\A01169~1\AppData\Local\Temp\cclmDoLY.s:2896   .text:00000000000027c0 sdFindNextFile
C:\Users\A01169~1\AppData\Local\Temp\cclmDoLY.s:2954   .text:0000000000002880 sdFindClose
C:\Users\A01169~1\AppData\Local\Temp\cclmDoLY.s:2982   .text:00000000000028d0 sdCreateFile
C:\Users\A01169~1\AppData\Local\Temp\cclmDoLY.s:4578   .bss:0000000000000cc0 intFileIORecord
C:\Users\A01169~1\AppData\Local\Temp\cclmDoLY.s:3281   .text:0000000000002d00 sdReadFile
C:\Users\A01169~1\AppData\Local\Temp\cclmDoLY.s:3519   .text:0000000000003040 sdCloseHandle
C:\Users\A01169~1\AppData\Local\Temp\cclmDoLY.s:3546   .text:0000000000003090 sdSetFilePointer
C:\Users\A01169~1\AppData\Local\Temp\cclmDoLY.s:3836   .text:00000000000034a0 sdGetFileSize
C:\Users\A01169~1\AppData\Local\Temp\cclmDoLY.s:3860   .text:00000000000034e0 sdInitCard
C:\Users\A01169~1\AppData\Local\Temp\cclmDoLY.s:4218   .text:00000000000039d0 sdCardCSD
C:\Users\A01169~1\AppData\Local\Temp\cclmDoLY.s:4566   .bss:0000000000000000 LOG_ERROR
C:\Users\A01169~1\AppData\Local\Temp\cclmDoLY.s:4229   .rodata:0000000000000000 $d
C:\Users\A01169~1\AppData\Local\Temp\cclmDoLY.s:4233   .rodata:0000000000000000 SD_TYPE_NAME
C:\Users\A01169~1\AppData\Local\Temp\cclmDoLY.s:4240   .data:0000000000000000 $d
C:\Users\A01169~1\AppData\Local\Temp\cclmDoLY.s:4244   .data:0000000000000000 sdCommandTable
C:\Users\A01169~1\AppData\Local\Temp\cclmDoLY.s:4562   .bss:0000000000000000 $d
C:\Users\A01169~1\AppData\Local\Temp\cclmDoLY.s:4570   .bss:0000000000000008 sdCard
C:\Users\A01169~1\AppData\Local\Temp\cclmDoLY.s:4574   .bss:0000000000000080 intSearchRecord
C:\Users\A01169~1\AppData\Local\Temp\cclmDoLY.s:4581   .rodata.str1.8:0000000000000000 $d

UNDEFINED SYMBOLS
RPi_IO_Base_Addr
timer_getTickCount
tick_difference
timer_wait
__locale_ctype_ptr
wctob
strchr
AARCH64 GAS  C:\Users\A01169~1\AppData\Local\Temp\cclmDoLY.s 			page 1


   1              		.arch armv8-a
   2              		.file	"fonts.c"
   3              		.text
   4              		.align	2
   5              		.p2align 4,,15
   6              		.global	fonts_is_implemented
   7              		.type	fonts_is_implemented, %function
   8              	fonts_is_implemented:
   9 0000 001C4092 		and	x0, x0, 255
  10 0004 01000090 		adrp	x1, .LANCHOR0
  11 0008 21000091 		add	x1, x1, :lo12:.LANCHOR0
  12 000c 00686138 		ldrb	w0, [x0, x1]
  13 0010 C0035FD6 		ret
  14              		.size	fonts_is_implemented, .-fonts_is_implemented
  15              		.align	2
  16 0014 1F2003D5 		.p2align 4,,15
  16      1F2003D5 
  16      1F2003D5 
  17              		.global	fonts_char_to_font
  18              		.type	fonts_char_to_font, %function
  19              	fonts_char_to_font:
  20 0020 01000090 		adrp	x1, .LANCHOR0
  21 0024 21000091 		add	x1, x1, :lo12:.LANCHOR0
  22 0028 21000291 		add	x1, x1, 128
  23 002c 001C4092 		and	x0, x0, 255
  24 0030 207860F8 		ldr	x0, [x1, x0, lsl 3]
  25 0034 C0035FD6 		ret
  26              		.size	fonts_char_to_font, .-fonts_char_to_font
  27              		.align	2
  28 0038 1F2003D5 		.p2align 4,,15
  28      1F2003D5 
  29              		.global	fonts_init
  30              		.type	fonts_init, %function
  31              	fonts_init:
  32 0040 F353BDA9 		stp	x19, x20, [sp, -48]!
  33 0044 00000090 		adrp	x0, .LANCHOR0
  34 0048 00000091 		add	x0, x0, :lo12:.LANCHOR0
  35 004c 02001091 		add	x2, x0, 1024
  36 0050 09E01191 		add	x9, x0, 1144
  37 0054 F55B01A9 		stp	x21, x22, [sp, 16]
  38 0058 0D801391 		add	x13, x0, 1248
  39 005c EA6F7CB2 		mov	x10, 4294967280
  40 0060 FE1300F9 		str	x30, [sp, 32]
  41 0064 E16F7CB2 		mov	x1, 4294967280
  42 0068 094401F9 		str	x9, [x0, 648]
  43 006c 09001091 		add	x9, x0, 1024
  44 0070 0D4C01F9 		str	x13, [x0, 664]
  45 0074 4101C0F2 		movk	x1, 0xa, lsl 32
  46 0078 AA00C0F2 		movk	x10, 0x5, lsl 32
  47 007c B300C0D2 		mov	x19, 21474836480
  48 0080 6B00C0D2 		mov	x11, 12884901888
  49 0084 91008012 		mov	w17, 4294967291
  50 0088 532808A9 		stp	x19, x10, [x2, 128]
  51 008c 96008012 		mov	w22, -5
  52 0090 F100C0F2 		movk	x17, 0x7, lsl 32
  53 0094 412C09A9 		stp	x1, x11, [x2, 144]
  54 0098 0B001091 		add	x11, x0, 1024
AARCH64 GAS  C:\Users\A01169~1\AppData\Local\Temp\cclmDoLY.s 			page 2


  55 009c 4301C0D2 		mov	x3, 42949672960
  56 00a0 115002F9 		str	x17, [x0, 1184]
  57 00a4 E46F7CB2 		mov	x4, 4294967280
  58 00a8 16A804B9 		str	w22, [x0, 1192]
  59 00ac FE737DB2 		mov	x30, 4294967288
  60 00b0 23FD0EA9 		stp	x3, xzr, [x9, 232]
  61 00b4 5E01C0F2 		movk	x30, 0xa, lsl 32
  62 00b8 0CC01691 		add	x12, x0, 1456
  63 00bc 21910FA9 		stp	x1, x4, [x9, 248]
  64 00c0 29008052 		mov	w9, 1
  65 00c4 06201591 		add	x6, x0, 1352
  66 00c8 048402F9 		str	x4, [x0, 1288]
  67 00cc 10601891 		add	x16, x0, 1560
  68 00d0 1F1005B9 		str	wzr, [x0, 1296]
  69 00d4 910080D2 		mov	x17, 4
  70 00d8 637D15A9 		stp	x3, xzr, [x11, 336]
  71 00dc 12001A91 		add	x18, x0, 1664
  72 00e0 F4008012 		mov	w20, -8
  73 00e4 611116A9 		stp	x1, x4, [x11, 352]
  74 00e8 EB737DB2 		mov	x11, 4294967288
  75 00ec 0F401D91 		add	x15, x0, 1872
  76 00f0 09040139 		strb	w9, [x0, 65]
  77 00f4 35208052 		mov	w21, 257
  78 00f8 090C0139 		strb	w9, [x0, 67]
  79 00fc 08A01B91 		add	x8, x0, 1768
  80 0100 09140139 		strb	w9, [x0, 69]
  81 0104 05E01E91 		add	x5, x0, 1976
  82 0108 1EB802F9 		str	x30, [x0, 1392]
  83 010c 0E802091 		add	x14, x0, 2080
  84 0110 0BBC02F9 		str	x11, [x0, 1400]
  85 0114 6B0080D2 		mov	x11, 3
  86 0118 04C002F9 		str	x4, [x0, 1408]
  87 011c 07202291 		add	x7, x0, 2184
  88 0120 1F8805B9 		str	wzr, [x0, 1416]
  89 0124 0DC02391 		add	x13, x0, 2288
  90 0128 1FDC02F9 		str	xzr, [x0, 1464]
  91 012c 01E002F9 		str	x1, [x0, 1472]
  92 0130 065401F9 		str	x6, [x0, 680]
  93 0134 06002791 		add	x6, x0, 2496
  94 0138 0C6001F9 		str	x12, [x0, 704]
  95 013c 0C001891 		add	x12, x0, 1536
  96 0140 106401F9 		str	x16, [x0, 712]
  97 0144 F0777EB2 		mov	x16, 4294967292
  98 0148 127001F9 		str	x18, [x0, 736]
  99 014c B000C0F2 		movk	x16, 0x5, lsl 32
 100 0150 11A402F9 		str	x17, [x0, 1352]
 101 0154 92008012 		mov	w18, 4294967291
 102 0158 01E402F9 		str	x1, [x0, 1480]
 103 015c 1FE802F9 		str	xzr, [x0, 1488]
 104 0160 1EEC02F9 		str	x30, [x0, 1496]
 105 0164 14E005B9 		str	w20, [x0, 1504]
 106 0168 540080D2 		mov	x20, 2
 107 016c 837D02A9 		stp	x3, xzr, [x12, 32]
 108 0170 812903A9 		stp	x1, x10, [x12, 48]
 109 0174 0CA02891 		add	x12, x0, 2600
 110 0178 108403F9 		str	x16, [x0, 1800]
 111 017c F0777EB2 		mov	x16, 4294967292
AARCH64 GAS  C:\Users\A01169~1\AppData\Local\Temp\cclmDoLY.s 			page 3


 112 0180 5001C0F2 		movk	x16, 0xa, lsl 32
 113 0184 15900079 		strh	w21, [x0, 72]
 114 0188 0B3C02F9 		str	x11, [x0, 1144]
 115 018c 0B7002F9 		str	x11, [x0, 1248]
 116 0190 0BD802F9 		str	x11, [x0, 1456]
 117 0194 0A2003F9 		str	x10, [x0, 1600]
 118 0198 1F4806B9 		str	wzr, [x0, 1608]
 119 019c 034403F9 		str	x3, [x0, 1672]
 120 01a0 1F4803F9 		str	xzr, [x0, 1680]
 121 01a4 044C03F9 		str	x4, [x0, 1688]
 122 01a8 1FA006B9 		str	wzr, [x0, 1696]
 123 01ac 047803F9 		str	x4, [x0, 1776]
 124 01b0 1F7C03F9 		str	xzr, [x0, 1784]
 125 01b4 0A8003F9 		str	x10, [x0, 1792]
 126 01b8 108803F9 		str	x16, [x0, 1808]
 127 01bc F0C30032 		mov	w16, 16843009
 128 01c0 018C03F9 		str	x1, [x0, 1816]
 129 01c4 019003F9 		str	x1, [x0, 1824]
 130 01c8 1F2807B9 		str	wzr, [x0, 1832]
 131 01cc 04AC03F9 		str	x4, [x0, 1880]
 132 01d0 1FB003F9 		str	xzr, [x0, 1888]
 133 01d4 087401F9 		str	x8, [x0, 744]
 134 01d8 08602591 		add	x8, x0, 2392
 135 01dc 0F7801F9 		str	x15, [x0, 752]
 136 01e0 0F001891 		add	x15, x0, 1536
 137 01e4 057C01F9 		str	x5, [x0, 760]
 138 01e8 05402A91 		add	x5, x0, 2704
 139 01ec 0B0C03F9 		str	x11, [x0, 1560]
 140 01f0 144003F9 		str	x20, [x0, 1664]
 141 01f4 117403F9 		str	x17, [x0, 1768]
 142 01f8 0BA803F9 		str	x11, [x0, 1872]
 143 01fc 01B403F9 		str	x1, [x0, 1896]
 144 0200 03B803F9 		str	x3, [x0, 1904]
 145 0204 03BC03F9 		str	x3, [x0, 1912]
 146 0208 E37D1CA9 		stp	x3, xzr, [x15, 448]
 147 020c E47D1DA9 		stp	x4, xzr, [x15, 464]
 148 0210 2F018012 		mov	w15, 4294967286
 149 0214 104C00B9 		str	w16, [x0, 76]
 150 0218 30018012 		mov	w16, 4294967286
 151 021c 5001C0F2 		movk	x16, 0xa, lsl 32
 152 0220 09400139 		strb	w9, [x0, 80]
 153 0224 01F003F9 		str	x1, [x0, 2016]
 154 0228 01F403F9 		str	x1, [x0, 2024]
 155 022c 01F803F9 		str	x1, [x0, 2032]
 156 0230 1FF807B9 		str	wzr, [x0, 2040]
 157 0234 041404F9 		str	x4, [x0, 2088]
 158 0238 1F1804F9 		str	xzr, [x0, 2096]
 159 023c 011C04F9 		str	x1, [x0, 2104]
 160 0240 102004F9 		str	x16, [x0, 2112]
 161 0244 0F2404F9 		str	x15, [x0, 2120]
 162 0248 165008B9 		str	w22, [x0, 2128]
 163 024c F6018012 		mov	w22, -16
 164 0250 168007B9 		str	w22, [x0, 1920]
 165 0254 044804F9 		str	x4, [x0, 2192]
 166 0258 1F4C04F9 		str	xzr, [x0, 2200]
 167 025c 015004F9 		str	x1, [x0, 2208]
 168 0260 105404F9 		str	x16, [x0, 2216]
AARCH64 GAS  C:\Users\A01169~1\AppData\Local\Temp\cclmDoLY.s 			page 4


 169 0264 0F5804F9 		str	x15, [x0, 2224]
 170 0268 125C04F9 		str	x18, [x0, 2232]
 171 026c 0E8001F9 		str	x14, [x0, 768]
 172 0270 8E008012 		mov	w14, 4294967291
 173 0274 042005F9 		str	x4, [x0, 2624]
 174 0278 E46F7CB2 		mov	x4, 4294967280
 175 027c 4400C0F2 		movk	x4, 0x2, lsl 32
 176 0280 04E404F9 		str	x4, [x0, 2504]
 177 0284 4400C0D2 		mov	x4, 8589934592
 178 0288 04E804F9 		str	x4, [x0, 2512]
 179 028c E4737DB2 		mov	x4, 4294967288
 180 0290 4E01C0F2 		movk	x14, 0xa, lsl 32
 181 0294 A400C0F2 		movk	x4, 0x5, lsl 32
 182 0298 15A40079 		strh	w21, [x0, 82]
 183 029c 09500139 		strb	w9, [x0, 84]
 184 02a0 095C0139 		strb	w9, [x0, 87]
 185 02a4 078801F9 		str	x7, [x0, 784]
 186 02a8 0D8C01F9 		str	x13, [x0, 792]
 187 02ac 089001F9 		str	x8, [x0, 800]
 188 02b0 11DC03F9 		str	x17, [x0, 1976]
 189 02b4 0B1004F9 		str	x11, [x0, 2080]
 190 02b8 114404F9 		str	x17, [x0, 2184]
 191 02bc 0E6004F9 		str	x14, [x0, 2240]
 192 02c0 1FC808B9 		str	wzr, [x0, 2248]
 193 02c4 037C04F9 		str	x3, [x0, 2296]
 194 02c8 0E8004F9 		str	x14, [x0, 2304]
 195 02cc 128404F9 		str	x18, [x0, 2312]
 196 02d0 0F8804F9 		str	x15, [x0, 2320]
 197 02d4 108C04F9 		str	x16, [x0, 2328]
 198 02d8 162009B9 		str	w22, [x0, 2336]
 199 02dc 01B004F9 		str	x1, [x0, 2400]
 200 02e0 0AB404F9 		str	x10, [x0, 2408]
 201 02e4 0AB804F9 		str	x10, [x0, 2416]
 202 02e8 1F7809B9 		str	wzr, [x0, 2424]
 203 02ec 13EC04F9 		str	x19, [x0, 2520]
 204 02f0 13002891 		add	x19, x0, 2560
 205 02f4 04F004F9 		str	x4, [x0, 2528]
 206 02f8 1EF404F9 		str	x30, [x0, 2536]
 207 02fc 03F804F9 		str	x3, [x0, 2544]
 208 0300 01FC04F9 		str	x1, [x0, 2552]
 209 0304 1F000AB9 		str	wzr, [x0, 2560]
 210 0308 011805F9 		str	x1, [x0, 2608]
 211 030c 011C05F9 		str	x1, [x0, 2616]
 212 0310 069C01F9 		str	x6, [x0, 824]
 213 0314 14AC04F9 		str	x20, [x0, 2392]
 214 0318 14002891 		add	x20, x0, 2560
 215 031c 05D000F9 		str	x5, [x0, 416]
 216 0320 0CA801F9 		str	x12, [x0, 848]
 217 0324 0B7804F9 		str	x11, [x0, 2288]
 218 0328 11E004F9 		str	x17, [x0, 2496]
 219 032c 0B1405F9 		str	x11, [x0, 2600]
 220 0330 1F2405F9 		str	xzr, [x0, 2632]
 221 0334 032805F9 		str	x3, [x0, 2640]
 222 0338 1F580AB9 		str	wzr, [x0, 2648]
 223 033c 710E09A9 		stp	x17, x3, [x19, 144]
 224 0340 6E4A0AA9 		stp	x14, x18, [x19, 160]
 225 0344 8F420BA9 		stp	x15, x16, [x20, 176]
AARCH64 GAS  C:\Users\A01169~1\AppData\Local\Temp\cclmDoLY.s 			page 5


 226 0348 8A2A0CA9 		stp	x10, x10, [x20, 192]
 227 034c 09900039 		strb	w9, [x0, 36]
 228 0350 09680139 		strb	w9, [x0, 90]
 229 0354 1FD00AB9 		str	wzr, [x0, 2768]
 230 0358 F55B41A9 		ldp	x21, x22, [sp, 16]
 231 035c FE1340F9 		ldr	x30, [sp, 32]
 232 0360 F353C3A8 		ldp	x19, x20, [sp], 48
 233 0364 C0035FD6 		ret
 234              		.size	fonts_init, .-fonts_init
 235              		.bss
 236              		.align	3
 237              		.set	.LANCHOR0,. + 0
 238              		.type	char_is_implemented, %object
 239              		.size	char_is_implemented, 127
 240              	char_is_implemented:
 241 0000 00000000 		.zero	127
 241      00000000 
 241      00000000 
 241      00000000 
 241      00000000 
 242 007f 00       		.zero	1
 243              		.type	char_font_map, %object
 244              		.size	char_font_map, 1016
 245              	char_font_map:
 246 0080 00000000 		.zero	1016
 246      00000000 
 246      00000000 
 246      00000000 
 246      00000000 
 247              		.type	A, %object
 248              		.size	A, 100
 249              	A:
 250 0478 00000000 		.zero	100
 250      00000000 
 250      00000000 
 250      00000000 
 250      00000000 
 251 04dc 00000000 		.zero	4
 252              		.type	C, %object
 253              		.size	C, 100
 254              	C:
 255 04e0 00000000 		.zero	100
 255      00000000 
 255      00000000 
 255      00000000 
 255      00000000 
 256 0544 00000000 		.zero	4
 257              		.type	E, %object
 258              		.size	E, 100
 259              	E:
 260 0548 00000000 		.zero	100
 260      00000000 
 260      00000000 
 260      00000000 
 260      00000000 
 261 05ac 00000000 		.zero	4
 262              		.type	H, %object
AARCH64 GAS  C:\Users\A01169~1\AppData\Local\Temp\cclmDoLY.s 			page 6


 263              		.size	H, 100
 264              	H:
 265 05b0 00000000 		.zero	100
 265      00000000 
 265      00000000 
 265      00000000 
 265      00000000 
 266 0614 00000000 		.zero	4
 267              		.type	I, %object
 268              		.size	I, 100
 269              	I:
 270 0618 00000000 		.zero	100
 270      00000000 
 270      00000000 
 270      00000000 
 270      00000000 
 271 067c 00000000 		.zero	4
 272              		.type	L, %object
 273              		.size	L, 100
 274              	L:
 275 0680 00000000 		.zero	100
 275      00000000 
 275      00000000 
 275      00000000 
 275      00000000 
 276 06e4 00000000 		.zero	4
 277              		.type	M, %object
 278              		.size	M, 100
 279              	M:
 280 06e8 00000000 		.zero	100
 280      00000000 
 280      00000000 
 280      00000000 
 280      00000000 
 281 074c 00000000 		.zero	4
 282              		.type	N, %object
 283              		.size	N, 100
 284              	N:
 285 0750 00000000 		.zero	100
 285      00000000 
 285      00000000 
 285      00000000 
 285      00000000 
 286 07b4 00000000 		.zero	4
 287              		.type	O, %object
 288              		.size	O, 100
 289              	O:
 290 07b8 00000000 		.zero	100
 290      00000000 
 290      00000000 
 290      00000000 
 290      00000000 
 291 081c 00000000 		.zero	4
 292              		.type	P, %object
 293              		.size	P, 100
 294              	P:
 295 0820 00000000 		.zero	100
AARCH64 GAS  C:\Users\A01169~1\AppData\Local\Temp\cclmDoLY.s 			page 7


 295      00000000 
 295      00000000 
 295      00000000 
 295      00000000 
 296 0884 00000000 		.zero	4
 297              		.type	R, %object
 298              		.size	R, 100
 299              	R:
 300 0888 00000000 		.zero	100
 300      00000000 
 300      00000000 
 300      00000000 
 300      00000000 
 301 08ec 00000000 		.zero	4
 302              		.type	S, %object
 303              		.size	S, 100
 304              	S:
 305 08f0 00000000 		.zero	100
 305      00000000 
 305      00000000 
 305      00000000 
 305      00000000 
 306 0954 00000000 		.zero	4
 307              		.type	T, %object
 308              		.size	T, 100
 309              	T:
 310 0958 00000000 		.zero	100
 310      00000000 
 310      00000000 
 310      00000000 
 310      00000000 
 311 09bc 00000000 		.zero	4
 312              		.type	W, %object
 313              		.size	W, 100
 314              	W:
 315 09c0 00000000 		.zero	100
 315      00000000 
 315      00000000 
 315      00000000 
 315      00000000 
 316 0a24 00000000 		.zero	4
 317              		.type	Z, %object
 318              		.size	Z, 100
 319              	Z:
 320 0a28 00000000 		.zero	100
 320      00000000 
 320      00000000 
 320      00000000 
 320      00000000 
 321 0a8c 00000000 		.zero	4
 322              		.type	DOLLAR_SIGN, %object
 323              		.size	DOLLAR_SIGN, 100
 324              	DOLLAR_SIGN:
 325 0a90 00000000 		.zero	100
 325      00000000 
 325      00000000 
 325      00000000 
AARCH64 GAS  C:\Users\A01169~1\AppData\Local\Temp\cclmDoLY.s 			page 8


 325      00000000 
 326              		.ident	"GCC: (GNU Toolchain for the A-profile Architecture 8.2-2019.01 (arm-rel-8.28)) 8.2.1 20180
AARCH64 GAS  C:\Users\A01169~1\AppData\Local\Temp\cclmDoLY.s 			page 9


DEFINED SYMBOLS
                            *ABS*:0000000000000000 fonts.c
C:\Users\A01169~1\AppData\Local\Temp\cclmDoLY.s:4      .text:0000000000000000 $x
C:\Users\A01169~1\AppData\Local\Temp\cclmDoLY.s:8      .text:0000000000000000 fonts_is_implemented
C:\Users\A01169~1\AppData\Local\Temp\cclmDoLY.s:19     .text:0000000000000020 fonts_char_to_font
C:\Users\A01169~1\AppData\Local\Temp\cclmDoLY.s:31     .text:0000000000000040 fonts_init
C:\Users\A01169~1\AppData\Local\Temp\cclmDoLY.s:236    .bss:0000000000000000 $d
C:\Users\A01169~1\AppData\Local\Temp\cclmDoLY.s:240    .bss:0000000000000000 char_is_implemented
C:\Users\A01169~1\AppData\Local\Temp\cclmDoLY.s:245    .bss:0000000000000080 char_font_map
C:\Users\A01169~1\AppData\Local\Temp\cclmDoLY.s:249    .bss:0000000000000478 A
C:\Users\A01169~1\AppData\Local\Temp\cclmDoLY.s:254    .bss:00000000000004e0 C
C:\Users\A01169~1\AppData\Local\Temp\cclmDoLY.s:259    .bss:0000000000000548 E
C:\Users\A01169~1\AppData\Local\Temp\cclmDoLY.s:264    .bss:00000000000005b0 H
C:\Users\A01169~1\AppData\Local\Temp\cclmDoLY.s:269    .bss:0000000000000618 I
C:\Users\A01169~1\AppData\Local\Temp\cclmDoLY.s:274    .bss:0000000000000680 L
C:\Users\A01169~1\AppData\Local\Temp\cclmDoLY.s:279    .bss:00000000000006e8 M
C:\Users\A01169~1\AppData\Local\Temp\cclmDoLY.s:284    .bss:0000000000000750 N
C:\Users\A01169~1\AppData\Local\Temp\cclmDoLY.s:289    .bss:00000000000007b8 O
C:\Users\A01169~1\AppData\Local\Temp\cclmDoLY.s:294    .bss:0000000000000820 P
C:\Users\A01169~1\AppData\Local\Temp\cclmDoLY.s:299    .bss:0000000000000888 R
C:\Users\A01169~1\AppData\Local\Temp\cclmDoLY.s:304    .bss:00000000000008f0 S
C:\Users\A01169~1\AppData\Local\Temp\cclmDoLY.s:309    .bss:0000000000000958 T
C:\Users\A01169~1\AppData\Local\Temp\cclmDoLY.s:314    .bss:00000000000009c0 W
C:\Users\A01169~1\AppData\Local\Temp\cclmDoLY.s:319    .bss:0000000000000a28 Z
C:\Users\A01169~1\AppData\Local\Temp\cclmDoLY.s:324    .bss:0000000000000a90 DOLLAR_SIGN

NO UNDEFINED SYMBOLS
AARCH64 GAS  C:\Users\A01169~1\AppData\Local\Temp\cclmDoLY.s 			page 1


   1              		.arch armv8-a
   2              		.file	"hal_io.c"
   3              		.text
   4              		.align	2
   5              		.p2align 4,,15
   6              		.global	hal_io_init
   7              		.type	hal_io_init, %function
   8              	hal_io_init:
   9 0000 00000014 		b	fonts_init
  10              		.size	hal_io_init, .-hal_io_init
  11              		.align	2
  12 0004 1F2003D5 		.p2align 4,,15
  12      1F2003D5 
  12      1F2003D5 
  13              		.global	hal_io_video_init
  14              		.type	hal_io_video_init, %function
  15              	hal_io_video_init:
  16 0010 20008052 		mov	w0, 1
  17 0014 C0035FD6 		ret
  18              		.size	hal_io_video_init, .-hal_io_video_init
  19              		.align	2
  20 0018 1F2003D5 		.p2align 4,,15
  20      1F2003D5 
  21              		.global	hal_io_video_line
  22              		.type	hal_io_video_line, %function
  23              	hal_io_video_line:
  24 0020 F353B9A9 		stp	x19, x20, [sp, -112]!
  25 0024 F55B01A9 		stp	x21, x22, [sp, 16]
  26 0028 35584029 		ldp	w21, w22, [x1]
  27 002c F96B03A9 		stp	x25, x26, [sp, 48]
  28 0030 FB7304A9 		stp	x27, x28, [sp, 64]
  29 0034 19704029 		ldp	w25, w28, [x0]
  30 0038 F76302A9 		stp	x23, x24, [sp, 32]
  31 003c 18008012 		mov	w24, -1
  32 0040 2003154B 		sub	w0, w25, w21
  33 0044 B702196B 		subs	w23, w21, w25
  34 0048 1740971A 		csel	w23, w0, w23, mi
  35 004c 3F03156B 		cmp	w25, w21
  36 0050 00A7985A 		csneg	w0, w24, w24, ge
  37 0054 D4021C6B 		subs	w20, w22, w28
  38 0058 E06B00B9 		str	w0, [sp, 104]
  39 005c 8003164B 		sub	w0, w28, w22
  40 0060 1440941A 		csel	w20, w0, w20, mi
  41 0064 9F03166B 		cmp	w28, w22
  42 0068 00A7985A 		csneg	w0, w24, w24, ge
  43 006c FE2B00F9 		str	x30, [sp, 80]
  44 0070 E06F00B9 		str	w0, [sp, 108]
  45 0074 FF02146B 		cmp	w23, w20
  46 0078 E82F00FD 		str	d8, [sp, 88]
  47 007c 4800271E 		fmov	s8, w2
  48 0080 AC040054 		bgt	.L9
  49 0084 F303144B 		neg	w19, w20
  50 0088 737E530B 		add	w19, w19, w19, lsr 31
  51 008c 737E0113 		asr	w19, w19, 1
  52              	.L11:
  53 0090 1A000090 		adrp	x26, printf
  54 0094 5A030091 		add	x26, x26, :lo12:printf
AARCH64 GAS  C:\Users\A01169~1\AppData\Local\Temp\cclmDoLY.s 			page 2


  55 0098 F803174B 		neg	w24, w23
  56 009c 1B508052 		mov	w27, 640
  57              		.p2align 3
  58              	.L10:
  59 00a0 0201261E 		fmov	w2, s8
  60 00a4 81671B1B 		madd	w1, w28, w27, w25
  61 00a8 E0031AAA 		mov	x0, x26
  62 00ac 21781F53 		lsl	w1, w1, 1
  63 00b0 00000094 		bl	SmartStartPutPixelRaw
  64 00b4 3F03156B 		cmp	w25, w21
  65 00b8 E003132A 		mov	w0, w19
  66 00bc 8003567A 		ccmp	w28, w22, 0, eq
  67 00c0 A0010054 		beq	.L4
  68 00c4 1F03136B 		cmp	w24, w19
  69 00c8 8A000054 		bge	.L13
  70 00cc E06B40B9 		ldr	w0, [sp, 104]
  71 00d0 3903000B 		add	w25, w25, w0
  72 00d4 6002144B 		sub	w0, w19, w20
  73              	.L13:
  74 00d8 7F02146B 		cmp	w19, w20
  75 00dc 8A000054 		bge	.L14
  76 00e0 E16F40B9 		ldr	w1, [sp, 108]
  77 00e4 0000170B 		add	w0, w0, w23
  78 00e8 9C03010B 		add	w28, w28, w1
  79              	.L14:
  80 00ec F303002A 		mov	w19, w0
  81 00f0 ECFFFF17 		b	.L10
  82              		.p2align 2
  83              	.L4:
  84 00f4 F55B41A9 		ldp	x21, x22, [sp, 16]
  85 00f8 F76342A9 		ldp	x23, x24, [sp, 32]
  86 00fc F96B43A9 		ldp	x25, x26, [sp, 48]
  87 0100 FB7344A9 		ldp	x27, x28, [sp, 64]
  88 0104 FE2B40F9 		ldr	x30, [sp, 80]
  89 0108 E82F40FD 		ldr	d8, [sp, 88]
  90 010c F353C7A8 		ldp	x19, x20, [sp], 112
  91 0110 C0035FD6 		ret
  92              		.p2align 2
  93              	.L9:
  94 0114 F37E570B 		add	w19, w23, w23, lsr 31
  95 0118 737E0113 		asr	w19, w19, 1
  96 011c DDFFFF17 		b	.L11
  97              		.size	hal_io_video_line, .-hal_io_video_line
  98              		.align	2
  99              		.p2align 4,,15
 100              		.global	hal_io_video_putc
 101              		.type	hal_io_video_putc, %function
 102              	hal_io_video_putc:
 103 0120 F353B5A9 		stp	x19, x20, [sp, -176]!
 104 0124 FB7304A9 		stp	x27, x28, [sp, 64]
 105 0128 1C1C0012 		and	w28, w0, 255
 106 012c 9F2B0071 		cmp	w28, 10
 107 0130 FE2B00F9 		str	x30, [sp, 80]
 108 0134 00130054 		beq	.L50
 109 0138 9F370071 		cmp	w28, 13
 110 013c E0110054 		beq	.L51
 111 0140 F303012A 		mov	w19, w1
AARCH64 GAS  C:\Users\A01169~1\AppData\Local\Temp\cclmDoLY.s 			page 3


 112 0144 F96B03A9 		stp	x25, x26, [sp, 48]
 113 0148 01000090 		adrp	x1, .LANCHOR0
 114 014c 3A000091 		add	x26, x1, :lo12:.LANCHOR0
 115 0150 F903022A 		mov	w25, w2
 116 0154 E0031C2A 		mov	w0, w28
 117 0158 F76302A9 		stp	x23, x24, [sp, 32]
 118 015c 380040B9 		ldr	w24, [x1, #:lo12:.LANCHOR0]
 119 0160 570740B9 		ldr	w23, [x26, 4]
 120 0164 00000094 		bl	fonts_is_implemented
 121 0168 1F1C0072 		tst	w0, 255
 122 016c 41020054 		bne	.L52
 123              	.L23:
 124 0170 410740B9 		ldr	w1, [x26, 4]
 125 0174 A3018052 		mov	w3, 13
 126 0178 221A8052 		mov	w2, 209
 127 017c A201BA72 		movk	w2, 0xd00d, lsl 16
 128 0180 C04E8052 		mov	w0, 630
 129 0184 F76342A9 		ldp	x23, x24, [sp, 32]
 130 0188 7306031B 		madd	w19, w19, w3, w1
 131 018c FB7344A9 		ldp	x27, x28, [sp, 64]
 132 0190 617E0153 		lsr	w1, w19, 1
 133 0194 FE2B40F9 		ldr	x30, [sp, 80]
 134 0198 217CA29B 		umull	x1, w1, w2
 135 019c 21FC68D3 		lsr	x1, x1, 40
 136 01a0 33CC001B 		msub	w19, w1, w0, w19
 137 01a4 530700B9 		str	w19, [x26, 4]
 138 01a8 F96B43A9 		ldp	x25, x26, [sp, 48]
 139 01ac F353CBA8 		ldp	x19, x20, [sp], 176
 140 01b0 C0035FD6 		ret
 141              		.p2align 2
 142              	.L52:
 143 01b4 E0031C2A 		mov	w0, w28
 144 01b8 F55B01A9 		stp	x21, x22, [sp, 16]
 145 01bc 00000094 		bl	fonts_char_to_font
 146 01c0 EB0300AA 		mov	x11, x0
 147 01c4 000040B9 		ldr	w0, [x0]
 148 01c8 20090034 		cbz	w0, .L38
 149 01cc 1B000090 		adrp	x27, printf
 150 01d0 60030091 		add	x0, x27, :lo12:printf
 151 01d4 67110091 		add	x7, x11, 4
 152 01d8 0A008052 		mov	w10, 0
 153 01dc 1B008012 		mov	w27, -1
 154 01e0 E04F00F9 		str	x0, [sp, 152]
 155 01e4 1F2003D5 		.p2align 3
 156              	.L37:
 157 01e8 F60C4029 		ldp	w22, w3, [x7]
 158 01ec E6044129 		ldp	w6, w1, [x7, 8]
 159 01f0 D500164B 		sub	w21, w6, w22
 160 01f4 C202064B 		sub	w2, w22, w6
 161 01f8 2500034B 		sub	w5, w1, w3
 162 01fc 6000014B 		sub	w0, w3, w1
 163 0200 765E161B 		madd	w22, w19, w22, w23
 164 0204 B57E131B 		mul	w21, w21, w19
 165 0208 427C131B 		mul	w2, w2, w19
 166 020c 665E061B 		madd	w6, w19, w6, w23
 167 0210 BF020071 		cmp	w21, 0
 168 0214 A57C131B 		mul	w5, w5, w19
AARCH64 GAS  C:\Users\A01169~1\AppData\Local\Temp\cclmDoLY.s 			page 4


 169 0218 55B0951A 		csel	w21, w2, w21, lt
 170 021c 007C131B 		mul	w0, w0, w19
 171 0220 DF02066B 		cmp	w22, w6
 172 0224 6362031B 		madd	w3, w19, w3, w24
 173 0228 6CA79B5A 		csneg	w12, w27, w27, ge
 174 022c 6462011B 		madd	w4, w19, w1, w24
 175 0230 BF000071 		cmp	w5, 0
 176 0234 05B0851A 		csel	w5, w0, w5, lt
 177 0238 7F00046B 		cmp	w3, w4
 178 023c 6DA79B5A 		csneg	w13, w27, w27, ge
 179 0240 BF02056B 		cmp	w21, w5
 180 0244 4C090054 		bgt	.L31
 181 0248 F403054B 		neg	w20, w5
 182 024c 947E540B 		add	w20, w20, w20, lsr 31
 183 0250 947E0113 		asr	w20, w20, 1
 184              	.L33:
 185 0254 EE03154B 		neg	w14, w21
 186              		.p2align 3
 187              	.L32:
 188 0258 00508052 		mov	w0, 640
 189 025c E203192A 		mov	w2, w25
 190 0260 EB3700F9 		str	x11, [sp, 104]
 191 0264 6158001B 		madd	w1, w3, w0, w22
 192 0268 E31B0E29 		stp	w3, w6, [sp, 112]
 193 026c E04F40F9 		ldr	x0, [sp, 152]
 194 0270 E42B0F29 		stp	w4, w10, [sp, 120]
 195 0274 21781F53 		lsl	w1, w1, 1
 196 0278 E5331029 		stp	w5, w12, [sp, 128]
 197 027c E74700F9 		str	x7, [sp, 136]
 198 0280 ED3B1229 		stp	w13, w14, [sp, 144]
 199 0284 00000094 		bl	SmartStartPutPixelRaw
 200 0288 E31B4E29 		ldp	w3, w6, [sp, 112]
 201 028c E003142A 		mov	w0, w20
 202 0290 E42B4F29 		ldp	w4, w10, [sp, 120]
 203 0294 DF00166B 		cmp	w6, w22
 204 0298 EB3740F9 		ldr	x11, [sp, 104]
 205 029c 8000437A 		ccmp	w4, w3, 0, eq
 206 02a0 E74740F9 		ldr	x7, [sp, 136]
 207 02a4 A0010054 		beq	.L34
 208 02a8 ED3B5229 		ldp	w13, w14, [sp, 144]
 209 02ac E5335029 		ldp	w5, w12, [sp, 128]
 210 02b0 DF01146B 		cmp	w14, w20
 211 02b4 6A000054 		bge	.L35
 212 02b8 D6020C0B 		add	w22, w22, w12
 213 02bc 8002054B 		sub	w0, w20, w5
 214              	.L35:
 215 02c0 BF00146B 		cmp	w5, w20
 216 02c4 6D000054 		ble	.L36
 217 02c8 0000150B 		add	w0, w0, w21
 218 02cc 63000D0B 		add	w3, w3, w13
 219              	.L36:
 220 02d0 F403002A 		mov	w20, w0
 221 02d4 E1FFFF17 		b	.L32
 222              		.p2align 2
 223              	.L34:
 224 02d8 600140B9 		ldr	w0, [x11]
 225 02dc 4A050011 		add	w10, w10, 1
AARCH64 GAS  C:\Users\A01169~1\AppData\Local\Temp\cclmDoLY.s 			page 5


 226 02e0 E7400091 		add	x7, x7, 16
 227 02e4 1F000A6B 		cmp	w0, w10
 228 02e8 08F8FF54 		bhi	.L37
 229              	.L38:
 230 02ec E0031C2A 		mov	w0, w28
 231 02f0 00000094 		bl	fonts_char_to_font
 232 02f4 F60300AA 		mov	x22, x0
 233 02f8 000040B9 		ldr	w0, [x0]
 234 02fc F7060011 		add	w23, w23, 1
 235 0300 18070011 		add	w24, w24, 1
 236 0304 D4120091 		add	x20, x22, 4
 237 0308 15008052 		mov	w21, 0
 238 030c C0020034 		cbz	w0, .L49
 239              		.p2align 3
 240              	.L39:
 241 0310 830240B9 		ldr	w3, [x20]
 242 0314 E0830291 		add	x0, sp, 160
 243 0318 E203192A 		mov	w2, w25
 244 031c E1A30291 		add	x1, sp, 168
 245 0320 B5060011 		add	w21, w21, 1
 246 0324 94420091 		add	x20, x20, 16
 247 0328 635E031B 		madd	w3, w19, w3, w23
 248 032c E3A300B9 		str	w3, [sp, 160]
 249 0330 83425FB8 		ldr	w3, [x20, -12]
 250 0334 6362031B 		madd	w3, w19, w3, w24
 251 0338 E3A700B9 		str	w3, [sp, 164]
 252 033c 83825FB8 		ldr	w3, [x20, -8]
 253 0340 635E031B 		madd	w3, w19, w3, w23
 254 0344 E3AB00B9 		str	w3, [sp, 168]
 255 0348 83C25FB8 		ldr	w3, [x20, -4]
 256 034c 6362031B 		madd	w3, w19, w3, w24
 257 0350 E3AF00B9 		str	w3, [sp, 172]
 258 0354 00000094 		bl	hal_io_video_line
 259 0358 C00240B9 		ldr	w0, [x22]
 260 035c 1F00156B 		cmp	w0, w21
 261 0360 88FDFF54 		bhi	.L39
 262              	.L49:
 263 0364 F55B41A9 		ldp	x21, x22, [sp, 16]
 264 0368 82FFFF17 		b	.L23
 265              		.p2align 2
 266              	.L31:
 267 036c B47E550B 		add	w20, w21, w21, lsr 31
 268 0370 947E0113 		asr	w20, w20, 1
 269 0374 B8FFFF17 		b	.L33
 270              		.p2align 2
 271              	.L51:
 272 0378 00000090 		adrp	x0, .LANCHOR0+4
 273 037c 41018052 		mov	w1, 10
 274 0380 FB7344A9 		ldp	x27, x28, [sp, 64]
 275 0384 010000B9 		str	w1, [x0, #:lo12:.LANCHOR0+4]
 276 0388 FE2B40F9 		ldr	x30, [sp, 80]
 277 038c F353CBA8 		ldp	x19, x20, [sp], 176
 278 0390 C0035FD6 		ret
 279              		.p2align 2
 280              	.L50:
 281 0394 02000090 		adrp	x2, .LANCHOR0
 282 0398 530040B9 		ldr	w19, [x2, #:lo12:.LANCHOR0]
AARCH64 GAS  C:\Users\A01169~1\AppData\Local\Temp\cclmDoLY.s 			page 6


 283 039c 20619952 		mov	w0, 51977
 284 03a0 A0A7B172 		movk	w0, 0x8d3d, lsl 16
 285 03a4 73260011 		add	w19, w19, 9
 286 03a8 033A8052 		mov	w3, 464
 287 03ac 6112010B 		add	w1, w19, w1, lsl 4
 288 03b0 FB7344A9 		ldp	x27, x28, [sp, 64]
 289 03b4 207CA09B 		umull	x0, w1, w0
 290 03b8 FE2B40F9 		ldr	x30, [sp, 80]
 291 03bc 00FC68D3 		lsr	x0, x0, 40
 292 03c0 0184031B 		msub	w1, w0, w3, w1
 293 03c4 410000B9 		str	w1, [x2, #:lo12:.LANCHOR0]
 294 03c8 F353CBA8 		ldp	x19, x20, [sp], 176
 295 03cc C0035FD6 		ret
 296              		.size	hal_io_video_putc, .-hal_io_video_putc
 297              		.align	2
 298              		.p2align 4,,15
 299              		.global	hal_io_video_putc_x_y
 300              		.type	hal_io_video_putc_x_y, %function
 301              	hal_io_video_putc_x_y:
 302 03d0 F353B6A9 		stp	x19, x20, [sp, -160]!
 303 03d4 F403032A 		mov	w20, w3
 304 03d8 E82F00FD 		str	d8, [sp, 88]
 305 03dc 8800271E 		fmov	s8, w4
 306 03e0 F76302A9 		stp	x23, x24, [sp, 32]
 307 03e4 571C0012 		and	w23, w2, 255
 308 03e8 F55B01A9 		stp	x21, x22, [sp, 16]
 309 03ec F603002A 		mov	w22, w0
 310 03f0 F503012A 		mov	w21, w1
 311 03f4 E003172A 		mov	w0, w23
 312 03f8 FE2B00F9 		str	x30, [sp, 80]
 313 03fc 00000094 		bl	fonts_is_implemented
 314 0400 1F1C0072 		tst	w0, 255
 315 0404 E1000054 		bne	.L80
 316              	.L53:
 317 0408 F55B41A9 		ldp	x21, x22, [sp, 16]
 318 040c F76342A9 		ldp	x23, x24, [sp, 32]
 319 0410 FE2B40F9 		ldr	x30, [sp, 80]
 320 0414 E82F40FD 		ldr	d8, [sp, 88]
 321 0418 F353CAA8 		ldp	x19, x20, [sp], 160
 322 041c C0035FD6 		ret
 323              		.p2align 2
 324              	.L80:
 325 0420 E003172A 		mov	w0, w23
 326 0424 F96B03A9 		stp	x25, x26, [sp, 48]
 327 0428 00000094 		bl	fonts_char_to_font
 328 042c F90300AA 		mov	x25, x0
 329 0430 000040B9 		ldr	w0, [x0]
 330 0434 33130091 		add	x19, x25, 4
 331 0438 18008052 		mov	w24, 0
 332 043c C0020034 		cbz	w0, .L59
 333              		.p2align 3
 334              	.L58:
 335 0440 630240B9 		ldr	w3, [x19]
 336 0444 0201261E 		fmov	w2, s8
 337 0448 E0430291 		add	x0, sp, 144
 338 044c E1630291 		add	x1, sp, 152
 339 0450 18070011 		add	w24, w24, 1
AARCH64 GAS  C:\Users\A01169~1\AppData\Local\Temp\cclmDoLY.s 			page 7


 340 0454 73420091 		add	x19, x19, 16
 341 0458 835A031B 		madd	w3, w20, w3, w22
 342 045c E39300B9 		str	w3, [sp, 144]
 343 0460 63425FB8 		ldr	w3, [x19, -12]
 344 0464 8356031B 		madd	w3, w20, w3, w21
 345 0468 E39700B9 		str	w3, [sp, 148]
 346 046c 63825FB8 		ldr	w3, [x19, -8]
 347 0470 835A031B 		madd	w3, w20, w3, w22
 348 0474 E39B00B9 		str	w3, [sp, 152]
 349 0478 63C25FB8 		ldr	w3, [x19, -4]
 350 047c 8356031B 		madd	w3, w20, w3, w21
 351 0480 E39F00B9 		str	w3, [sp, 156]
 352 0484 00000094 		bl	hal_io_video_line
 353 0488 200340B9 		ldr	w0, [x25]
 354 048c 1F00186B 		cmp	w0, w24
 355 0490 88FDFF54 		bhi	.L58
 356              	.L59:
 357 0494 E003172A 		mov	w0, w23
 358 0498 00000094 		bl	fonts_char_to_font
 359 049c E90300AA 		mov	x9, x0
 360 04a0 000040B9 		ldr	w0, [x0]
 361 04a4 C5060011 		add	w5, w22, 1
 362 04a8 A6060011 		add	w6, w21, 1
 363 04ac 800A0034 		cbz	w0, .L81
 364 04b0 18000090 		adrp	x24, printf
 365 04b4 00030091 		add	x0, x24, :lo12:printf
 366 04b8 24110091 		add	x4, x9, 4
 367 04bc 18008052 		mov	w24, 0
 368 04c0 19008012 		mov	w25, -1
 369 04c4 FB7304A9 		stp	x27, x28, [sp, 64]
 370 04c8 E04700F9 		str	x0, [sp, 136]
 371 04cc 1F2003D5 		.p2align 3
 372              	.L70:
 373 04d0 9C0C4129 		ldp	w28, w3, [x4, 8]
 374 04d4 97684029 		ldp	w23, w26, [x4]
 375 04d8 9B1A031B 		madd	w27, w20, w3, w6
 376 04dc 9503174B 		sub	w21, w28, w23
 377 04e0 E0021C4B 		sub	w0, w23, w28
 378 04e4 76001A4B 		sub	w22, w3, w26
 379 04e8 4203034B 		sub	w2, w26, w3
 380 04ec 9716171B 		madd	w23, w20, w23, w5
 381 04f0 B57E141B 		mul	w21, w21, w20
 382 04f4 007C141B 		mul	w0, w0, w20
 383 04f8 9C161C1B 		madd	w28, w20, w28, w5
 384 04fc BF020071 		cmp	w21, 0
 385 0500 D67E141B 		mul	w22, w22, w20
 386 0504 15B0951A 		csel	w21, w0, w21, lt
 387 0508 427C141B 		mul	w2, w2, w20
 388 050c FF021C6B 		cmp	w23, w28
 389 0510 9A1A1A1B 		madd	w26, w20, w26, w6
 390 0514 2AA7995A 		csneg	w10, w25, w25, ge
 391 0518 DF020071 		cmp	w22, 0
 392 051c 56B0961A 		csel	w22, w2, w22, lt
 393 0520 5F031B6B 		cmp	w26, w27
 394 0524 23A7995A 		csneg	w3, w25, w25, ge
 395 0528 BF02166B 		cmp	w21, w22
 396 052c 2C060054 		bgt	.L64
AARCH64 GAS  C:\Users\A01169~1\AppData\Local\Temp\cclmDoLY.s 			page 8


 397 0530 F303164B 		neg	w19, w22
 398 0534 737E530B 		add	w19, w19, w19, lsr 31
 399 0538 737E0113 		asr	w19, w19, 1
 400              	.L66:
 401 053c EB03154B 		neg	w11, w21
 402              		.p2align 3
 403              	.L65:
 404 0540 00508052 		mov	w0, 640
 405 0544 0201261E 		fmov	w2, s8
 406 0548 E56700B9 		str	w5, [sp, 100]
 407 054c 415F001B 		madd	w1, w26, w0, w23
 408 0550 E93700F9 		str	x9, [sp, 104]
 409 0554 E04740F9 		ldr	x0, [sp, 136]
 410 0558 E62B0E29 		stp	w6, w10, [sp, 112]
 411 055c 21781F53 		lsl	w1, w1, 1
 412 0560 E43F00F9 		str	x4, [sp, 120]
 413 0564 E32F1029 		stp	w3, w11, [sp, 128]
 414 0568 00000094 		bl	SmartStartPutPixelRaw
 415 056c 9F03176B 		cmp	w28, w23
 416 0570 E203132A 		mov	w2, w19
 417 0574 60035A7A 		ccmp	w27, w26, 0, eq
 418 0578 E56740B9 		ldr	w5, [sp, 100]
 419 057c E67340B9 		ldr	w6, [sp, 112]
 420 0580 E93740F9 		ldr	x9, [sp, 104]
 421 0584 E43F40F9 		ldr	x4, [sp, 120]
 422 0588 A0010054 		beq	.L67
 423 058c E32F5029 		ldp	w3, w11, [sp, 128]
 424 0590 EA7740B9 		ldr	w10, [sp, 116]
 425 0594 7F01136B 		cmp	w11, w19
 426 0598 6A000054 		bge	.L68
 427 059c F7020A0B 		add	w23, w23, w10
 428 05a0 6202164B 		sub	w2, w19, w22
 429              	.L68:
 430 05a4 DF02136B 		cmp	w22, w19
 431 05a8 6D000054 		ble	.L69
 432 05ac 4200150B 		add	w2, w2, w21
 433 05b0 5A03030B 		add	w26, w26, w3
 434              	.L69:
 435 05b4 F303022A 		mov	w19, w2
 436 05b8 E2FFFF17 		b	.L65
 437              		.p2align 2
 438              	.L67:
 439 05bc 200140B9 		ldr	w0, [x9]
 440 05c0 18070011 		add	w24, w24, 1
 441 05c4 84400091 		add	x4, x4, 16
 442 05c8 1F00186B 		cmp	w0, w24
 443 05cc 28F8FF54 		bhi	.L70
 444 05d0 F55B41A9 		ldp	x21, x22, [sp, 16]
 445 05d4 F76342A9 		ldp	x23, x24, [sp, 32]
 446 05d8 F96B43A9 		ldp	x25, x26, [sp, 48]
 447 05dc FB7344A9 		ldp	x27, x28, [sp, 64]
 448 05e0 FE2B40F9 		ldr	x30, [sp, 80]
 449 05e4 E82F40FD 		ldr	d8, [sp, 88]
 450 05e8 F353CAA8 		ldp	x19, x20, [sp], 160
 451 05ec C0035FD6 		ret
 452              		.p2align 2
 453              	.L64:
AARCH64 GAS  C:\Users\A01169~1\AppData\Local\Temp\cclmDoLY.s 			page 9


 454 05f0 B37E550B 		add	w19, w21, w21, lsr 31
 455 05f4 737E0113 		asr	w19, w19, 1
 456 05f8 D1FFFF17 		b	.L66
 457              		.p2align 2
 458              	.L81:
 459 05fc F96B43A9 		ldp	x25, x26, [sp, 48]
 460 0600 82FFFF17 		b	.L53
 461              		.size	hal_io_video_putc_x_y, .-hal_io_video_putc_x_y
 462              		.align	2
 463 0604 1F2003D5 		.p2align 4,,15
 463      1F2003D5 
 463      1F2003D5 
 464              		.global	hal_io_video_puts
 465              		.type	hal_io_video_puts, %function
 466              	hal_io_video_puts:
 467 0610 F353B5A9 		stp	x19, x20, [sp, -176]!
 468 0614 F303012A 		mov	w19, w1
 469 0618 F96B03A9 		stp	x25, x26, [sp, 48]
 470 061c BA018052 		mov	w26, 13
 471 0620 F55B01A9 		stp	x21, x22, [sp, 16]
 472 0624 F60300AA 		mov	x22, x0
 473 0628 206C1C53 		lsl	w0, w1, 4
 474 062c F76302A9 		stp	x23, x24, [sp, 32]
 475 0630 17000090 		adrp	x23, .LANCHOR0
 476 0634 F7020091 		add	x23, x23, :lo12:.LANCHOR0
 477 0638 E09F00B9 		str	w0, [sp, 156]
 478 063c 207C1A1B 		mul	w0, w1, w26
 479 0640 FB7304A9 		stp	x27, x28, [sp, 64]
 480 0644 FE2B00F9 		str	x30, [sp, 80]
 481 0648 E82F00FD 		str	d8, [sp, 88]
 482 064c 4800271E 		fmov	s8, w2
 483 0650 E09B00B9 		str	w0, [sp, 152]
 484              	.L83:
 485 0654 D5024039 		ldrb	w21, [x22]
 486 0658 D5100034 		cbz	w21, .L115
 487              	.L104:
 488 065c D6060091 		add	x22, x22, 1
 489 0660 BF2A0071 		cmp	w21, 10
 490 0664 20120054 		beq	.L116
 491 0668 BF360071 		cmp	w21, 13
 492 066c 80110054 		beq	.L117
 493 0670 E003152A 		mov	w0, w21
 494 0674 F8664029 		ldp	w24, w25, [x23]
 495 0678 00000094 		bl	fonts_is_implemented
 496 067c 1F1C0072 		tst	w0, 255
 497 0680 E00D0054 		beq	.L87
 498 0684 E003152A 		mov	w0, w21
 499 0688 00000094 		bl	fonts_char_to_font
 500 068c FB0300AA 		mov	x27, x0
 501 0690 14100091 		add	x20, x0, 4
 502 0694 000040B9 		ldr	w0, [x0]
 503 0698 1A008052 		mov	w26, 0
 504 069c C0020034 		cbz	w0, .L92
 505              		.p2align 3
 506              	.L91:
 507 06a0 830240B9 		ldr	w3, [x20]
 508 06a4 0201261E 		fmov	w2, s8
AARCH64 GAS  C:\Users\A01169~1\AppData\Local\Temp\cclmDoLY.s 			page 10


 509 06a8 E0830291 		add	x0, sp, 160
 510 06ac E1A30291 		add	x1, sp, 168
 511 06b0 5A070011 		add	w26, w26, 1
 512 06b4 94420091 		add	x20, x20, 16
 513 06b8 6366031B 		madd	w3, w19, w3, w25
 514 06bc E3A300B9 		str	w3, [sp, 160]
 515 06c0 83425FB8 		ldr	w3, [x20, -12]
 516 06c4 6362031B 		madd	w3, w19, w3, w24
 517 06c8 E3A700B9 		str	w3, [sp, 164]
 518 06cc 83825FB8 		ldr	w3, [x20, -8]
 519 06d0 6366031B 		madd	w3, w19, w3, w25
 520 06d4 E3AB00B9 		str	w3, [sp, 168]
 521 06d8 83C25FB8 		ldr	w3, [x20, -4]
 522 06dc 6362031B 		madd	w3, w19, w3, w24
 523 06e0 E3AF00B9 		str	w3, [sp, 172]
 524 06e4 00000094 		bl	hal_io_video_line
 525 06e8 600340B9 		ldr	w0, [x27]
 526 06ec 1F001A6B 		cmp	w0, w26
 527 06f0 88FDFF54 		bhi	.L91
 528              	.L92:
 529 06f4 E003152A 		mov	w0, w21
 530 06f8 00000094 		bl	fonts_char_to_font
 531 06fc EA0300AA 		mov	x10, x0
 532 0700 000040B9 		ldr	w0, [x0]
 533 0704 26070011 		add	w6, w25, 1
 534 0708 07070011 		add	w7, w24, 1
 535 070c 80090034 		cbz	w0, .L87
 536 0710 19000090 		adrp	x25, printf
 537 0714 20030091 		add	x0, x25, :lo12:printf
 538 0718 45110091 		add	x5, x10, 4
 539 071c 19008052 		mov	w25, 0
 540 0720 E403192A 		mov	w4, w25
 541 0724 E0DB08A9 		stp	x0, x22, [sp, 136]
 542 0728 F603062A 		mov	w22, w6
 543 072c 1A008012 		mov	w26, -1
 544              		.p2align 3
 545              	.L103:
 546 0730 B86C4029 		ldp	w24, w27, [x5]
 547 0734 A3044129 		ldp	w3, w1, [x5, 8]
 548 0738 7500184B 		sub	w21, w3, w24
 549 073c 0203034B 		sub	w2, w24, w3
 550 0740 39001B4B 		sub	w25, w1, w27
 551 0744 6003014B 		sub	w0, w27, w1
 552 0748 785A181B 		madd	w24, w19, w24, w22
 553 074c B57E131B 		mul	w21, w21, w19
 554 0750 427C131B 		mul	w2, w2, w19
 555 0754 635A031B 		madd	w3, w19, w3, w22
 556 0758 BF020071 		cmp	w21, 0
 557 075c 397F131B 		mul	w25, w25, w19
 558 0760 55B0951A 		csel	w21, w2, w21, lt
 559 0764 007C131B 		mul	w0, w0, w19
 560 0768 1F03036B 		cmp	w24, w3
 561 076c 7B1E1B1B 		madd	w27, w19, w27, w7
 562 0770 48A79A5A 		csneg	w8, w26, w26, ge
 563 0774 7C1E011B 		madd	w28, w19, w1, w7
 564 0778 3F030071 		cmp	w25, 0
 565 077c 19B0991A 		csel	w25, w0, w25, lt
AARCH64 GAS  C:\Users\A01169~1\AppData\Local\Temp\cclmDoLY.s 			page 11


 566 0780 7F031C6B 		cmp	w27, w28
 567 0784 49A79A5A 		csneg	w9, w26, w26, ge
 568 0788 BF02196B 		cmp	w21, w25
 569 078c 2C080054 		bgt	.L97
 570 0790 F403194B 		neg	w20, w25
 571 0794 947E540B 		add	w20, w20, w20, lsr 31
 572 0798 947E0113 		asr	w20, w20, 1
 573              	.L99:
 574 079c EB03154B 		neg	w11, w21
 575 07a0 F64F0C29 		stp	w22, w19, [sp, 96]
 576 07a4 F303152A 		mov	w19, w21
 577 07a8 F603082A 		mov	w22, w8
 578 07ac F503032A 		mov	w21, w3
 579              		.p2align 3
 580              	.L98:
 581 07b0 00508052 		mov	w0, 640
 582 07b4 0201261E 		fmov	w2, s8
 583 07b8 EA3700F9 		str	x10, [sp, 104]
 584 07bc 6163001B 		madd	w1, w27, w0, w24
 585 07c0 E7130E29 		stp	w7, w4, [sp, 112]
 586 07c4 E04740F9 		ldr	x0, [sp, 136]
 587 07c8 E53F00F9 		str	x5, [sp, 120]
 588 07cc 21781F53 		lsl	w1, w1, 1
 589 07d0 E92F1029 		stp	w9, w11, [sp, 128]
 590 07d4 00000094 		bl	SmartStartPutPixelRaw
 591 07d8 BF02186B 		cmp	w21, w24
 592 07dc E003142A 		mov	w0, w20
 593 07e0 80035B7A 		ccmp	w28, w27, 0, eq
 594 07e4 E7134E29 		ldp	w7, w4, [sp, 112]
 595 07e8 EA3740F9 		ldr	x10, [sp, 104]
 596 07ec E53F40F9 		ldr	x5, [sp, 120]
 597 07f0 80010054 		beq	.L100
 598 07f4 E92F5029 		ldp	w9, w11, [sp, 128]
 599 07f8 7F01146B 		cmp	w11, w20
 600 07fc 6A000054 		bge	.L101
 601 0800 1803160B 		add	w24, w24, w22
 602 0804 8002194B 		sub	w0, w20, w25
 603              	.L101:
 604 0808 3F03146B 		cmp	w25, w20
 605 080c 6D000054 		ble	.L102
 606 0810 0000130B 		add	w0, w0, w19
 607 0814 7B03090B 		add	w27, w27, w9
 608              	.L102:
 609 0818 F403002A 		mov	w20, w0
 610 081c E5FFFF17 		b	.L98
 611              		.p2align 2
 612              	.L100:
 613 0820 400140B9 		ldr	w0, [x10]
 614 0824 84040011 		add	w4, w4, 1
 615 0828 A5400091 		add	x5, x5, 16
 616 082c 1F00046B 		cmp	w0, w4
 617 0830 F64F4C29 		ldp	w22, w19, [sp, 96]
 618 0834 E8F7FF54 		bhi	.L103
 619 0838 F64B40F9 		ldr	x22, [sp, 144]
 620              	.L87:
 621 083c 231A8052 		mov	w3, 209
 622 0840 A301BA72 		movk	w3, 0xd00d, lsl 16
AARCH64 GAS  C:\Users\A01169~1\AppData\Local\Temp\cclmDoLY.s 			page 12


 623 0844 E00640B9 		ldr	w0, [x23, 4]
 624 0848 E19B40B9 		ldr	w1, [sp, 152]
 625 084c C24E8052 		mov	w2, 630
 626 0850 2100000B 		add	w1, w1, w0
 627 0854 207C0153 		lsr	w0, w1, 1
 628 0858 007CA39B 		umull	x0, w0, w3
 629 085c 00FC68D3 		lsr	x0, x0, 40
 630 0860 0084021B 		msub	w0, w0, w2, w1
 631 0864 E00600B9 		str	w0, [x23, 4]
 632 0868 D5024039 		ldrb	w21, [x22]
 633 086c 95EFFF35 		cbnz	w21, .L104
 634              	.L115:
 635 0870 F55B41A9 		ldp	x21, x22, [sp, 16]
 636 0874 F76342A9 		ldp	x23, x24, [sp, 32]
 637 0878 F96B43A9 		ldp	x25, x26, [sp, 48]
 638 087c FB7344A9 		ldp	x27, x28, [sp, 64]
 639 0880 FE2B40F9 		ldr	x30, [sp, 80]
 640 0884 E82F40FD 		ldr	d8, [sp, 88]
 641 0888 F353CBA8 		ldp	x19, x20, [sp], 176
 642 088c C0035FD6 		ret
 643              		.p2align 2
 644              	.L97:
 645 0890 B47E550B 		add	w20, w21, w21, lsr 31
 646 0894 947E0113 		asr	w20, w20, 1
 647 0898 C1FFFF17 		b	.L99
 648              		.p2align 2
 649              	.L117:
 650 089c 40018052 		mov	w0, 10
 651 08a0 E00600B9 		str	w0, [x23, 4]
 652 08a4 6CFFFF17 		b	.L83
 653              		.p2align 2
 654              	.L116:
 655 08a8 E10240B9 		ldr	w1, [x23]
 656 08ac 20619952 		mov	w0, 51977
 657 08b0 A0A7B172 		movk	w0, 0x8d3d, lsl 16
 658 08b4 E39F40B9 		ldr	w3, [sp, 156]
 659 08b8 21240011 		add	w1, w1, 9
 660 08bc 023A8052 		mov	w2, 464
 661 08c0 2100030B 		add	w1, w1, w3
 662 08c4 207CA09B 		umull	x0, w1, w0
 663 08c8 00FC68D3 		lsr	x0, x0, 40
 664 08cc 0084021B 		msub	w0, w0, w2, w1
 665 08d0 E00200B9 		str	w0, [x23]
 666 08d4 60FFFF17 		b	.L83
 667              		.size	hal_io_video_puts, .-hal_io_video_puts
 668              		.align	2
 669 08d8 1F2003D5 		.p2align 4,,15
 669      1F2003D5 
 670              		.global	hal_io_video_put_pixel
 671              		.type	hal_io_video_put_pixel, %function
 672              	hal_io_video_put_pixel:
 673 08e0 E30300AA 		mov	x3, x0
 674 08e4 E203012A 		mov	w2, w1
 675 08e8 05508052 		mov	w5, 640
 676 08ec 00000090 		adrp	x0, printf
 677 08f0 00000091 		add	x0, x0, :lo12:printf
 678 08f4 64044029 		ldp	w4, w1, [x3]
AARCH64 GAS  C:\Users\A01169~1\AppData\Local\Temp\cclmDoLY.s 			page 13


 679 08f8 2110051B 		madd	w1, w1, w5, w4
 680 08fc 21781F53 		lsl	w1, w1, 1
 681 0900 00000014 		b	SmartStartPutPixelRaw
 682              		.size	hal_io_video_put_pixel, .-hal_io_video_put_pixel
 683              		.align	2
 684 0904 1F2003D5 		.p2align 4,,15
 684      1F2003D5 
 684      1F2003D5 
 685              		.global	hal_io_serial_init
 686              		.type	hal_io_serial_init, %function
 687              	hal_io_serial_init:
 688 0910 010682D2 		mov	x1, 4144
 689 0914 01E4A7F2 		movk	x1, 0x3f20, lsl 16
 690 0918 831280D2 		mov	x3, 148
 691 091c 03E4A7F2 		movk	x3, 0x3f20, lsl 16
 692 0920 3F0000B9 		str	wzr, [x1]
 693 0924 C0128052 		mov	w0, 150
 694 0928 E203002A 		mov	w2, w0
 695 092c 7F0000B9 		str	wzr, [x3]
 696              		// Start of user assembly
 697              	// 312 "src/hal/hal_io.c" 1
 698 0930 420400F1 		__delay_881: subs x2, x2, #1; bne __delay_881
 698      E1FFFF54 
 699              	
 700              	// 0 "" 2
 701              		// End of user assembly
 702 0938 021380D2 		mov	x2, 152
 703 093c 02E4A7F2 		movk	x2, 0x3f20, lsl 16
 704 0940 03009852 		mov	w3, 49152
 705 0944 430000B9 		str	w3, [x2]
 706              		// Start of user assembly
 707              	// 312 "src/hal/hal_io.c" 1
 708 0948 000400F1 		__delay_886: subs x0, x0, #1; bne __delay_886
 708      E1FFFF54 
 709              	
 710              	// 0 "" 2
 711              		// End of user assembly
 712 0950 840882D2 		mov	x4, 4164
 713 0954 04E4A7F2 		movk	x4, 0x3f20, lsl 16
 714 0958 800482D2 		mov	x0, 4132
 715 095c 00E4A7F2 		movk	x0, 0x3f20, lsl 16
 716 0960 5F0000B9 		str	wzr, [x2]
 717 0964 030582D2 		mov	x3, 4136
 718 0968 03E4A7F2 		movk	x3, 0x3f20, lsl 16
 719 096c E2FF8052 		mov	w2, 2047
 720 0970 820000B9 		str	w2, [x4]
 721 0974 24008052 		mov	w4, 1
 722 0978 820582D2 		mov	x2, 4140
 723 097c 02E4A7F2 		movk	x2, 0x3f20, lsl 16
 724 0980 040000B9 		str	w4, [x0]
 725 0984 04058052 		mov	w4, 40
 726 0988 640000B9 		str	w4, [x3]
 727 098c 030E8052 		mov	w3, 112
 728 0990 430000B9 		str	w3, [x2]
 729 0994 42FE8052 		mov	w2, 2034
 730 0998 021400B9 		str	w2, [x0, 20]
 731 099c 20608052 		mov	w0, 769
AARCH64 GAS  C:\Users\A01169~1\AppData\Local\Temp\cclmDoLY.s 			page 14


 732 09a0 200000B9 		str	w0, [x1]
 733 09a4 C0035FD6 		ret
 734              		.size	hal_io_serial_init, .-hal_io_serial_init
 735              		.align	2
 736 09a8 1F2003D5 		.p2align 4,,15
 736      1F2003D5 
 737              		.global	hal_io_serial_puts
 738              		.type	hal_io_serial_puts, %function
 739              	hal_io_serial_puts:
 740 09b0 040382D2 		mov	x4, 4120
 741 09b4 04E4A7F2 		movk	x4, 0x3f20, lsl 16
 742 09b8 050082D2 		mov	x5, 4096
 743 09bc 05E4A7F2 		movk	x5, 0x3f20, lsl 16
 744              		.p2align 3
 745              	.L121:
 746 09c0 22004039 		ldrb	w2, [x1]
 747 09c4 02010034 		cbz	w2, .L126
 748              	.L124:
 749 09c8 21040091 		add	x1, x1, 1
 750 09cc A0FFFF35 		cbnz	w0, .L121
 751              		.p2align 3
 752              	.L123:
 753 09d0 830040B9 		ldr	w3, [x4]
 754 09d4 E3FF2F37 		tbnz	x3, 5, .L123
 755 09d8 A20000B9 		str	w2, [x5]
 756 09dc 22004039 		ldrb	w2, [x1]
 757 09e0 42FFFF35 		cbnz	w2, .L124
 758              	.L126:
 759 09e4 C0035FD6 		ret
 760              		.size	hal_io_serial_puts, .-hal_io_serial_puts
 761              		.align	2
 762 09e8 1F2003D5 		.p2align 4,,15
 762      1F2003D5 
 763              		.global	hal_io_serial_putc
 764              		.type	hal_io_serial_putc, %function
 765              	hal_io_serial_putc:
 766 09f0 211C0012 		and	w1, w1, 255
 767 09f4 00010035 		cbnz	w0, .L127
 768 09f8 020382D2 		mov	x2, 4120
 769 09fc 02E4A7F2 		movk	x2, 0x3f20, lsl 16
 770              		.p2align 3
 771              	.L129:
 772 0a00 400040B9 		ldr	w0, [x2]
 773 0a04 E0FF2F37 		tbnz	x0, 5, .L129
 774 0a08 000082D2 		mov	x0, 4096
 775 0a0c 00E4A7F2 		movk	x0, 0x3f20, lsl 16
 776 0a10 010000B9 		str	w1, [x0]
 777              	.L127:
 778 0a14 C0035FD6 		ret
 779              		.size	hal_io_serial_putc, .-hal_io_serial_putc
 780              		.align	2
 781 0a18 1F2003D5 		.p2align 4,,15
 781      1F2003D5 
 782              		.global	hal_io_serial_getc
 783              		.type	hal_io_serial_getc, %function
 784              	hal_io_serial_getc:
 785 0a20 010382D2 		mov	x1, 4120
AARCH64 GAS  C:\Users\A01169~1\AppData\Local\Temp\cclmDoLY.s 			page 15


 786 0a24 01E4A7F2 		movk	x1, 0x3f20, lsl 16
 787 0a28 A0000034 		cbz	w0, .L132
 788 0a2c 1F040071 		cmp	w0, 1
 789 0a30 41000054 		bne	.L131
 790 0a34 00008052 		mov	w0, 0
 791              	.L131:
 792 0a38 C0035FD6 		ret
 793              		.p2align 2
 794              	.L132:
 795 0a3c 200040B9 		ldr	w0, [x1]
 796 0a40 E0FF2737 		tbnz	x0, 4, .L132
 797 0a44 000082D2 		mov	x0, 4096
 798 0a48 00E4A7F2 		movk	x0, 0x3f20, lsl 16
 799 0a4c 000040B9 		ldr	w0, [x0]
 800 0a50 001C0012 		and	w0, w0, 255
 801 0a54 C0035FD6 		ret
 802              		.size	hal_io_serial_getc, .-hal_io_serial_getc
 803              		.global	curr_y
 804              		.global	curr_x
 805              		.data
 806              		.align	2
 807              		.set	.LANCHOR0,. + 0
 808              		.type	curr_y, %object
 809              		.size	curr_y, 4
 810              	curr_y:
 811 0000 20000000 		.word	32
 812              		.type	curr_x, %object
 813              		.size	curr_x, 4
 814              	curr_x:
 815 0004 0A000000 		.word	10
 816              		.ident	"GCC: (GNU Toolchain for the A-profile Architecture 8.2-2019.01 (arm-rel-8.28)) 8.2.1 20180
AARCH64 GAS  C:\Users\A01169~1\AppData\Local\Temp\cclmDoLY.s 			page 16


DEFINED SYMBOLS
                            *ABS*:0000000000000000 hal_io.c
C:\Users\A01169~1\AppData\Local\Temp\cclmDoLY.s:4      .text:0000000000000000 $x
C:\Users\A01169~1\AppData\Local\Temp\cclmDoLY.s:8      .text:0000000000000000 hal_io_init
C:\Users\A01169~1\AppData\Local\Temp\cclmDoLY.s:15     .text:0000000000000010 hal_io_video_init
C:\Users\A01169~1\AppData\Local\Temp\cclmDoLY.s:23     .text:0000000000000020 hal_io_video_line
C:\Users\A01169~1\AppData\Local\Temp\cclmDoLY.s:102    .text:0000000000000120 hal_io_video_putc
C:\Users\A01169~1\AppData\Local\Temp\cclmDoLY.s:301    .text:00000000000003d0 hal_io_video_putc_x_y
C:\Users\A01169~1\AppData\Local\Temp\cclmDoLY.s:466    .text:0000000000000610 hal_io_video_puts
C:\Users\A01169~1\AppData\Local\Temp\cclmDoLY.s:672    .text:00000000000008e0 hal_io_video_put_pixel
C:\Users\A01169~1\AppData\Local\Temp\cclmDoLY.s:687    .text:0000000000000910 hal_io_serial_init
C:\Users\A01169~1\AppData\Local\Temp\cclmDoLY.s:698    .text:0000000000000930 __delay_881
C:\Users\A01169~1\AppData\Local\Temp\cclmDoLY.s:708    .text:0000000000000948 __delay_886
C:\Users\A01169~1\AppData\Local\Temp\cclmDoLY.s:739    .text:00000000000009b0 hal_io_serial_puts
C:\Users\A01169~1\AppData\Local\Temp\cclmDoLY.s:765    .text:00000000000009f0 hal_io_serial_putc
C:\Users\A01169~1\AppData\Local\Temp\cclmDoLY.s:784    .text:0000000000000a20 hal_io_serial_getc
C:\Users\A01169~1\AppData\Local\Temp\cclmDoLY.s:810    .data:0000000000000000 curr_y
C:\Users\A01169~1\AppData\Local\Temp\cclmDoLY.s:814    .data:0000000000000004 curr_x
C:\Users\A01169~1\AppData\Local\Temp\cclmDoLY.s:806    .data:0000000000000000 $d

UNDEFINED SYMBOLS
fonts_init
printf
SmartStartPutPixelRaw
fonts_is_implemented
fonts_char_to_font
